	.arch armv7-a
	.fpu softvfp
	.eabi_attribute 20, 1
	.eabi_attribute 21, 1
	.eabi_attribute 23, 3
	.eabi_attribute 24, 1
	.eabi_attribute 25, 1
	.eabi_attribute 26, 2
	.eabi_attribute 30, 2
	.eabi_attribute 18, 4
	.file	"scd_drv.c"
@ GNU C (Hisilicon_v200(gcc4.4-290+glibc-2.11+eabi+nptl)) version 4.4.1 (arm-hisiv200-linux-gnueabi)
@	compiled by GNU C version 4.1.1 20061011 (Red Hat 4.1.1-30), GMP version 4.3.1, MPFR version 2.4.2.
@ GGC heuristics: --param ggc-min-expand=100 --param ggc-min-heapsize=131072
@ options passed:  -nostdinc
@ -I/hihome/HiSTBAndroidV5/images_and_tools/release/hi3798mv100/master_4.4/HiSTBAndroidV5_release/HiSTBAndroidV600R001C00SPC060/device/hisilicon/bigfish/sdk/source/kernel/linux-3.10.y/arch/arm/include
@ -Iarch/arm/include/generated
@ -I/hihome/HiSTBAndroidV5/images_and_tools/release/hi3798mv100/master_4.4/HiSTBAndroidV5_release/HiSTBAndroidV600R001C00SPC060/device/hisilicon/bigfish/sdk/source/kernel/linux-3.10.y/include
@ -Iinclude
@ -I/hihome/HiSTBAndroidV5/images_and_tools/release/hi3798mv100/master_4.4/HiSTBAndroidV5_release/HiSTBAndroidV600R001C00SPC060/device/hisilicon/bigfish/sdk/source/kernel/linux-3.10.y/arch/arm/include/uapi
@ -Iarch/arm/include/generated/uapi
@ -I/hihome/HiSTBAndroidV5/images_and_tools/release/hi3798mv100/master_4.4/HiSTBAndroidV5_release/HiSTBAndroidV600R001C00SPC060/device/hisilicon/bigfish/sdk/source/kernel/linux-3.10.y/include/uapi
@ -Iinclude/generated/uapi
@ -I/hihome/HiSTBAndroidV5/images_and_tools/release/hi3798mv100/master_4.4/HiSTBAndroidV5_release/HiSTBAndroidV600R001C00SPC060/device/hisilicon/bigfish/sdk/source/kernel/linux-3.10.y/drivers/msp/vfmw/vfmw_v4.0
@ -Idrivers/msp/vfmw/vfmw_v4.0
@ -I/hihome/HiSTBAndroidV5/images_and_tools/release/hi3798mv100/master_4.4/HiSTBAndroidV5_release/HiSTBAndroidV600R001C00SPC060/device/hisilicon/bigfish/sdk/source/kernel/linux-3.10.y/arch/arm/mach-hi3798mx/include
@ -I/hihome/HiSTBAndroidV5/images_and_tools/release/hi3798mv100/master_4.4/HiSTBAndroidV5_release/HiSTBAndroidV600R001C00SPC060/device/hisilicon/bigfish/sdk/source/kernel/linux-3.10.y/../../../source/common/include
@ -I/hihome/HiSTBAndroidV5/images_and_tools/release/hi3798mv100/master_4.4/HiSTBAndroidV5_release/HiSTBAndroidV600R001C00SPC060/device/hisilicon/bigfish/sdk/source/kernel/linux-3.10.y/../../../source/common/drv/include
@ -I/hihome/HiSTBAndroidV5/images_and_tools/release/hi3798mv100/master_4.4/HiSTBAndroidV5_release/HiSTBAndroidV600R001C00SPC060/device/hisilicon/bigfish/sdk/source/kernel/linux-3.10.y/../../../source/msp/drv/vfmw/vfmw_v4.0
@ -I/hihome/HiSTBAndroidV5/images_and_tools/release/hi3798mv100/master_4.4/HiSTBAndroidV5_release/HiSTBAndroidV600R001C00SPC060/device/hisilicon/bigfish/sdk/source/kernel/linux-3.10.y/../../../source/msp/drv/vfmw/vfmw_v4.0/scene/stb
@ -I/hihome/HiSTBAndroidV5/images_and_tools/release/hi3798mv100/master_4.4/HiSTBAndroidV5_release/HiSTBAndroidV600R001C00SPC060/device/hisilicon/bigfish/sdk/source/kernel/linux-3.10.y/../../../source/msp/drv/vfmw/vfmw_v4.0/firmware/common
@ -I/hihome/HiSTBAndroidV5/images_and_tools/release/hi3798mv100/master_4.4/HiSTBAndroidV5_release/HiSTBAndroidV600R001C00SPC060/device/hisilicon/bigfish/sdk/source/kernel/linux-3.10.y/../../../source/msp/drv/vfmw/vfmw_v4.0/firmware/osal/linux_kernel
@ -I/hihome/HiSTBAndroidV5/images_and_tools/release/hi3798mv100/master_4.4/HiSTBAndroidV5_release/HiSTBAndroidV600R001C00SPC060/device/hisilicon/bigfish/sdk/source/kernel/linux-3.10.y/../../../source/msp/drv/vfmw/vfmw_v4.0/firmware/common/softlib
@ -I/hihome/HiSTBAndroidV5/images_and_tools/release/hi3798mv100/master_4.4/HiSTBAndroidV5_release/HiSTBAndroidV600R001C00SPC060/device/hisilicon/bigfish/sdk/source/kernel/linux-3.10.y/../../../source/msp/drv/vfmw/vfmw_v4.0/firmware/common/syntax
@ -I/hihome/HiSTBAndroidV5/images_and_tools/release/hi3798mv100/master_4.4/HiSTBAndroidV5_release/HiSTBAndroidV600R001C00SPC060/device/hisilicon/bigfish/sdk/source/kernel/linux-3.10.y/../../../source/msp/drv/vfmw/vfmw_v4.0/firmware/driver/HiSCDV200
@ -I/hihome/HiSTBAndroidV5/images_and_tools/release/hi3798mv100/master_4.4/HiSTBAndroidV5_release/HiSTBAndroidV600R001C00SPC060/device/hisilicon/bigfish/sdk/source/kernel/linux-3.10.y/../../../source/msp/drv/vfmw/vfmw_v4.0/firmware/driver/HiVDHV300R001
@ -I/hihome/HiSTBAndroidV5/images_and_tools/release/hi3798mv100/master_4.4/HiSTBAndroidV5_release/HiSTBAndroidV600R001C00SPC060/device/hisilicon/bigfish/sdk/source/kernel/linux-3.10.y/../../../source/msp/drv/vfmw/vfmw_v4.0/firmware/product/Hi3798MV100
@ -I/hihome/HiSTBAndroidV5/images_and_tools/release/hi3798mv100/master_4.4/HiSTBAndroidV5_release/HiSTBAndroidV600R001C00SPC060/device/hisilicon/bigfish/sdk/source/kernel/linux-3.10.y/../../../source/msp/drv/vfmw/vfmw_v4.0/firmware/common_test/vdecko
@ -imultilib armv7a_soft -iprefix
@ /opt/hisi-linux/x86-arm/arm-hisiv200-linux/bin/../lib/gcc/arm-hisiv200-linux-gnueabi/4.4.1/
@ -isysroot /opt/hisi-linux/x86-arm/arm-hisiv200-linux/bin/../target
@ -D__KERNEL__ -D__LINUX_ARM_ARCH__=7 -Uarm -DCHIP_TYPE_hi3796mv100
@ -DSDK_VERSION=HiSTBAndroidV600R001C00SPC060_v2015040918 -DHI_MCE_SUPPORT
@ -DHI_GPIOI2C_SUPPORT -DHI_LOG_SUPPORT=1 -DHI_LOG_LEVEL=4
@ -DHI_PROC_SUPPORT=1 -DHI_HDMI_SUPPORT_1_4 -DHI_KEYLED_SUPPORT
@ -DHI_HDCP_SUPPORT -DHI_SCI_SUPPORT -DHI_PVR_SUPPORT -DHI_VI_SUPPORT
@ -DHI_VENC_SUPPORT -DHI_AENC_SUPPORT -DHI_PQ_V3_0 -DENV_ARMLINUX_KERNEL
@ -DDNR_DISABLE -DSCD_MP4_SLICE_ENABLE -DSUPPORT_JPEG_444
@ -DVFMW_EXTRA_TYPE_DEFINE -DPRODUCT_STB -D__VFMW_REGISTER_ISR__
@ -DQ_MATRIX_FIXED -DVFMW_VDH_V300R001_SUPPORT -DCFG_SCD_TIME_OUT=2000
@ -DCFG_VDH_TIME_OUT=500 -DVFMW_H264_SUPPORT -DVFMW_HEVC_SUPPORT
@ -DVFMW_MVC_SUPPORT -DVFMW_MPEG2_SUPPORT -DVFMW_MPEG4_SUPPORT
@ -DVFMW_AVS_SUPPORT -DVFMW_VC1_SUPPORT -DVFMW_BPD_H_SUPPORT
@ -DVFMW_REAL8_SUPPORT -DVFMW_REAL9_SUPPORT -DVFMW_VP6_SUPPORT
@ -DVFMW_VP8_SUPPORT -DVFMW_DIVX3_SUPPORT -DVFMW_H263_SUPPORT
@ -DVFMW_JPEG_SUPPORT -DVFMW_RAW_SUPPORT -DVFMW_USER_SUPPORT
@ -DCFG_MAX_CHAN_NUM=16 -DVFMW_DPRINT_SUPPORT -DVFMW_SCD_LOWDLY_SUPPORT
@ -DVFMW_AVSPLUS_SUPPORT -DVFMW_MODULE_LOWDLY_SUPPORT
@ -DVFMW_SYSTEM_REG_DISABLE -DHI_VDEC_SVDEC_BUILTIN -DKBUILD_STR(s)=#s
@ -DKBUILD_BASENAME=KBUILD_STR(scd_drv)
@ -DKBUILD_MODNAME=KBUILD_STR(hi_vfmw) -isystem
@ /opt/hisi-linux/x86-arm/arm-hisiv200-linux/bin/../lib/gcc/arm-hisiv200-linux-gnueabi/4.4.1/include
@ -include
@ /hihome/HiSTBAndroidV5/images_and_tools/release/hi3798mv100/master_4.4/HiSTBAndroidV5_release/HiSTBAndroidV600R001C00SPC060/device/hisilicon/bigfish/sdk/source/kernel/linux-3.10.y/include/linux/kconfig.h
@ -MD drivers/msp/vfmw/vfmw_v4.0/firmware/driver/HiSCDV200/.scd_drv.o.d
@ /hihome/HiSTBAndroidV5/images_and_tools/release/hi3798mv100/master_4.4/HiSTBAndroidV5_release/HiSTBAndroidV600R001C00SPC060/device/hisilicon/bigfish/sdk/source/kernel/linux-3.10.y/drivers/msp/vfmw/vfmw_v4.0/firmware/driver/HiSCDV200/scd_drv.c
@ -mlittle-endian -mapcs -mno-sched-prolog -mabi=aapcs-linux
@ -mno-thumb-interwork -marm -march=armv7-a -msoft-float -auxbase-strip
@ drivers/msp/vfmw/vfmw_v4.0/firmware/driver/HiSCDV200/scd_drv.o -O2 -Wall
@ -Wundef -Wstrict-prototypes -Wno-trigraphs
@ -Werror-implicit-function-declaration -Wno-format-security
@ -Wframe-larger-than=1024 -Wdeclaration-after-statement -Wno-pointer-sign
@ -p -fno-strict-aliasing -fno-common -fno-delete-null-pointer-checks
@ -fno-dwarf2-cfi-asm -funwind-tables -fno-stack-protector
@ -fno-omit-frame-pointer -fno-optimize-sibling-calls -fno-strict-overflow
@ -fconserve-stack -fno-pic -fverbose-asm
@ options enabled:  -falign-loops -fargument-alias -fauto-inc-dec
@ -fbranch-count-reg -fcaller-saves -fcprop-registers -fcrossjumping
@ -fcse-follow-jumps -fdefer-pop -fearly-inlining
@ -feliminate-unused-debug-types -fexpensive-optimizations
@ -fforward-propagate -ffunction-cse -fgcse -fgcse-lm
@ -fguess-branch-probability -fident -fif-conversion -fif-conversion2
@ -findirect-inlining -finline -finline-functions-called-once
@ -finline-small-functions -fipa-cp -fipa-pure-const -fipa-reference
@ -fira-share-save-slots -fira-share-spill-slots -fivopts
@ -fkeep-static-consts -fleading-underscore -fmath-errno -fmerge-constants
@ -fmerge-debug-strings -fmove-loop-invariants -foptimize-register-move
@ -fpeephole -fpeephole2 -fprofile -fpromote-loop-indices
@ -freg-struct-return -fregmove -frename-registers -freorder-blocks
@ -freorder-functions -frerun-cse-after-loop -fsched-interblock
@ -fsched-spec -fsched-stalled-insns-dep -fschedule-insns -fschedule-insns2
@ -fsection-anchors -fsigned-zeros -fsplit-ivs-in-unroller
@ -fsplit-wide-types -fthread-jumps -ftoplevel-reorder -ftrapping-math
@ -ftree-builtin-call-dce -ftree-ccp -ftree-ch -ftree-copy-prop
@ -ftree-copyrename -ftree-cselim -ftree-dce -ftree-dominator-opts
@ -ftree-dse -ftree-fre -ftree-loop-im -ftree-loop-ivcanon
@ -ftree-loop-optimize -ftree-parallelize-loops= -ftree-pre -ftree-reassoc
@ -ftree-scev-cprop -ftree-sink -ftree-sra -ftree-switch-conversion
@ -ftree-ter -ftree-vect-loop-version -ftree-vrp -funit-at-a-time
@ -funroll-loops -funwind-tables -fverbose-asm -fweb
@ -fzero-initialized-in-bss -mapcs-frame -mglibc -mlittle-endian

@ Compiler executable checksum: fa59e0bd179ef45b3a3c3e6f3383fdac

	.text
	.align	2
	.global	GetInstIDByRawArray
	.type	GetInstIDByRawArray, %function
GetInstIDByRawArray:
	.fnstart
.LFB1530:
	@ args = 0, pretend = 0, frame = 0
	@ frame_needed = 1, uses_anonymous_args = 0
	.movsp ip
	mov	ip, sp	@,
	stmfd	sp!, {fp, ip, lr, pc}	@,
	.pad #4
	.save {fp, ip, lr}
	.setfp fp, ip, #-4
	sub	fp, ip, #4	@,,
	push	{lr}
	bl	__gnu_mcount_nc
	movw	r3, #:lower16:.LANCHOR0	@ tmp185,
	movt	r3, #:upper16:.LANCHOR0	@ tmp185,
	ldr	r2, [r3, #40]	@ temp.760, <variable>.pSmInstArray
	cmp	r2, #0	@ temp.760,
	beq	.L2	@,
	add	r2, r2, #200	@ tmp153, temp.760,
	cmp	r2, r0	@ tmp153, pRawArray
	moveq	r0, #0	@ i,
	ldmeqfd	sp, {fp, sp, pc}	@
.L2:
	ldr	r2, [r3, #88]	@ temp.762, <variable>.pSmInstArray
	cmp	r2, #0	@ temp.762,
	beq	.L4	@,
	add	r1, r2, #200	@ tmp155, temp.762,
	cmp	r1, r0	@ tmp155, pRawArray
	moveq	r0, #1	@ i,
	ldmeqfd	sp, {fp, sp, pc}	@
.L4:
	ldr	r2, [r3, #136]	@ temp.764, <variable>.pSmInstArray
	cmp	r2, #0	@ temp.764,
	beq	.L5	@,
	add	ip, r2, #200	@ tmp157, temp.764,
	cmp	ip, r0	@ tmp157, pRawArray
	moveq	r0, #2	@ i,
	ldmeqfd	sp, {fp, sp, pc}	@
.L5:
	ldr	r2, [r3, #184]	@ temp.766, <variable>.pSmInstArray
	cmp	r2, #0	@ temp.766,
	beq	.L6	@,
	add	r2, r2, #200	@ tmp159, temp.766,
	cmp	r2, r0	@ tmp159, pRawArray
	moveq	r0, #3	@ i,
	ldmeqfd	sp, {fp, sp, pc}	@
.L6:
	ldr	r2, [r3, #232]	@ temp.768, <variable>.pSmInstArray
	cmp	r2, #0	@ temp.768,
	beq	.L7	@,
	add	r1, r2, #200	@ tmp161, temp.768,
	cmp	r1, r0	@ tmp161, pRawArray
	moveq	r0, #4	@ i,
	ldmeqfd	sp, {fp, sp, pc}	@
.L7:
	ldr	r2, [r3, #280]	@ temp.770, <variable>.pSmInstArray
	cmp	r2, #0	@ temp.770,
	beq	.L8	@,
	add	ip, r2, #200	@ tmp163, temp.770,
	cmp	ip, r0	@ tmp163, pRawArray
	moveq	r0, #5	@ i,
	ldmeqfd	sp, {fp, sp, pc}	@
.L8:
	ldr	r2, [r3, #328]	@ temp.772, <variable>.pSmInstArray
	cmp	r2, #0	@ temp.772,
	beq	.L9	@,
	add	r2, r2, #200	@ tmp165, temp.772,
	cmp	r2, r0	@ tmp165, pRawArray
	moveq	r0, #6	@ i,
	ldmeqfd	sp, {fp, sp, pc}	@
.L9:
	ldr	r2, [r3, #376]	@ temp.774, <variable>.pSmInstArray
	cmp	r2, #0	@ temp.774,
	beq	.L10	@,
	add	r1, r2, #200	@ tmp167, temp.774,
	cmp	r1, r0	@ tmp167, pRawArray
	moveq	r0, #7	@ i,
	ldmeqfd	sp, {fp, sp, pc}	@
.L10:
	ldr	r2, [r3, #424]	@ temp.776, <variable>.pSmInstArray
	cmp	r2, #0	@ temp.776,
	beq	.L11	@,
	add	ip, r2, #200	@ tmp169, temp.776,
	cmp	ip, r0	@ tmp169, pRawArray
	moveq	r0, #8	@ i,
	ldmeqfd	sp, {fp, sp, pc}	@
.L11:
	ldr	r2, [r3, #472]	@ temp.778, <variable>.pSmInstArray
	cmp	r2, #0	@ temp.778,
	beq	.L12	@,
	add	r2, r2, #200	@ tmp171, temp.778,
	cmp	r2, r0	@ tmp171, pRawArray
	moveq	r0, #9	@ i,
	ldmeqfd	sp, {fp, sp, pc}	@
.L12:
	ldr	r2, [r3, #520]	@ temp.780, <variable>.pSmInstArray
	cmp	r2, #0	@ temp.780,
	beq	.L13	@,
	add	r1, r2, #200	@ tmp173, temp.780,
	cmp	r1, r0	@ tmp173, pRawArray
	moveq	r0, #10	@ i,
	ldmeqfd	sp, {fp, sp, pc}	@
.L13:
	ldr	r2, [r3, #568]	@ temp.782, <variable>.pSmInstArray
	cmp	r2, #0	@ temp.782,
	beq	.L14	@,
	add	ip, r2, #200	@ tmp175, temp.782,
	cmp	ip, r0	@ tmp175, pRawArray
	moveq	r0, #11	@ i,
	ldmeqfd	sp, {fp, sp, pc}	@
.L14:
	ldr	r2, [r3, #616]	@ temp.784, <variable>.pSmInstArray
	cmp	r2, #0	@ temp.784,
	beq	.L15	@,
	add	r2, r2, #200	@ tmp177, temp.784,
	cmp	r2, r0	@ tmp177, pRawArray
	moveq	r0, #12	@ i,
	ldmeqfd	sp, {fp, sp, pc}	@
.L15:
	ldr	r2, [r3, #664]	@ temp.786, <variable>.pSmInstArray
	cmp	r2, #0	@ temp.786,
	beq	.L16	@,
	add	r1, r2, #200	@ tmp179, temp.786,
	cmp	r1, r0	@ tmp179, pRawArray
	moveq	r0, #13	@ i,
	ldmeqfd	sp, {fp, sp, pc}	@
.L16:
	ldr	r2, [r3, #712]	@ temp.788, <variable>.pSmInstArray
	cmp	r2, #0	@ temp.788,
	beq	.L17	@,
	add	ip, r2, #200	@ tmp181, temp.788,
	cmp	ip, r0	@ tmp181, pRawArray
	moveq	r0, #14	@ i,
	ldmeqfd	sp, {fp, sp, pc}	@
.L17:
	ldr	r3, [r3, #760]	@ D.49612, <variable>.pSmInstArray
	cmp	r3, #0	@ D.49612,
	beq	.L18	@,
	add	r3, r3, #200	@ tmp183, D.49612,
	cmp	r3, r0	@ tmp183, pRawArray
	moveq	r0, #15	@ i,
	ldmeqfd	sp, {fp, sp, pc}	@
.L18:
	mvn	r0, #0	@ i,
	ldmfd	sp, {fp, sp, pc}	@
	.fnend
	.size	GetInstIDByRawArray, .-GetInstIDByRawArray
	.align	2
	.global	GetRawState
	.type	GetRawState, %function
GetRawState:
	.fnstart
.LFB1536:
	@ args = 0, pretend = 0, frame = 0
	@ frame_needed = 1, uses_anonymous_args = 0
	.movsp ip
	mov	ip, sp	@,
	stmfd	sp!, {fp, ip, lr, pc}	@,
	.pad #4
	.save {fp, ip, lr}
	.setfp fp, ip, #-4
	sub	fp, ip, #4	@,,
	push	{lr}
	bl	__gnu_mcount_nc
	cmp	r0, #15	@ SmID,
	bls	.L25	@,
.L22:
	mvn	r0, #3	@ Ret,
	ldmfd	sp, {fp, sp, pc}	@
.L25:
	add	r0, r0, r0, asl #1	@, tmp141, SmID, SmID,
	movw	r1, #:lower16:.LANCHOR0	@ tmp137,
	movt	r1, #:upper16:.LANCHOR0	@ tmp137,
	add	r3, r1, r0, asl #4	@, tmp143, tmp137, tmp141,
	ldr	r3, [r3, #40]	@ D.49699, <variable>.pSmInstArray
	cmp	r3, #0	@ D.49699,
	beq	.L22	@,
	movw	ip, #:lower16:98508	@ tmp145,
	movt	ip, #:upper16:98508	@ tmp145,
	movw	r2, #:lower16:98512	@ tmp155,
	movt	r2, #:upper16:98512	@ tmp155,
	ldr	r0, [r3, ip]	@ <variable>.RawPacketArray.Tail, <variable>.RawPacketArray.Tail
	ldr	ip, [r3, r2]	@ <variable>.RawPacketArray.History, <variable>.RawPacketArray.History
	add	r3, r0, #1	@ tmp146, <variable>.RawPacketArray.Tail,
	mov	r2, r3, asr #31	@ tmp149, tmp146,
	mov	r2, r2, lsr #22	@ tmp150, tmp149,
	add	r1, r3, r2	@ tmp151, tmp146, tmp150
	mov	r3, r1, asl #22	@ tmp152, tmp151,
	mov	r1, r3, lsr #22	@ tmp152, tmp152,
	rsb	r3, r2, r1	@ tmp154, tmp150, tmp152
	cmp	r3, ip	@ tmp154, <variable>.RawPacketArray.History
	movne	r0, #0	@ Ret,
	ldmnefd	sp, {fp, sp, pc}	@
	b	.L22	@
	.fnend
	.size	GetRawState, .-GetRawState
	.align	2
	.global	SetFirstOffset
	.type	SetFirstOffset, %function
SetFirstOffset:
	.fnstart
.LFB1539:
	@ args = 0, pretend = 0, frame = 0
	@ frame_needed = 1, uses_anonymous_args = 0
	.movsp ip
	mov	ip, sp	@,
	stmfd	sp!, {fp, ip, lr, pc}	@,
	.pad #4
	.save {fp, ip, lr}
	.setfp fp, ip, #-4
	sub	fp, ip, #4	@,,
	push	{lr}
	bl	__gnu_mcount_nc
	cmp	r0, #0	@ pRawStreamArray
	bne	.L31	@,
.L27:
	mvn	r0, #0	@ D.49755,
	ldmfd	sp, {fp, sp, pc}	@
.L31:
	movw	ip, #:lower16:98308	@ tmp140,
	movt	ip, #:upper16:98308	@ tmp140,
	mov	r2, #98304	@ tmp139,
	ldr	r2, [r0, r2]	@ D.49756, <variable>.Head
	ldr	r3, [r0, ip]	@ <variable>.Tail, <variable>.Tail
	cmp	r2, r3	@ D.49756, <variable>.Tail
	mvneq	r0, #2	@ D.49755,
	ldmeqfd	sp, {fp, sp, pc}	@
	add	ip, r2, r2, asl #1	@, tmp146, D.49756, D.49756,
	movw	r3, #:lower16:98316	@ tmp142,
	movt	r3, #:upper16:98316	@ tmp142,
	add	r2, r0, ip, asl #5	@, tmp148, pRawStreamArray, tmp146,
	ldr	ip, [r0, r3]	@ <variable>.FirstPacketOffset, <variable>.FirstPacketOffset
	ldr	r2, [r2, #8]	@ <variable>.Length, <variable>.Length
	add	r1, r1, ip	@ TargetOffset, Offset, <variable>.FirstPacketOffset
	cmp	r1, r2	@ TargetOffset, <variable>.Length
	strlt	r1, [r0, r3]	@ TargetOffset, <variable>.FirstPacketOffset
	movlt	r0, #0	@ D.49755,
	ldmltfd	sp, {fp, sp, pc}	@
	b	.L27	@
	.fnend
	.size	SetFirstOffset, .-SetFirstOffset
	.align	2
	.global	GetFirstOffset
	.type	GetFirstOffset, %function
GetFirstOffset:
	.fnstart
.LFB1540:
	@ args = 0, pretend = 0, frame = 0
	@ frame_needed = 1, uses_anonymous_args = 0
	.movsp ip
	mov	ip, sp	@,
	stmfd	sp!, {fp, ip, lr, pc}	@,
	.pad #4
	.save {fp, ip, lr}
	.setfp fp, ip, #-4
	sub	fp, ip, #4	@,,
	push	{lr}
	bl	__gnu_mcount_nc
	cmp	r0, #0	@ pRawStreamArray,
	cmpne	r1, #0	@, pOffset,
	mov	r3, r0	@ pRawStreamArray, pRawStreamArray
	movne	r0, #0	@, tmp143
	moveq	r0, #1	@, tmp143
	mvneq	r0, #0	@ D.49775,
	ldmeqfd	sp, {fp, sp, pc}	@
	movw	r2, #:lower16:98308	@ tmp145,
	movt	r2, #:upper16:98308	@ tmp145,
	mov	ip, #98304	@ tmp144,
	ldr	r2, [r3, r2]	@ <variable>.Tail, <variable>.Tail
	ldr	ip, [r3, ip]	@ <variable>.Head, <variable>.Head
	cmp	ip, r2	@ <variable>.Head, <variable>.Tail
	movwne	r2, #:lower16:98316	@ tmp148,
	movtne	r2, #:upper16:98316	@ tmp148,
	mvneq	r0, #2	@ D.49775,
	ldrne	r3, [r3, r2]	@ <variable>.FirstPacketOffset, <variable>.FirstPacketOffset
	strne	r3, [r1, #0]	@ <variable>.FirstPacketOffset,* pOffset
	ldmfd	sp, {fp, sp, pc}	@
	.fnend
	.size	GetFirstOffset, .-GetFirstOffset
	.align	2
	.global	GetRawStreamSize
	.type	GetRawStreamSize, %function
GetRawStreamSize:
	.fnstart
.LFB1546:
	@ args = 0, pretend = 0, frame = 0
	@ frame_needed = 1, uses_anonymous_args = 0
	.movsp ip
	mov	ip, sp	@,
	stmfd	sp!, {fp, ip, lr, pc}	@,
	.pad #4
	.save {fp, ip, lr}
	.setfp fp, ip, #-4
	sub	fp, ip, #4	@,,
	push	{lr}
	bl	__gnu_mcount_nc
	cmp	r0, #0	@ pRawStreamArray
	bne	.L41	@,
.L38:
	mvn	r0, #0	@ D.49999,
	ldmfd	sp, {fp, sp, pc}	@
.L41:
	movw	ip, #:lower16:98324	@ tmp139,
	movt	ip, #:upper16:98324	@ tmp139,
	movw	r3, #:lower16:98316	@ tmp140,
	movt	r3, #:upper16:98316	@ tmp140,
	ldr	r2, [r0, ip]	@ D.50000, <variable>.RawTotalSize
	str	r2, [r1, #0]	@ D.50000,* pStreamSize
	ldr	ip, [r0, r3]	@ <variable>.FirstPacketOffset, <variable>.FirstPacketOffset
	rsb	r3, ip, r2	@ D.50003, <variable>.FirstPacketOffset, D.50000
	str	r3, [r1, #0]	@ D.50003,* pStreamSize
	cmp	r3, #0	@ D.50003,
	movge	r0, #0	@ D.49999,
	ldmgefd	sp, {fp, sp, pc}	@
	b	.L38	@
	.fnend
	.size	GetRawStreamSize, .-GetRawStreamSize
	.align	2
	.global	GetRawStreamNum
	.type	GetRawStreamNum, %function
GetRawStreamNum:
	.fnstart
.LFB1547:
	@ args = 0, pretend = 0, frame = 0
	@ frame_needed = 1, uses_anonymous_args = 0
	.movsp ip
	mov	ip, sp	@,
	stmfd	sp!, {fp, ip, lr, pc}	@,
	.pad #4
	.save {fp, ip, lr}
	.setfp fp, ip, #-4
	sub	fp, ip, #4	@,,
	push	{lr}
	bl	__gnu_mcount_nc
	cmp	r0, #0	@ pRawStreamArray
	mvneq	r0, #0	@ D.50012,
	ldmeqfd	sp, {fp, sp, pc}	@
	movw	r3, #:lower16:98308	@ tmp138,
	movt	r3, #:upper16:98308	@ tmp138,
	mov	ip, #98304	@ tmp139,
	ldr	r2, [r0, ip]	@ <variable>.Head, <variable>.Head
	ldr	ip, [r0, r3]	@ <variable>.Tail, <variable>.Tail
	mov	r0, #0	@ D.50012,
	rsb	r3, r2, ip	@ D.50015, <variable>.Head, <variable>.Tail
	str	r3, [r1, #0]	@ D.50015,* pStreamNum
	cmp	r3, #0	@ D.50015,
	addlt	r3, r3, #1024	@ tmp142, D.50015,
	strlt	r3, [r1, #0]	@ tmp142,* pStreamNum
	ldmfd	sp, {fp, sp, pc}	@
	.fnend
	.size	GetRawStreamNum, .-GetRawStreamNum
	.align	2
	.global	GetRawStreamNumInBuffer
	.type	GetRawStreamNumInBuffer, %function
GetRawStreamNumInBuffer:
	.fnstart
.LFB1548:
	@ args = 0, pretend = 0, frame = 0
	@ frame_needed = 1, uses_anonymous_args = 0
	.movsp ip
	mov	ip, sp	@,
	stmfd	sp!, {fp, ip, lr, pc}	@,
	.pad #4
	.save {fp, ip, lr}
	.setfp fp, ip, #-4
	sub	fp, ip, #4	@,,
	push	{lr}
	bl	__gnu_mcount_nc
	cmp	r0, #0	@ pRawStreamArray
	mvneq	r0, #0	@ D.50026,
	ldmeqfd	sp, {fp, sp, pc}	@
	movw	ip, #:lower16:98308	@ tmp138,
	movw	r3, #:lower16:98312	@ tmp139,
	movt	ip, #:upper16:98308	@ tmp138,
	movt	r3, #:upper16:98312	@ tmp139,
	ldr	r2, [r0, ip]	@ <variable>.Tail, <variable>.Tail
	ldr	ip, [r0, r3]	@ <variable>.History, <variable>.History
	mov	r0, #0	@ D.50026,
	rsb	r3, ip, r2	@ D.50029, <variable>.History, <variable>.Tail
	str	r3, [r1, #0]	@ D.50029,* pStreamNum
	cmp	r3, #0	@ D.50029,
	addlt	r3, r3, #1024	@ tmp142, D.50029,
	strlt	r3, [r1, #0]	@ tmp142,* pStreamNum
	ldmfd	sp, {fp, sp, pc}	@
	.fnend
	.size	GetRawStreamNumInBuffer, .-GetRawStreamNumInBuffer
	.align	2
	.global	GetSegBuf
	.type	GetSegBuf, %function
GetSegBuf:
	.fnstart
.LFB1551:
	@ args = 0, pretend = 0, frame = 0
	@ frame_needed = 1, uses_anonymous_args = 0
	.movsp ip
	mov	ip, sp	@,
	stmfd	sp!, {fp, ip, lr, pc}	@,
	.pad #4
	.save {fp, ip, lr}
	.setfp fp, ip, #-4
	sub	fp, ip, #4	@,,
	push	{lr}
	bl	__gnu_mcount_nc
	cmp	r0, #0	@ pStreamSegArray,
	cmpne	r1, #0	@, pBufAddr,
	ldmeqfd	sp, {fp, sp, pc}	@
	cmp	r2, #0	@ pBufLength,
	ldmeqfd	sp, {fp, sp, pc}	@
	movw	ip, #:lower16:92184	@ tmp143,
	movt	ip, #:upper16:92184	@ tmp143,
	movw	r3, #:lower16:92188	@ tmp145,
	movt	r3, #:upper16:92188	@ tmp145,
	ldr	ip, [r0, ip]	@ <variable>.SegBufPhyAddr, <variable>.SegBufPhyAddr
	str	ip, [r1, #0]	@ <variable>.SegBufPhyAddr,* pBufAddr
	ldr	r3, [r0, r3]	@ <variable>.SegBufSize, <variable>.SegBufSize
	str	r3, [r2, #0]	@ <variable>.SegBufSize,* pBufLength
	ldmfd	sp, {fp, sp, pc}	@
	.fnend
	.size	GetSegBuf, .-GetSegBuf
	.align	2
	.global	GetFreeSegBuf
	.type	GetFreeSegBuf, %function
GetFreeSegBuf:
	.fnstart
.LFB1552:
	@ args = 0, pretend = 0, frame = 0
	@ frame_needed = 1, uses_anonymous_args = 0
	.movsp ip
	mov	ip, sp	@,
	stmfd	sp!, {r4, r5, fp, ip, lr, pc}	@,
	.pad #4
	.save {r4, r5, fp, ip, lr}
	.setfp fp, ip, #-4
	sub	fp, ip, #4	@,,
	push	{lr}
	bl	__gnu_mcount_nc
	cmp	r0, #0	@ pStreamSegArray,
	cmpne	r1, #0	@, pAddr,
	movne	r3, #0	@, tmp146
	moveq	r3, #1	@, tmp146
	ldmeqfd	sp, {r4, r5, fp, sp, pc}	@
	cmp	r2, #0	@ pLength,
	ldmeqfd	sp, {r4, r5, fp, sp, pc}	@
	movw	ip, #:lower16:92196	@ tmp147,
	movt	ip, #:upper16:92196	@ tmp147,
	movw	r4, #:lower16:92192	@ tmp151,
	movt	r4, #:upper16:92192	@ tmp151,
	ldr	r5, [r0, ip]	@ <variable>.SegBufWriteAddr, <variable>.SegBufWriteAddr
	str	r5, [r1, #0]	@ <variable>.SegBufWriteAddr,* pAddr
	str	r3, [r2, #0]	@ tmp146,* pLength
	ldr	r1, [r0, ip]	@ temp.976, <variable>.SegBufWriteAddr
	ldr	ip, [r0, r4]	@ D.50102, <variable>.SegBufReadAddr
	cmp	r1, ip	@ temp.976, D.50102
	bgt	.L61	@,
	movw	r3, #:lower16:92188	@ tmp156,
	movt	r3, #:upper16:92188	@ tmp156,
	sublt	ip, ip, #1	@ tmp155, D.50102,
	ldrge	r3, [r0, r3]	@ prephitmp.965, <variable>.SegBufSize
	rsblt	r1, r1, ip	@ Len, temp.976, tmp155
	ldrlt	r3, [r0, r3]	@ prephitmp.965, <variable>.SegBufSize
	subge	r1, r3, #1	@ Len, prephitmp.965,
	cmp	r1, r3	@ Len, prephitmp.965
	strle	r1, [r2, #0]	@ Len,* pLength
	ldmfd	sp, {r4, r5, fp, sp, pc}	@
.L61:
	movw	r3, #:lower16:92188	@ tmp152,
	movt	r3, #:upper16:92188	@ tmp152,
	ldr	r3, [r0, r3]	@ prephitmp.965, <variable>.SegBufSize
	add	ip, ip, r3	@ tmp153, D.50102, prephitmp.965
	sub	r0, ip, #1	@ tmp154, tmp153,
	rsb	r1, r1, r0	@ Len, temp.976, tmp154
	cmp	r1, r3	@ Len, prephitmp.965
	strle	r1, [r2, #0]	@ Len,* pLength
	ldmfd	sp, {r4, r5, fp, sp, pc}	@
	.fnend
	.size	GetFreeSegBuf, .-GetFreeSegBuf
	.align	2
	.global	GetSegStreamSize
	.type	GetSegStreamSize, %function
GetSegStreamSize:
	.fnstart
.LFB1556:
	@ args = 0, pretend = 0, frame = 0
	@ frame_needed = 1, uses_anonymous_args = 0
	.movsp ip
	mov	ip, sp	@,
	stmfd	sp!, {fp, ip, lr, pc}	@,
	.pad #4
	.save {fp, ip, lr}
	.setfp fp, ip, #-4
	sub	fp, ip, #4	@,,
	push	{lr}
	bl	__gnu_mcount_nc
	subs	r3, r0, #0	@ pSegStreamArray, pSegStreamArray
	movwne	r2, #:lower16:92200	@ tmp137,
	movtne	r2, #:upper16:92200	@ tmp137,
	mvneq	r0, #0	@ D.50266,
	movne	r0, #0	@ D.50266,
	ldrne	r3, [r3, r2]	@ <variable>.SegTotalSize, <variable>.SegTotalSize
	strne	r3, [r1, #0]	@ <variable>.SegTotalSize,* pStreamSize
	ldmfd	sp, {fp, sp, pc}	@
	.fnend
	.size	GetSegStreamSize, .-GetSegStreamSize
	.align	2
	.global	GetSegStreamNum
	.type	GetSegStreamNum, %function
GetSegStreamNum:
	.fnstart
.LFB1557:
	@ args = 0, pretend = 0, frame = 0
	@ frame_needed = 1, uses_anonymous_args = 0
	.movsp ip
	mov	ip, sp	@,
	stmfd	sp!, {fp, ip, lr, pc}	@,
	.pad #4
	.save {fp, ip, lr}
	.setfp fp, ip, #-4
	sub	fp, ip, #4	@,,
	push	{lr}
	bl	__gnu_mcount_nc
	cmp	r0, #0	@ pSegStreamArray
	mvneq	r0, #0	@ D.50274,
	ldmeqfd	sp, {fp, sp, pc}	@
	movw	ip, #:lower16:92172	@ tmp138,
	movw	r3, #:lower16:92168	@ tmp139,
	movt	ip, #:upper16:92172	@ tmp138,
	movt	r3, #:upper16:92168	@ tmp139,
	ldr	r2, [r0, ip]	@ <variable>.Tail, <variable>.Tail
	ldr	ip, [r0, r3]	@ <variable>.Head, <variable>.Head
	mov	r0, #0	@ D.50274,
	rsb	r3, ip, r2	@ D.50277, <variable>.Head, <variable>.Tail
	str	r3, [r1, #0]	@ D.50277,* pStreamNum
	cmp	r3, #0	@ D.50277,
	addlt	r3, r3, #1152	@ tmp142, D.50277,
	strlt	r3, [r1, #0]	@ tmp142,* pStreamNum
	ldmfd	sp, {fp, sp, pc}	@
	.fnend
	.size	GetSegStreamNum, .-GetSegStreamNum
	.align	2
	.global	GetFreshSegStream
	.type	GetFreshSegStream, %function
GetFreshSegStream:
	.fnstart
.LFB1558:
	@ args = 0, pretend = 0, frame = 0
	@ frame_needed = 1, uses_anonymous_args = 0
	.movsp ip
	mov	ip, sp	@,
	stmfd	sp!, {fp, ip, lr, pc}	@,
	.pad #4
	.save {fp, ip, lr}
	.setfp fp, ip, #-4
	sub	fp, ip, #4	@,,
	push	{lr}
	bl	__gnu_mcount_nc
	cmp	r0, #0	@ pSegStreamArray
	ldmeqfd	sp, {fp, sp, pc}	@
	movw	ip, #:lower16:92208	@ tmp136,
	movt	ip, #:upper16:92208	@ tmp136,
	movw	r3, #:lower16:92204	@ tmp138,
	movt	r3, #:upper16:92204	@ tmp138,
	ldr	ip, [r0, ip]	@ <variable>.SegFreshNum, <variable>.SegFreshNum
	str	ip, [r1, #0]	@ <variable>.SegFreshNum,* pFreshNum
	ldr	r3, [r0, r3]	@ <variable>.SegFreshSize, <variable>.SegFreshSize
	str	r3, [r2, #0]	@ <variable>.SegFreshSize,* pFreshSize
	ldmfd	sp, {fp, sp, pc}	@
	.fnend
	.size	GetFreshSegStream, .-GetFreshSegStream
	.align	2
	.global	SCDDRV_PrepareSleep
	.type	SCDDRV_PrepareSleep, %function
SCDDRV_PrepareSleep:
	.fnstart
.LFB1559:
	@ args = 0, pretend = 0, frame = 0
	@ frame_needed = 1, uses_anonymous_args = 0
	.movsp ip
	mov	ip, sp	@,
	stmfd	sp!, {fp, ip, lr, pc}	@,
	.pad #4
	.save {fp, ip, lr}
	.setfp fp, ip, #-4
	sub	fp, ip, #4	@,,
	push	{lr}
	bl	__gnu_mcount_nc
	movw	r3, #:lower16:.LANCHOR0	@ tmp136,
	movt	r3, #:upper16:.LANCHOR0	@ tmp136,
	add	r2, r3, r0, asl #2	@, tmp139, tmp136, ScdId,
	ldr	r1, [r2, #768]	@ tmp141, s_eScdDrvSleepStage
	cmp	r1, #0	@ tmp141,
	mvnne	r0, #0	@ ret,
	ldmnefd	sp, {fp, sp, pc}	@
	add	r0, r0, r0, asl #1	@, tmp146, ScdId, ScdId,
	add	r3, r3, r0, asl #5	@, tmp148, tmp136, tmp146,
	ldr	r0, [r3, #856]	@ <variable>.SCDState, <variable>.SCDState
	cmp	r0, #0	@ <variable>.SCDState,
	moveq	r3, #2	@ tmp156,
	movne	r3, #1	@ tmp162,
	streq	r3, [r2, #768]	@ tmp156, s_eScdDrvSleepStage
	movne	r0, r1	@ ret, tmp141
	strne	r3, [r2, #768]	@ tmp162, s_eScdDrvSleepStage
	ldmfd	sp, {fp, sp, pc}	@
	.fnend
	.size	SCDDRV_PrepareSleep, .-SCDDRV_PrepareSleep
	.align	2
	.global	SCDDRV_GetSleepStage
	.type	SCDDRV_GetSleepStage, %function
SCDDRV_GetSleepStage:
	.fnstart
.LFB1560:
	@ args = 0, pretend = 0, frame = 0
	@ frame_needed = 1, uses_anonymous_args = 0
	.movsp ip
	mov	ip, sp	@,
	stmfd	sp!, {fp, ip, lr, pc}	@,
	.pad #4
	.save {fp, ip, lr}
	.setfp fp, ip, #-4
	sub	fp, ip, #4	@,,
	push	{lr}
	bl	__gnu_mcount_nc
	movw	r1, #:lower16:.LANCHOR0	@ tmp136,
	movt	r1, #:upper16:.LANCHOR0	@ tmp136,
	add	r3, r1, r0, asl #2	@, tmp139, tmp136, ScdId,
	ldr	r0, [r3, #768]	@, s_eScdDrvSleepStage
	ldmfd	sp, {fp, sp, pc}	@
	.fnend
	.size	SCDDRV_GetSleepStage, .-SCDDRV_GetSleepStage
	.align	2
	.global	SCDDRV_ForceSleep
	.type	SCDDRV_ForceSleep, %function
SCDDRV_ForceSleep:
	.fnstart
.LFB1561:
	@ args = 0, pretend = 0, frame = 0
	@ frame_needed = 1, uses_anonymous_args = 0
	.movsp ip
	mov	ip, sp	@,
	stmfd	sp!, {fp, ip, lr, pc}	@,
	.pad #4
	.save {fp, ip, lr}
	.setfp fp, ip, #-4
	sub	fp, ip, #4	@,,
	push	{lr}
	bl	__gnu_mcount_nc
	movw	r1, #:lower16:.LANCHOR0	@ tmp134,
	movt	r1, #:upper16:.LANCHOR0	@ tmp134,
	add	r3, r1, r0, asl #2	@, tmp137, tmp134, ScdId,
	ldr	r2, [r3, #768]	@ tmp139, s_eScdDrvSleepStage
	cmp	r2, #2	@ tmp139,
	movne	r2, #2	@ tmp145,
	strne	r2, [r3, #768]	@ tmp145, s_eScdDrvSleepStage
	ldmfd	sp, {fp, sp, pc}	@
	.fnend
	.size	SCDDRV_ForceSleep, .-SCDDRV_ForceSleep
	.align	2
	.global	SM_Start
	.type	SM_Start, %function
SM_Start:
	.fnstart
.LFB1572:
	@ args = 0, pretend = 0, frame = 0
	@ frame_needed = 1, uses_anonymous_args = 0
	.movsp ip
	mov	ip, sp	@,
	stmfd	sp!, {fp, ip, lr, pc}	@,
	.pad #4
	.save {fp, ip, lr}
	.setfp fp, ip, #-4
	sub	fp, ip, #4	@,,
	push	{lr}
	bl	__gnu_mcount_nc
	add	r0, r0, r0, asl #1	@, tmp140, SmID, SmID,
	movw	r1, #:lower16:.LANCHOR0	@ tmp136,
	movt	r1, #:upper16:.LANCHOR0	@ tmp136,
	add	r3, r1, r0, asl #4	@, tmp142, tmp136, tmp140,
	ldr	r3, [r3, #40]	@ D.50748, <variable>.pSmInstArray
	cmp	r3, #0	@ D.50748,
	beq	.L85	@,
	ldr	r2, [r3, #64]	@ <variable>.Config.BufSize, <variable>.Config.BufSize
	cmp	r2, #0	@ <variable>.Config.BufSize,
	beq	.L85	@,
	movw	r1, #:lower16:190872	@ tmp145,
	movt	r1, #:upper16:190872	@ tmp145,
	ldr	ip, [r3, r1]	@ <variable>.Mode, <variable>.Mode
	cmp	ip, #0	@ <variable>.Mode,
	moveq	ip, #1	@ tmp148,
	streq	ip, [r3, r1]	@ tmp148, <variable>.Mode
.L85:
	mvn	r0, #6	@,
	ldmfd	sp, {fp, sp, pc}	@
	.fnend
	.size	SM_Start, .-SM_Start
	.align	2
	.global	SM_Stop
	.type	SM_Stop, %function
SM_Stop:
	.fnstart
.LFB1573:
	@ args = 0, pretend = 0, frame = 0
	@ frame_needed = 1, uses_anonymous_args = 0
	.movsp ip
	mov	ip, sp	@,
	stmfd	sp!, {r3, r4, fp, ip, lr, pc}	@,
	.pad #4
	.save {r3, r4, fp, ip, lr}
	.setfp fp, ip, #-4
	sub	fp, ip, #4	@,,
	push	{lr}
	bl	__gnu_mcount_nc
	add	r1, r0, r0, asl #1	@, tmp144, SmID, SmID,
	movw	r3, #:lower16:.LANCHOR0	@ tmp140,
	movt	r3, #:upper16:.LANCHOR0	@ tmp140,
	add	r0, r3, r1, asl #4	@, tmp146, tmp140, tmp144,
	ldr	r1, [r0, #40]	@ pSmInstArray, <variable>.pSmInstArray
	cmp	r1, #0	@ pSmInstArray,
	beq	.L88	@,
	movw	r2, #:lower16:190872	@ tmp148,
	movt	r2, #:upper16:190872	@ tmp148,
	ldr	ip, [r1, r2]	@ <variable>.Mode, <variable>.Mode
	cmp	ip, #0	@ <variable>.Mode,
	bne	.L95	@,
.L88:
	mov	r0, #0	@ D.50768,
	ldmfd	sp, {r3, r4, fp, sp, pc}	@
.L95:
	movw	r0, #:lower16:190860	@ tmp150,
	movt	r0, #:upper16:190860	@ tmp150,
	ldr	r0, [r1, r0]	@ <variable>.ScdID, <variable>.ScdID
	cmp	r0, #0	@ <variable>.ScdID,
	ble	.L96	@,
.L89:
	mvn	r0, #6	@ D.50768,
	ldmfd	sp, {r3, r4, fp, sp, pc}	@
.L96:
	mov	r4, #96	@ tmp158,
	mov	ip, #0	@ tmp153,
	mla	r3, r4, r0, r3	@ tmp159, tmp158, <variable>.ScdID, tmp140
	str	ip, [r1, r2]	@ tmp153, <variable>.Mode
	ldr	r3, [r3, #856]	@ <variable>.SCDState, <variable>.SCDState
	cmp	r3, ip	@ <variable>.SCDState,
	beq	.L88	@,
	mov	r3, ip	@ i, tmp153
.L90:
	add	r3, r3, #2	@ i, i,
	cmp	r3, #50	@ i,
	bne	.L90	@,
	b	.L89	@
	.fnend
	.size	SM_Stop, .-SM_Stop
	.align	2
	.global	SM_GetInfo
	.type	SM_GetInfo, %function
SM_GetInfo:
	.fnstart
.LFB1574:
	@ args = 0, pretend = 0, frame = 0
	@ frame_needed = 1, uses_anonymous_args = 0
	.movsp ip
	mov	ip, sp	@,
	stmfd	sp!, {r3, r4, fp, ip, lr, pc}	@,
	.pad #4
	.save {r3, r4, fp, ip, lr}
	.setfp fp, ip, #-4
	sub	fp, ip, #4	@,,
	push	{lr}
	bl	__gnu_mcount_nc
	cmp	r0, #15	@ SmID,
	bhi	.L98	@,
	add	r0, r0, r0, asl #1	@, tmp145, SmID, SmID,
	movw	r2, #:lower16:.LANCHOR0	@ tmp141,
	movt	r2, #:upper16:.LANCHOR0	@ tmp141,
	add	r3, r2, r0, asl #4	@, tmp147, tmp141, tmp145,
	ldr	r3, [r3, #40]	@ pSmInstArray, <variable>.pSmInstArray
	cmp	r3, #0	@ pSmInstArray,
	beq	.L104	@,
	movw	r2, #:lower16:190872	@ tmp151,
	movt	r2, #:upper16:190872	@ tmp151,
	movw	ip, #:lower16:204740	@ tmp154,
	movt	ip, #:upper16:204740	@ tmp154,
	ldr	r4, [r3, r2]	@ <variable>.Mode, <variable>.Mode
	movw	r0, #:lower16:98508	@ tmp156,
	movw	r2, #:lower16:98504	@ tmp157,
	movt	r0, #:upper16:98508	@ tmp156,
	movt	r2, #:upper16:98504	@ tmp157,
	strb	r4, [r1, #0]	@ <variable>.Mode, <variable>.InstMode
	ldr	r4, [r3, ip]	@ <variable>.numReadSegFail, <variable>.numReadSegFail
	str	r4, [r1, #20]	@ <variable>.numReadSegFail, <variable>.numReadSegFail
	ldr	ip, [r3, r2]	@ <variable>.RawPacketArray.Head, <variable>.RawPacketArray.Head
	movw	r2, #:lower16:98524	@ tmp161,
	ldr	r0, [r3, r0]	@ <variable>.RawPacketArray.Tail, <variable>.RawPacketArray.Tail
	movt	r2, #:upper16:98524	@ tmp161,
	rsb	r4, ip, r0	@ D.53541, <variable>.RawPacketArray.Head, <variable>.RawPacketArray.Tail
	str	r4, [r1, #4]	@ D.53541, <variable>.RawNum
	cmp	r4, #0	@ D.53541,
	movw	ip, #:lower16:98516	@ tmp162,
	addlt	r4, r4, #1024	@ tmp160, D.53541,
	strlt	r4, [r1, #4]	@ tmp160, <variable>.RawNum
	ldr	r4, [r3, r2]	@ D.53551, <variable>.RawPacketArray.RawTotalSize
	movt	ip, #:upper16:98516	@ tmp162,
	movw	r0, #:lower16:190700	@ tmp165,
	movw	r2, #:lower16:190696	@ tmp166,
	movt	r0, #:upper16:190700	@ tmp165,
	movt	r2, #:upper16:190696	@ tmp166,
	str	r4, [r1, #12]	@ D.53551, <variable>.TotalRawSize
	ldr	ip, [r3, ip]	@ <variable>.RawPacketArray.FirstPacketOffset, <variable>.RawPacketArray.FirstPacketOffset
	rsb	r4, ip, r4	@ tmp164, <variable>.RawPacketArray.FirstPacketOffset, D.53551
	str	r4, [r1, #12]	@ tmp164, <variable>.TotalRawSize
	ldr	r0, [r3, r0]	@ <variable>.StreamSegArray.Tail, <variable>.StreamSegArray.Tail
	ldr	r2, [r3, r2]	@ <variable>.StreamSegArray.Head, <variable>.StreamSegArray.Head
	rsb	ip, r2, r0	@ D.53558, <variable>.StreamSegArray.Head, <variable>.StreamSegArray.Tail
	movw	r2, #:lower16:190728	@ tmp170,
	movt	r2, #:upper16:190728	@ tmp170,
	cmp	ip, #0	@ D.53558,
	str	ip, [r1, #8]	@ D.53558, <variable>.SegNum
	addlt	ip, ip, #1152	@ tmp169, D.53558,
	strlt	ip, [r1, #8]	@ tmp169, <variable>.SegNum
	mov	r0, #0	@ D.50784,
	ldr	ip, [r3, r2]	@ <variable>.StreamSegArray.SegTotalSize, <variable>.StreamSegArray.SegTotalSize
	str	ip, [r1, #16]	@ <variable>.StreamSegArray.SegTotalSize, <variable>.TotalSegSize
	ldmfd	sp, {r3, r4, fp, sp, pc}	@
.L104:
	cmp	r1, #0	@ pSmInstInfo,
	strneb	r3, [r1, #0]	@ pSmInstArray, <variable>.InstMode
	mvnne	r0, #0	@ D.50784,
	ldmnefd	sp, {r3, r4, fp, sp, pc}	@
.L98:
	mvn	r0, #0	@ D.50784,
	ldmfd	sp, {r3, r4, fp, sp, pc}	@
	.fnend
	.size	SM_GetInfo, .-SM_GetInfo
	.align	2
	.global	SetInstMode
	.type	SetInstMode, %function
SetInstMode:
	.fnstart
.LFB1582:
	@ args = 0, pretend = 0, frame = 0
	@ frame_needed = 1, uses_anonymous_args = 0
	.movsp ip
	mov	ip, sp	@,
	stmfd	sp!, {fp, ip, lr, pc}	@,
	.pad #4
	.save {fp, ip, lr}
	.setfp fp, ip, #-4
	sub	fp, ip, #4	@,,
	push	{lr}
	bl	__gnu_mcount_nc
	add	ip, r0, r0, asl #1	@, tmp142, SmID, SmID,
	movw	r3, #:lower16:.LANCHOR0	@ tmp138,
	sub	r2, r1, #1	@ tmp146, Mode,
	movt	r3, #:upper16:.LANCHOR0	@ tmp138,
	cmp	r2, #1	@ tmp146,
	add	r0, r3, ip, asl #4	@, tmp144, tmp138, tmp142,
	ldr	r3, [r0, #40]	@ pSmInstArray, <variable>.pSmInstArray
	bls	.L109	@,
.L106:
	mvn	r0, #0	@ D.51163,
	ldmfd	sp, {fp, sp, pc}	@
.L109:
	cmp	r3, #0	@ pSmInstArray,
	beq	.L106	@,
	movw	r2, #:lower16:190872	@ tmp147,
	movt	r2, #:upper16:190872	@ tmp147,
	mov	r0, #0	@ D.51163,
	str	r1, [r3, r2]	@ Mode, <variable>.Mode
	ldmfd	sp, {fp, sp, pc}	@
	.fnend
	.size	SetInstMode, .-SetInstMode
	.align	2
	.global	CheckScdStateReg
	.type	CheckScdStateReg, %function
CheckScdStateReg:
	.fnstart
.LFB1588:
	@ args = 0, pretend = 0, frame = 0
	@ frame_needed = 1, uses_anonymous_args = 0
	.movsp ip
	mov	ip, sp	@,
	stmfd	sp!, {fp, ip, lr, pc}	@,
	.pad #4
	.save {fp, ip, lr}
	.setfp fp, ip, #-4
	sub	fp, ip, #4	@,,
	push	{lr}
	bl	__gnu_mcount_nc
	ldr	r3, [r0, #16]	@ <variable>.ScdRollAddr, <variable>.ScdRollAddr
	cmp	r3, #0	@ <variable>.ScdRollAddr,
	mvneq	r0, #6	@,,
	movne	r0, #0	@,,
	ldmfd	sp, {fp, sp, pc}	@
	.fnend
	.size	CheckScdStateReg, .-CheckScdStateReg
	.align	2
	.global	ScdParseUpMsgInfo
	.type	ScdParseUpMsgInfo, %function
ScdParseUpMsgInfo:
	.fnstart
.LFB1589:
	@ args = 0, pretend = 0, frame = 0
	@ frame_needed = 1, uses_anonymous_args = 0
	.movsp ip
	mov	ip, sp	@,
	stmfd	sp!, {r4, r5, fp, ip, lr, pc}	@,
	.pad #4
	.save {r4, r5, fp, ip, lr}
	.setfp fp, ip, #-4
	sub	fp, ip, #4	@,,
	push	{lr}
	bl	__gnu_mcount_nc
	cmp	r1, #0	@ ParseUpMsgInfo
	mvneq	r5, #0	@ D.51445,
	beq	.L116	@,
	ldr	r5, [r0, #12]	@ <variable>.ModeFlag, <variable>.ModeFlag
	ldrb	r4, [r1, #72]	@ zero_extendqisi2	@,
	mul	r2, r2, r3	@ D.51451, SegNum, UpMsgStepNum
	cmp	r5, #1	@ <variable>.ModeFlag,
	bfceq	r4, #0, #1	@ tmp142,,
	orrne	r4, r4, #1	@ tmp146, tmp145,
	strb	r4, [r1, #72]	@ tmp146,
	mov	r5, #0	@ D.51445,
	ldr	r3, [r0, #4]	@ <variable>.pScdUpMsg, <variable>.pScdUpMsg
	add	ip, r2, #2	@ tmp153, D.51451,
	ldrb	r4, [r1, #72]	@ zero_extendqisi2	@,
	ldr	r3, [r3, r2, asl #2]	@ tmp150,* <variable>.pScdUpMsg
	mov	r3, r3, lsr #31	@ tmp149, tmp150,
	bfi	r4, r3, #1, #1	@ tmp151, tmp149,,
	strb	r4, [r1, #72]	@ tmp151,
	ldr	r2, [r0, #4]	@ <variable>.pScdUpMsg, <variable>.pScdUpMsg
	uxtb	r3, r4	@ tmp163, tmp151
	ldr	r2, [r2, ip, asl #2]	@ tmp156,* <variable>.pScdUpMsg
	ubfx	r2, r2, #16, #1	@ tmp158, tmp156,,
	bfi	r3, r2, #2, #1	@ tmp163, tmp158,,
	strb	r3, [r1, #72]	@ tmp163,
	ldr	r2, [r0, #4]	@ <variable>.pScdUpMsg, <variable>.pScdUpMsg
	uxtb	r3, r3	@ tmp174, tmp163
	ldr	r2, [r2, ip, asl #2]	@ tmp167,* <variable>.pScdUpMsg
	ubfx	r2, r2, #4, #3	@ tmp171, tmp167,,
	bfi	r3, r2, #3, #4	@ tmp174, tmp171,,
	strb	r3, [r1, #72]	@ tmp174,
	ldr	r2, [r0, #4]	@ <variable>.pScdUpMsg, <variable>.pScdUpMsg
	ldrh	r3, [r1, #72]	@,
	ldr	r0, [r2, ip, asl #2]	@ tmp177,* <variable>.pScdUpMsg
	and	r2, r0, #7	@ tmp181, tmp177,
	bfi	r3, r2, #7, #4	@ tmp184, tmp181,,
	strh	r3, [r1, #72]	@ movhi	@ tmp184,
.L116:
	mov	r0, r5	@, D.51445
	ldmfd	sp, {r4, r5, fp, sp, pc}	@
	.fnend
	.size	ScdParseUpMsgInfo, .-ScdParseUpMsgInfo
	.align	2
	.global	CheckSegValid
	.type	CheckSegValid, %function
CheckSegValid:
	.fnstart
.LFB1591:
	@ args = 0, pretend = 0, frame = 0
	@ frame_needed = 1, uses_anonymous_args = 0
	.movsp ip
	mov	ip, sp	@,
	stmfd	sp!, {fp, ip, lr, pc}	@,
	.pad #4
	.save {fp, ip, lr}
	.setfp fp, ip, #-4
	sub	fp, ip, #4	@,,
	push	{lr}
	bl	__gnu_mcount_nc
	cmp	r0, #0	@ pSegPacket
	mvneq	r0, #0	@ D.51599,
	ldmeqfd	sp, {fp, sp, pc}	@
	ldr	r3, [r0, #8]	@ <variable>.PhyAddr, <variable>.PhyAddr
	cmp	r3, #0	@ <variable>.PhyAddr,
	bne	.L125	@,
.L123:
	mvn	r0, #6	@ D.51599,
	ldmfd	sp, {fp, sp, pc}	@
.L125:
	ldr	r2, [r0, #0]	@ <variable>.VirAddr, <variable>.VirAddr
	cmp	r2, #0	@ <variable>.VirAddr,
	beq	.L123	@,
	ldr	ip, [r0, #12]	@ <variable>.LenInByte, <variable>.LenInByte
	cmp	ip, r1	@ <variable>.LenInByte, SegFreeBufLen
	movle	r0, #0	@ D.51599,
	ldmlefd	sp, {fp, sp, pc}	@
	b	.L123	@
	.fnend
	.size	CheckSegValid, .-CheckSegValid
	.align	2
	.global	IsVopHeader
	.type	IsVopHeader, %function
IsVopHeader:
	.fnstart
.LFB1593:
	@ args = 0, pretend = 0, frame = 0
	@ frame_needed = 1, uses_anonymous_args = 0
	.movsp ip
	mov	ip, sp	@,
	stmfd	sp!, {fp, ip, lr, pc}	@,
	.pad #4
	.save {fp, ip, lr}
	.setfp fp, ip, #-4
	sub	fp, ip, #4	@,,
	push	{lr}
	bl	__gnu_mcount_nc
	cmp	r0, #1	@ ModeFlag,
	beq	.L133	@,
	cmp	r0, #2	@ ModeFlag,
	beq	.L134	@,
.L129:
	movw	ip, #:lower16:-33488896	@ tmp142,
	movt	ip, #:upper16:-33488896	@ tmp142,
	cmp	r1, ip	@ StartCode, tmp142
	mov	r0, #0	@ flag,
	ldmnefd	sp, {fp, sp, pc}	@
.L128:
	mov	r0, #1	@ flag,
	ldmfd	sp, {fp, sp, pc}	@
.L134:
	ubfx	r2, r1, #16, #8	@ tmp139, StartCode,,
	movw	ip, #:lower16:-33488896	@ tmp142,
	sub	r0, r2, #128	@ tmp140, tmp139,
	movt	ip, #:upper16:-33488896	@ tmp142,
	cmp	r0, #3	@ tmp140,
	movhi	r0, #0	@, flag
	movls	r0, #1	@, flag
	cmp	r1, ip	@ StartCode, tmp142
	ldmnefd	sp, {fp, sp, pc}	@
	b	.L128	@
.L133:
	movw	r3, #:lower16:-1241448448	@ tmp137,
	movt	r3, #:upper16:-1241448448	@ tmp137,
	cmp	r1, r3	@ StartCode, tmp137
	bne	.L129	@,
	b	.L128	@
	.fnend
	.size	IsVopHeader, .-IsVopHeader
	.align	2
	.global	SM_GetExteriorState
	.type	SM_GetExteriorState, %function
SM_GetExteriorState:
	.fnstart
.LFB1596:
	@ args = 0, pretend = 0, frame = 0
	@ frame_needed = 1, uses_anonymous_args = 0
	.movsp ip
	mov	ip, sp	@,
	stmfd	sp!, {fp, ip, lr, pc}	@,
	.pad #4
	.save {fp, ip, lr}
	.setfp fp, ip, #-4
	sub	fp, ip, #4	@,,
	push	{lr}
	bl	__gnu_mcount_nc
	mov	r0, #0	@,
	ldmfd	sp, {fp, sp, pc}	@
	.fnend
	.size	SM_GetExteriorState, .-SM_GetExteriorState
	.align	2
	.global	SM_GetInstanceRawDiscontinue
	.type	SM_GetInstanceRawDiscontinue, %function
SM_GetInstanceRawDiscontinue:
	.fnstart
.LFB1597:
	@ args = 0, pretend = 0, frame = 0
	@ frame_needed = 1, uses_anonymous_args = 0
	.movsp ip
	mov	ip, sp	@,
	stmfd	sp!, {fp, ip, lr, pc}	@,
	.pad #4
	.save {fp, ip, lr}
	.setfp fp, ip, #-4
	sub	fp, ip, #4	@,,
	push	{lr}
	bl	__gnu_mcount_nc
	cmp	r0, #15	@ InstID,
	bhi	.L138	@,
	add	r0, r0, r0, asl #1	@, tmp141, InstID, InstID,
	movw	r1, #:lower16:.LANCHOR0	@ tmp137,
	movt	r1, #:upper16:.LANCHOR0	@ tmp137,
	add	r3, r1, r0, asl #4	@, tmp143, tmp137, tmp141,
	ldr	r2, [r3, #40]	@ pSmInstArray, <variable>.pSmInstArray
	cmp	r2, #0	@ pSmInstArray,
	beq	.L138	@,
	movw	r3, #:lower16:190872	@ tmp145,
	movt	r3, #:upper16:190872	@ tmp145,
	ldr	ip, [r2, r3]	@ <variable>.Mode, <variable>.Mode
	cmp	ip, #0	@ <variable>.Mode,
	beq	.L138	@,
	ldr	r1, [r2, #84]	@ <variable>.Config.DisContinueRawPacketFlag, <variable>.Config.DisContinueRawPacketFlag
	cmp	r1, #1	@ <variable>.Config.DisContinueRawPacketFlag,
	movne	r0, #0	@, D.52062
	moveq	r0, #1	@, D.52062
	ldmfd	sp, {fp, sp, pc}	@
.L138:
	mov	r0, #0	@ D.52062,
	ldmfd	sp, {fp, sp, pc}	@
	.fnend
	.size	SM_GetInstanceRawDiscontinue, .-SM_GetInstanceRawDiscontinue
	.align	2
	.global	SM_GetInstanceStreamEmptyFlag
	.type	SM_GetInstanceStreamEmptyFlag, %function
SM_GetInstanceStreamEmptyFlag:
	.fnstart
.LFB1599:
	@ args = 0, pretend = 0, frame = 24
	@ frame_needed = 1, uses_anonymous_args = 0
	.movsp ip
	mov	ip, sp	@,
	stmfd	sp!, {fp, ip, lr, pc}	@,
	.pad #4
	.save {fp, ip, lr}
	.setfp fp, ip, #-4
	sub	fp, ip, #4	@,,
	.pad #24
	sub	sp, sp, #24	@,,
	push	{lr}
	bl	__gnu_mcount_nc
	cmp	r0, #15	@ InstID,
	bls	.L146	@,
.L142:
	mov	r0, #0	@ D.52099,
.L144:
	sub	sp, fp, #12
	ldmfd	sp, {fp, sp, pc}
.L146:
	sub	r1, fp, #36	@,,
	bl	SM_GetInfo	@
	ldrsb	r3, [fp, #-36]	@ stInstInfo.InstMode, stInstInfo.InstMode
	cmp	r3, #0	@ stInstInfo.InstMode,
	beq	.L142	@,
	ldr	ip, [fp, #-24]	@ stInstInfo.TotalRawSize, stInstInfo.TotalRawSize
	ldr	r2, [fp, #-20]	@ stInstInfo.TotalSegSize, stInstInfo.TotalSegSize
	add	r1, r2, ip	@ tmp138, stInstInfo.TotalSegSize, stInstInfo.TotalRawSize
	cmp	r1, #102400	@ tmp138,
	movlt	r0, #1	@ D.52099,
	blt	.L144	@,
	ldr	r0, [fp, #-28]	@ stInstInfo.SegNum, stInstInfo.SegNum
	cmp	r0, #9	@ stInstInfo.SegNum,
	bgt	.L142	@,
	ldr	lr, [fp, #-32]	@ stInstInfo.RawNum, stInstInfo.RawNum
	cmp	lr, #1	@ stInstInfo.RawNum,
	movgt	r0, #0	@, D.52099
	movle	r0, #1	@, D.52099
	b	.L144	@
	.fnend
	.size	SM_GetInstanceStreamEmptyFlag, .-SM_GetInstanceStreamEmptyFlag
	.align	2
	.global	SCDDRV_MarkReloadDsp
	.type	SCDDRV_MarkReloadDsp, %function
SCDDRV_MarkReloadDsp:
	.fnstart
.LFB1612:
	@ args = 0, pretend = 0, frame = 0
	@ frame_needed = 1, uses_anonymous_args = 0
	.movsp ip
	mov	ip, sp	@,
	stmfd	sp!, {fp, ip, lr, pc}	@,
	.pad #4
	.save {fp, ip, lr}
	.setfp fp, ip, #-4
	sub	fp, ip, #4	@,,
	push	{lr}
	bl	__gnu_mcount_nc
	cmp	r0, #0	@ ScdId,
	ldmnefd	sp, {fp, sp, pc}	@
	add	r3, r1, #1	@ tmp135, SmID,
	cmp	r3, #16	@ tmp135,
	ldmhifd	sp, {fp, sp, pc}	@
	movw	r3, #:lower16:.LANCHOR0	@ tmp136,
	cmn	r1, #1	@ SmID,
	movt	r3, #:upper16:.LANCHOR0	@ tmp136,
	mov	r2, #1	@ tmp137,
	str	r2, [r3, #864]	@ tmp137, <variable>.DspReloadFlag
	ldmeqfd	sp, {fp, sp, pc}	@
	add	r2, r1, r1, asl #1	@, tmp142, SmID, SmID,
	movw	r0, #:lower16:190868	@ tmp147,
	movt	r0, #:upper16:190868	@ tmp147,
	mvn	r1, #0	@ tmp148,
	add	r3, r3, r2, asl #4	@, tmp144, tmp136, tmp142,
	ldr	ip, [r3, #40]	@ <variable>.pSmInstArray, <variable>.pSmInstArray
	str	r1, [ip, r0]	@ tmp148, <variable>.MatchScdIdPlus1
	ldmfd	sp, {fp, sp, pc}	@
	.fnend
	.size	SCDDRV_MarkReloadDsp, .-SCDDRV_MarkReloadDsp
	.align	2
	.global	SM_UpdateMatchMode
	.type	SM_UpdateMatchMode, %function
SM_UpdateMatchMode:
	.fnstart
.LFB1613:
	@ args = 0, pretend = 0, frame = 0
	@ frame_needed = 1, uses_anonymous_args = 0
	.movsp ip
	mov	ip, sp	@,
	stmfd	sp!, {fp, ip, lr, pc}	@,
	.pad #4
	.save {fp, ip, lr}
	.setfp fp, ip, #-4
	sub	fp, ip, #4	@,,
	push	{lr}
	bl	__gnu_mcount_nc
	cmp	r0, #0	@ ScdId,
	ldmnefd	sp, {fp, sp, pc}	@
	cmp	r1, #15	@ SmID,
	ldmhifd	sp, {fp, sp, pc}	@
	add	r1, r1, r1, asl #1	@, tmp139, SmID, SmID,
	movw	ip, #:lower16:.LANCHOR0	@ tmp135,
	movt	ip, #:upper16:.LANCHOR0	@ tmp135,
	movw	r3, #:lower16:190868	@ tmp144,
	add	r0, ip, r1, asl #4	@, tmp141, tmp135, tmp139,
	movt	r3, #:upper16:190868	@ tmp144,
	mov	r1, #1	@ tmp145,
	ldr	r2, [r0, #40]	@ <variable>.pSmInstArray, <variable>.pSmInstArray
	str	r1, [r2, r3]	@ tmp145, <variable>.MatchScdIdPlus1
	ldmfd	sp, {fp, sp, pc}	@
	.fnend
	.size	SM_UpdateMatchMode, .-SM_UpdateMatchMode
	.align	2
	.global	PrintScdInputRawAfterStart
	.type	PrintScdInputRawAfterStart, %function
PrintScdInputRawAfterStart:
	.fnstart
.LFB1619:
	@ args = 4, pretend = 0, frame = 0
	@ frame_needed = 1, uses_anonymous_args = 0
	.movsp ip
	mov	ip, sp	@,
	stmfd	sp!, {fp, ip, lr, pc}	@,
	.pad #4
	.save {fp, ip, lr}
	.setfp fp, ip, #-4
	sub	fp, ip, #4	@,,
	push	{lr}
	bl	__gnu_mcount_nc
	ldmfd	sp, {fp, sp, pc}	@
	.fnend
	.size	PrintScdInputRawAfterStart, .-PrintScdInputRawAfterStart
	.align	2
	.global	PrintSmInfo
	.type	PrintSmInfo, %function
PrintSmInfo:
	.fnstart
.LFB1621:
	@ args = 0, pretend = 0, frame = 32
	@ frame_needed = 1, uses_anonymous_args = 0
	.movsp ip
	mov	ip, sp	@,
	stmfd	sp!, {r4, r5, r6, r7, r8, r9, sl, fp, ip, lr, pc}	@,
	.pad #4
	.save {r4, r5, r6, r7, r8, r9, sl, fp, ip, lr}
	.setfp fp, ip, #-4
	sub	fp, ip, #4	@,,
	.pad #44
	sub	sp, sp, #44	@,,
	push	{lr}
	bl	__gnu_mcount_nc
	add	r4, r0, r0, asl #1	@, tmp151, SmID, SmID,
	sub	r1, fp, #68	@ tmp140,,
	movw	r7, #:lower16:.LANCHOR0	@ tmp147,
	movt	r7, #:upper16:.LANCHOR0	@ tmp147,
	add	r3, r1, #4	@ tmp281, tmp140,
	add	r2, r7, r4, asl #4	@, tmp153, tmp147, tmp151,
	mov	r5, #0	@ tmp141,
	str	r5, [r3], #4	@ tmp141, SmInstInfo
	mov	r6, r0	@ SmID, SmID
	str	r5, [r3], #4	@ tmp141, SmInstInfo
	ldr	r4, [r2, #40]	@ pSmInstArray, <variable>.pSmInstArray
	str	r5, [r3], #4	@ tmp141, SmInstInfo
	str	r5, [r3], #4	@ tmp141, SmInstInfo
	str	r5, [r3, #0]	@ tmp141, SmInstInfo
	str	r5, [fp, #-68]	@ tmp141, SmInstInfo
	bl	SM_GetInfo	@
	cmp	r4, r5	@ pSmInstArray,
	beq	.L161	@,
	mov	r2, r6	@, SmID
	movw	r6, #:lower16:190872	@ tmp158,
	movt	r6, #:upper16:190872	@ tmp158,
	mov	r0, #32	@,
	movw	r1, #:lower16:.LC0	@,
	movt	r1, #:upper16:.LC0	@,
	bl	dprint_vfmw	@
	ldr	r3, [r4, r6]	@, <variable>.Mode
	mov	r0, #32	@,
	movw	r1, #:lower16:.LC1	@,
	movw	r2, #:lower16:.LC2	@,
	movt	r1, #:upper16:.LC1	@,
	movt	r2, #:upper16:.LC2	@,
	movw	r8, #:lower16:98512	@,
	bl	dprint_vfmw	@
	ldrb	r3, [r4, #52]	@ zero_extendqisi2	@, <variable>.Config.Priority
	mov	r0, #32	@,
	movw	r1, #:lower16:.LC1	@,
	movw	r2, #:lower16:.LC3	@,
	movt	r1, #:upper16:.LC1	@,
	movt	r2, #:upper16:.LC3	@,
	movt	r8, #:upper16:98512	@,
	bl	dprint_vfmw	@
	ldr	r3, [r4, #56]	@, <variable>.Config.VidStd
	mov	r0, #32	@,
	movw	r1, #:lower16:.LC1	@,
	movw	r2, #:lower16:.LC4	@,
	movt	r1, #:upper16:.LC1	@,
	movt	r2, #:upper16:.LC4	@,
	movw	r6, #:lower16:98508	@ tmp273,
	bl	dprint_vfmw	@
	ldr	r3, [r4, #60]	@, <variable>.Config.BufPhyAddr
	mov	r0, #32	@,
	movw	r1, #:lower16:.LC5	@,
	movw	r2, #:lower16:.LC6	@,
	movt	r1, #:upper16:.LC5	@,
	movt	r2, #:upper16:.LC6	@,
	movw	sl, #:lower16:1717986919	@ tmp277,
	bl	dprint_vfmw	@
	ldr	r3, [r4, #48]	@, <variable>.Config.pBufVirAddr
	mov	r0, #32	@,
	movw	r1, #:lower16:.LC5	@,
	movw	r2, #:lower16:.LC7	@,
	movt	r1, #:upper16:.LC5	@,
	movt	r2, #:upper16:.LC7	@,
	movt	r6, #:upper16:98508	@ tmp273,
	bl	dprint_vfmw	@
	ldr	r3, [r4, #64]	@, <variable>.Config.BufSize
	mov	r0, #32	@,
	movw	r1, #:lower16:.LC1	@,
	movw	r2, #:lower16:.LC8	@,
	movt	r1, #:upper16:.LC1	@,
	movt	r2, #:upper16:.LC8	@,
	movt	sl, #:upper16:1717986919	@ tmp277,
	bl	dprint_vfmw	@
	ldr	r3, [r4, #68]	@, <variable>.Config.RegPhyBaseAddr
	mov	r0, #32	@,
	movw	r1, #:lower16:.LC5	@,
	movw	r2, #:lower16:.LC9	@,
	movt	r1, #:upper16:.LC5	@,
	movt	r2, #:upper16:.LC9	@,
	bl	dprint_vfmw	@
	movw	r2, #:lower16:190744	@ tmp173,
	movt	r2, #:upper16:190744	@ tmp173,
	mov	r0, #32	@,
	movw	r1, #:lower16:.LC1	@,
	movt	r1, #:upper16:.LC1	@,
	ldr	r3, [r4, r2]	@, <variable>.SmPushRaw.PushRawNum
	movw	r2, #:lower16:.LC10	@,
	movt	r2, #:upper16:.LC10	@,
	bl	dprint_vfmw	@
	movw	r3, #:lower16:190748	@ tmp176,
	movt	r3, #:upper16:190748	@ tmp176,
	mov	r0, #32	@,
	movw	r1, #:lower16:.LC1	@,
	movw	r2, #:lower16:.LC11	@,
	movt	r1, #:upper16:.LC1	@,
	ldr	r3, [r4, r3]	@, <variable>.SmPushRaw.PushRawTotalLen
	movt	r2, #:upper16:.LC11	@,
	bl	dprint_vfmw	@
	movw	ip, #:lower16:190760	@ tmp179,
	movt	ip, #:upper16:190760	@ tmp179,
	mov	r0, #32	@,
	movw	r1, #:lower16:.LC5	@,
	movw	r2, #:lower16:.LC12	@,
	ldr	r3, [r4, ip]	@, <variable>.BufAddrCfg.DownMsgPhyAddr
	movt	r1, #:upper16:.LC5	@,
	movt	r2, #:upper16:.LC12	@,
	bl	dprint_vfmw	@
	movw	r2, #:lower16:190768	@ tmp182,
	movt	r2, #:upper16:190768	@ tmp182,
	mov	r0, #32	@,
	movw	r1, #:lower16:.LC1	@,
	movt	r1, #:upper16:.LC1	@,
	ldr	r3, [r4, r2]	@, <variable>.BufAddrCfg.DownMsgSize
	movw	r2, #:lower16:.LC13	@,
	movt	r2, #:upper16:.LC13	@,
	bl	dprint_vfmw	@
	movw	r3, #:lower16:190772	@ tmp185,
	movt	r3, #:upper16:190772	@ tmp185,
	mov	r0, #32	@,
	movw	r1, #:lower16:.LC5	@,
	movw	r2, #:lower16:.LC14	@,
	movt	r1, #:upper16:.LC5	@,
	ldr	r3, [r4, r3]	@, <variable>.BufAddrCfg.UpMsgPhyAddr
	movt	r2, #:upper16:.LC14	@,
	bl	dprint_vfmw	@
	movw	ip, #:lower16:190784	@ tmp188,
	movt	ip, #:upper16:190784	@ tmp188,
	mov	r0, #32	@,
	movw	r1, #:lower16:.LC1	@,
	movw	r2, #:lower16:.LC15	@,
	ldr	r3, [r4, ip]	@, <variable>.BufAddrCfg.UpMsgNum
	movt	r1, #:upper16:.LC1	@,
	movt	r2, #:upper16:.LC15	@,
	bl	dprint_vfmw	@
	movw	r2, #:lower16:190780	@ tmp191,
	movt	r2, #:upper16:190780	@ tmp191,
	mov	r0, #32	@,
	movw	r1, #:lower16:.LC1	@,
	movt	r1, #:upper16:.LC1	@,
	ldr	r3, [r4, r2]	@, <variable>.BufAddrCfg.UpMsgSize
	movw	r2, #:lower16:.LC16	@,
	movt	r2, #:upper16:.LC16	@,
	bl	dprint_vfmw	@
	movw	r3, #:lower16:190848	@ tmp194,
	movt	r3, #:upper16:190848	@ tmp194,
	mov	r0, #32	@,
	movw	r1, #:lower16:.LC5	@,
	movw	r2, #:lower16:.LC17	@,
	movt	r1, #:upper16:.LC5	@,
	ldr	r3, [r4, r3]	@, <variable>.BufAddrCfg.SegBufPhyAddr
	movt	r2, #:upper16:.LC17	@,
	bl	dprint_vfmw	@
	movw	ip, #:lower16:190852	@ tmp197,
	movt	ip, #:upper16:190852	@ tmp197,
	mov	r0, #32	@,
	movw	r1, #:lower16:.LC1	@,
	movw	r2, #:lower16:.LC18	@,
	ldr	r3, [r4, ip]	@, <variable>.BufAddrCfg.SegBufSize
	movt	r1, #:upper16:.LC1	@,
	movt	r2, #:upper16:.LC18	@,
	bl	dprint_vfmw	@
	ldr	r3, [fp, #-52]	@, SmInstInfo.TotalSegSize
	mov	r0, #32	@,
	movw	r1, #:lower16:.LC1	@,
	movw	r2, #:lower16:.LC19	@,
	movt	r1, #:upper16:.LC1	@,
	movt	r2, #:upper16:.LC19	@,
	bl	dprint_vfmw	@
	ldr	r3, [fp, #-60]	@, SmInstInfo.SegNum
	mov	r0, #32	@,
	movw	r1, #:lower16:.LC1	@,
	movw	r2, #:lower16:.LC20	@,
	movt	r1, #:upper16:.LC1	@,
	movt	r2, #:upper16:.LC20	@,
	bl	dprint_vfmw	@
	ldr	r3, [fp, #-56]	@, SmInstInfo.TotalRawSize
	mov	r0, #32	@,
	movw	r1, #:lower16:.LC1	@,
	movw	r2, #:lower16:.LC21	@,
	movt	r1, #:upper16:.LC1	@,
	movt	r2, #:upper16:.LC21	@,
	bl	dprint_vfmw	@
	ldr	r3, [fp, #-64]	@, SmInstInfo.RawNum
	mov	r0, #32	@,
	movw	r1, #:lower16:.LC1	@,
	movw	r2, #:lower16:.LC22	@,
	movt	r1, #:upper16:.LC1	@,
	movt	r2, #:upper16:.LC22	@,
	bl	dprint_vfmw	@
	ldr	r3, [r4, #16]	@, <variable>.SegFilter.ProtocolType
	mov	r0, #32	@,
	movw	r1, #:lower16:.LC1	@,
	movw	r2, #:lower16:.LC23	@,
	movt	r1, #:upper16:.LC1	@,
	movt	r2, #:upper16:.LC23	@,
	bl	dprint_vfmw	@
	ldr	r3, [r4, #20]	@, <variable>.SegFilter.ModeFlag
	mov	r0, #32	@,
	movw	r1, #:lower16:.LC1	@,
	movw	r2, #:lower16:.LC24	@,
	movt	r1, #:upper16:.LC1	@,
	movt	r2, #:upper16:.LC24	@,
	bl	dprint_vfmw	@
	ldr	r3, [r4, #24]	@, <variable>.SegFilter.LastH263Num
	mov	r0, #32	@,
	movw	r1, #:lower16:.LC1	@,
	movw	r2, #:lower16:.LC25	@,
	movt	r1, #:upper16:.LC1	@,
	movt	r2, #:upper16:.LC25	@,
	bl	dprint_vfmw	@
	ldr	r3, [r4, #28]	@, <variable>.SegFilter.SegBufPhyAddr
	mov	r0, #32	@,
	movw	r1, #:lower16:.LC5	@,
	movw	r2, #:lower16:.LC26	@,
	movt	r1, #:upper16:.LC5	@,
	movt	r2, #:upper16:.LC26	@,
	bl	dprint_vfmw	@
	ldr	r3, [r4, #32]	@, <variable>.SegFilter.SegBufSize
	mov	r0, #32	@,
	movw	r1, #:lower16:.LC1	@,
	movw	r2, #:lower16:.LC27	@,
	movt	r1, #:upper16:.LC1	@,
	movt	r2, #:upper16:.LC27	@,
	bl	dprint_vfmw	@
	ldr	r3, [r4, #36]	@, <variable>.SegFilter.SegBufRollAddr
	mov	r0, #32	@,
	movw	r1, #:lower16:.LC5	@,
	movw	r2, #:lower16:.LC28	@,
	movt	r1, #:upper16:.LC5	@,
	movt	r2, #:upper16:.LC28	@,
	bl	dprint_vfmw	@
	ldr	r3, [r4, #12]	@, <variable>.SegFilter.pScdUpMsg
	mov	r0, #32	@,
	movw	r1, #:lower16:.LC5	@,
	movw	r2, #:lower16:.LC29	@,
	movt	r1, #:upper16:.LC5	@,
	movt	r2, #:upper16:.LC29	@,
	bl	dprint_vfmw	@
	ldr	r3, [r4, #40]	@, <variable>.SegFilter.SegNum
	mov	r0, #32	@,
	movw	r1, #:lower16:.LC1	@,
	movw	r2, #:lower16:.LC30	@,
	movt	r1, #:upper16:.LC1	@,
	movt	r2, #:upper16:.LC30	@,
	bl	dprint_vfmw	@
	movw	r2, #:lower16:204700	@ tmp224,
	movt	r2, #:upper16:204700	@ tmp224,
	mov	r0, #32	@,
	movw	r1, #:lower16:.LC1	@,
	movt	r1, #:upper16:.LC1	@,
	ldr	r3, [r4, r2]	@, <variable>.BlockTimeInMs
	movw	r2, #:lower16:.LC31	@,
	movt	r2, #:upper16:.LC31	@,
	bl	dprint_vfmw	@
	movw	r3, #:lower16:204704	@ tmp227,
	movt	r3, #:upper16:204704	@ tmp227,
	mov	r0, #32	@,
	movw	r1, #:lower16:.LC1	@,
	movw	r2, #:lower16:.LC32	@,
	movt	r1, #:upper16:.LC1	@,
	ldr	r3, [r4, r3]	@, <variable>.LastBlockTime
	movt	r2, #:upper16:.LC32	@,
	bl	dprint_vfmw	@
	movw	ip, #:lower16:204712	@ tmp231,
	movt	ip, #:upper16:204712	@ tmp231,
	mov	r0, #32	@,
	movw	r1, #:lower16:.LC33	@,
	movt	r1, #:upper16:.LC33	@,
	ldrd	r2, [r4, ip]	@, pSmInstArray, tmp231
	strd	r2, [sp]	@,
	movw	r2, #:lower16:.LC34	@,
	movt	r2, #:upper16:.LC34	@,
	bl	dprint_vfmw	@
	movw	r2, #:lower16:190856	@ tmp234,
	movt	r2, #:upper16:190856	@ tmp234,
	mov	r0, #32	@,
	movw	r1, #:lower16:.LC1	@,
	movt	r1, #:upper16:.LC1	@,
	ldr	r3, [r4, r2]	@, <variable>.InstID
	movw	r2, #:lower16:.LC35	@,
	movt	r2, #:upper16:.LC35	@,
	bl	dprint_vfmw	@
	ldr	r3, [r7, #856]	@, <variable>.SCDState
	mov	r0, #32	@,
	movw	r1, #:lower16:.LC1	@,
	movw	r2, #:lower16:.LC36	@,
	movt	r1, #:upper16:.LC1	@,
	movt	r2, #:upper16:.LC36	@,
	movw	r7, #:lower16:98516	@ tmp246,
	bl	dprint_vfmw	@
	ldr	ip, [r4, r8]	@ <variable>.RawPacketArray.History, <variable>.RawPacketArray.History
	movw	r3, #:lower16:98504	@ tmp241,
	movt	r3, #:upper16:98504	@ tmp241,
	movt	r7, #:upper16:98516	@ tmp246,
	mov	r0, #32	@,
	ldr	r3, [r4, r3]	@ <variable>.RawPacketArray.Head, <variable>.RawPacketArray.Head
	movw	r1, #:lower16:.LC37	@,
	movw	r2, #:lower16:.LC36	@,
	movt	r1, #:upper16:.LC37	@,
	movt	r2, #:upper16:.LC36	@,
	str	ip, [sp, #0]	@ <variable>.RawPacketArray.History,
	bl	dprint_vfmw	@
	ldr	r2, [r4, r7]	@, <variable>.RawPacketArray.FirstPacketOffset
	mov	r0, #32	@,
	movw	r1, #:lower16:.LC38	@,
	movt	r1, #:upper16:.LC38	@,
	bl	dprint_vfmw	@
	ldr	r7, [r4, r8]	@ idx, <variable>.RawPacketArray.History
.L172:
	ldr	r3, [r4, r6]	@ <variable>.RawPacketArray.Tail, <variable>.RawPacketArray.Tail
	cmp	r3, r7	@ <variable>.RawPacketArray.Tail, idx
	beq	.L158	@,
.L175:
	add	r2, r7, r7, asl #1	@, tmp265, idx, idx,
	mov	r0, #32	@,
	add	r7, r7, #1	@ idx, idx,
	movw	r1, #:lower16:.LC40	@,
	mla	r8, r2, r0, r4	@ tmp267, tmp265,, pSmInstArray
	movt	r1, #:upper16:.LC40	@,
	add	r5, r5, #1	@ tmp279, i,
	ldr	r2, [r8, #208]	@, <variable>.Length
	movw	r8, #1023	@,
	bl	dprint_vfmw	@
	cmp	r7, r8	@ idx,
	subgt	r7, r7, #1024	@ idx, idx,
	cmp	r5, #1024	@ tmp279,
	beq	.L158	@,
	smull	r3, ip, sl, r5	@, tmp250, tmp277, tmp279
	mov	lr, r5, asr #31	@ tmp253, tmp279,
	rsb	r1, lr, ip, asr #2	@, tmp249, tmp253, tmp250,
	add	r0, r1, r1, asl #2	@, tmp256, tmp249, tmp249,
	cmp	r5, r0, asl #1	@ tmp279, tmp256,
	beq	.L173	@,
.L169:
	ldr	r0, [r4, r6]	@ <variable>.RawPacketArray.Tail, <variable>.RawPacketArray.Tail
	cmp	r0, r7	@ <variable>.RawPacketArray.Tail, idx
	beq	.L158	@,
	add	lr, r7, r7, asl #1	@, tmp290, idx, idx,
	mov	r0, #32	@,
	movw	r1, #:lower16:.LC40	@,
	movt	r1, #:upper16:.LC40	@,
	mla	r9, lr, r0, r4	@ tmp292, tmp290,, pSmInstArray
	add	r7, r7, #1	@ idx, idx,
	ldr	r2, [r9, #208]	@, <variable>.Length
	movw	r9, #1023	@,
	bl	dprint_vfmw	@
	add	r3, r5, #1	@ i, tmp279,
	cmp	r7, r9	@ idx,
	smull	ip, r0, sl, r3	@, tmp299, tmp277, i
	mov	r2, r3, asr #31	@ tmp301, i,
	subgt	r7, r7, #1024	@ idx, idx,
	rsb	ip, r2, r0, asr #2	@, tmp302, tmp301, tmp299,
	add	r1, ip, ip, asl #2	@, tmp304, tmp302, tmp302,
	cmp	r3, r1, asl #1	@ i, tmp304,
	beq	.L174	@,
.L170:
	ldr	r1, [r4, r6]	@ <variable>.RawPacketArray.Tail, <variable>.RawPacketArray.Tail
	cmp	r1, r7	@ <variable>.RawPacketArray.Tail, idx
	beq	.L158	@,
	add	r3, r7, r7, asl #1	@, tmp310, idx, idx,
	mov	r0, #32	@,
	add	r5, r5, #2	@ i, tmp279,
	movw	r1, #:lower16:.LC40	@,
	mla	lr, r3, r0, r4	@ tmp312, tmp310,, pSmInstArray
	movt	r1, #:upper16:.LC40	@,
	add	r7, r7, #1	@ idx, idx,
	ldr	r2, [lr, #208]	@, <variable>.Length
	bl	dprint_vfmw	@
	smull	r3, r2, sl, r5	@, tmp317, tmp277, i
	mov	r0, r5, asr #31	@ tmp319, i,
	movw	r1, #1023	@,
	cmp	r7, r1	@ idx,
	subgt	r7, r7, #1024	@ idx, idx,
	rsb	ip, r0, r2, asr #2	@, tmp320, tmp319, tmp317,
	add	r3, ip, ip, asl #2	@, tmp322, tmp320, tmp320,
	cmp	r5, r3, asl #1	@ i, tmp322,
	bne	.L172	@,
	movw	r1, #:lower16:.LC39	@,
	mov	r0, #32	@,
	movt	r1, #:upper16:.LC39	@,
	bl	dprint_vfmw	@
	ldr	r3, [r4, r6]	@ <variable>.RawPacketArray.Tail, <variable>.RawPacketArray.Tail
	cmp	r3, r7	@ <variable>.RawPacketArray.Tail, idx
	bne	.L175	@,
.L158:
	movw	r1, #:lower16:.LC39	@,
	mov	r0, #32	@,
	movt	r1, #:upper16:.LC39	@,
	bl	dprint_vfmw	@
.L161:
	sub	sp, fp, #40
	ldmfd	sp, {r4, r5, r6, r7, r8, r9, sl, fp, sp, pc}
.L173:
	movw	r1, #:lower16:.LC39	@,
	mov	r0, #32	@,
	movt	r1, #:upper16:.LC39	@,
	bl	dprint_vfmw	@
	b	.L169	@
.L174:
	movw	r1, #:lower16:.LC39	@,
	mov	r0, #32	@,
	movt	r1, #:upper16:.LC39	@,
	bl	dprint_vfmw	@
	b	.L170	@
	.fnend
	.size	PrintSmInfo, .-PrintSmInfo
	.align	2
	.global	PrintScdStateReg
	.type	PrintScdStateReg, %function
PrintScdStateReg:
	.fnstart
.LFB1618:
	@ args = 0, pretend = 0, frame = 0
	@ frame_needed = 1, uses_anonymous_args = 0
	.movsp ip
	mov	ip, sp	@,
	stmfd	sp!, {r3, r4, fp, ip, lr, pc}	@,
	.pad #4
	.save {r3, r4, fp, ip, lr}
	.setfp fp, ip, #-4
	sub	fp, ip, #4	@,,
	push	{lr}
	bl	__gnu_mcount_nc
	mov	r4, r0	@ pSmStateReg, pSmStateReg
	mov	r2, r1	@ ScdId, ScdId
	mov	r0, #24	@,
	movw	r1, #:lower16:.LC41	@,
	movt	r1, #:upper16:.LC41	@,
	bl	dprint_vfmw	@
	ldr	r2, [r4, #0]	@, <variable>.Scdover
	mov	r0, #24	@,
	movw	r1, #:lower16:.LC42	@,
	movt	r1, #:upper16:.LC42	@,
	bl	dprint_vfmw	@
	ldr	r2, [r4, #4]	@, <variable>.ScdInt
	mov	r0, #24	@,
	movw	r1, #:lower16:.LC43	@,
	movt	r1, #:upper16:.LC43	@,
	bl	dprint_vfmw	@
	ldr	r2, [r4, #8]	@, <variable>.ShortScdNum
	mov	r0, #24	@,
	movw	r1, #:lower16:.LC44	@,
	movt	r1, #:upper16:.LC44	@,
	bl	dprint_vfmw	@
	ldr	r2, [r4, #12]	@, <variable>.ScdNum
	mov	r0, #24	@,
	movw	r1, #:lower16:.LC45	@,
	movt	r1, #:upper16:.LC45	@,
	bl	dprint_vfmw	@
	ldr	r2, [r4, #16]	@, <variable>.ScdRollAddr
	mov	r0, #24	@,
	movw	r1, #:lower16:.LC46	@,
	movt	r1, #:upper16:.LC46	@,
	bl	dprint_vfmw	@
	ldr	r2, [r4, #20]	@, <variable>.SrcEaten
	movw	r1, #:lower16:.LC47	@,
	mov	r0, #24	@,
	movt	r1, #:upper16:.LC47	@,
	bl	dprint_vfmw	@
	ldmfd	sp, {r3, r4, fp, sp, pc}	@
	.fnend
	.size	PrintScdStateReg, .-PrintScdStateReg
	.align	2
	.global	PrintDownMsg
	.type	PrintDownMsg, %function
PrintDownMsg:
	.fnstart
.LFB1617:
	@ args = 0, pretend = 0, frame = 0
	@ frame_needed = 1, uses_anonymous_args = 0
	.movsp ip
	mov	ip, sp	@,
	stmfd	sp!, {r4, r5, r6, r7, r8, sl, fp, ip, lr, pc}	@,
	.pad #4
	.save {r4, r5, r6, r7, r8, sl, fp, ip, lr}
	.setfp fp, ip, #-4
	sub	fp, ip, #4	@,,
	push	{lr}
	bl	__gnu_mcount_nc
	mov	r4, r0	@ DownMsgPhyAddr, DownMsgPhyAddr
	mov	r7, r1	@ pDownMsgVirAddr, pDownMsgVirAddr
	mov	r8, r2	@ PushRawNum, PushRawNum
	mov	r0, #24	@,
	mov	r2, r3	@, ScdId
	movw	r1, #:lower16:.LC48	@,
	movt	r1, #:upper16:.LC48	@,
	bl	dprint_vfmw	@
	mov	r2, r7	@, pDownMsgVirAddr
	mov	r0, #24	@,
	movw	r1, #:lower16:.LC49	@,
	movt	r1, #:upper16:.LC49	@,
	bl	dprint_vfmw	@
	mov	r2, r4	@, DownMsgPhyAddr
	mov	r0, #24	@,
	movw	r1, #:lower16:.LC50	@,
	movt	r1, #:upper16:.LC50	@,
	bl	dprint_vfmw	@
	cmp	r8, #0	@ PushRawNum,
	ldmlefd	sp, {r4, r5, r6, r7, r8, sl, fp, sp, pc}	@
	mov	r2, #0	@,
	ldr	r3, [r7, #0]	@,* pDownMsgVirAddr
	mov	r0, #24	@,
	movw	r1, #:lower16:.LC51	@,
	movt	r1, #:upper16:.LC51	@,
	sub	sl, r8, #1	@ tmp189, PushRawNum,
	bl	dprint_vfmw	@
	mov	r2, #1	@,
	ldr	r3, [r7, #4]	@,
	mov	r0, #24	@,
	movw	r1, #:lower16:.LC51	@,
	movt	r1, #:upper16:.LC51	@,
	bl	dprint_vfmw	@
	mov	r2, #2	@,
	ldr	r3, [r7, #8]	@,
	mov	r0, #24	@,
	movw	r1, #:lower16:.LC51	@,
	movt	r1, #:upper16:.LC51	@,
	bl	dprint_vfmw	@
	mov	r0, #24	@,
	movw	r1, #:lower16:.LC39	@,
	movt	r1, #:upper16:.LC39	@,
	bl	dprint_vfmw	@
	cmp	r8, #1	@ PushRawNum,
	and	sl, sl, #1	@ tmp191, tmp189,
	mov	r4, #3	@ j,
	mov	r6, #1	@ i,
	add	r5, r7, #12	@ ivtmp.1553, pDownMsgVirAddr,
	ldmlefd	sp, {r4, r5, r6, r7, r8, sl, fp, sp, pc}	@
	cmp	sl, #0	@ tmp191,
	beq	.L180	@,
	mov	r2, r4	@, j
	ldr	r3, [r5, #0]	@,* ivtmp.1553
	mov	r0, #24	@,
	movw	r1, #:lower16:.LC51	@,
	movt	r1, #:upper16:.LC51	@,
	mov	r6, #2	@ i,
	bl	dprint_vfmw	@
	ldr	r3, [r5, #4]	@,
	mov	r2, #4	@,
	mov	r0, #24	@,
	movw	r1, #:lower16:.LC51	@,
	movt	r1, #:upper16:.LC51	@,
	bl	dprint_vfmw	@
	ldr	r3, [r5, #8]	@,
	mov	r2, #5	@,
	mov	r0, #24	@,
	movw	r1, #:lower16:.LC51	@,
	movt	r1, #:upper16:.LC51	@,
	bl	dprint_vfmw	@
	mov	r0, #24	@,
	movw	r1, #:lower16:.LC39	@,
	movt	r1, #:upper16:.LC39	@,
	bl	dprint_vfmw	@
	cmp	r8, r6	@ PushRawNum, i
	add	r5, r7, #24	@ ivtmp.1553, pDownMsgVirAddr,
	mov	r4, #6	@ j,
	ldmlefd	sp, {r4, r5, r6, r7, r8, sl, fp, sp, pc}	@
.L180:
	mov	r2, r4	@, j
	ldr	r3, [r5, #0]	@,* ivtmp.1553
	mov	r0, #24	@,
	movw	r1, #:lower16:.LC51	@,
	movt	r1, #:upper16:.LC51	@,
	add	sl, r4, #3	@ tmp194, j,
	bl	dprint_vfmw	@
	add	r2, r4, #1	@, j,
	ldr	r3, [r5, #4]	@,
	mov	r0, #24	@,
	movw	r1, #:lower16:.LC51	@,
	movt	r1, #:upper16:.LC51	@,
	bl	dprint_vfmw	@
	add	r2, r4, #2	@, j,
	ldr	r3, [r5, #8]	@,
	mov	r0, #24	@,
	movw	r1, #:lower16:.LC51	@,
	movt	r1, #:upper16:.LC51	@,
	bl	dprint_vfmw	@
	add	r7, r5, #12	@ tmp193, ivtmp.1553,
	mov	r0, #24	@,
	movw	r1, #:lower16:.LC39	@,
	movt	r1, #:upper16:.LC39	@,
	add	r6, r6, #1	@ tmp192, i,
	bl	dprint_vfmw	@
	ldr	r3, [r5, #12]	@,
	mov	r2, sl	@, tmp194
	mov	r0, #24	@,
	movw	r1, #:lower16:.LC51	@,
	movt	r1, #:upper16:.LC51	@,
	bl	dprint_vfmw	@
	add	r2, r4, #4	@, j,
	ldr	r3, [r7, #4]	@,
	mov	r0, #24	@,
	movw	r1, #:lower16:.LC51	@,
	movt	r1, #:upper16:.LC51	@,
	bl	dprint_vfmw	@
	add	r2, r4, #5	@, j,
	ldr	r3, [r7, #8]	@,
	mov	r0, #24	@,
	movw	r1, #:lower16:.LC51	@,
	movt	r1, #:upper16:.LC51	@,
	bl	dprint_vfmw	@
	add	r6, r6, #1	@ i, tmp192,
	mov	r0, #24	@,
	movw	r1, #:lower16:.LC39	@,
	movt	r1, #:upper16:.LC39	@,
	add	r4, r4, #6	@ j, j,
	bl	dprint_vfmw	@
	cmp	r8, r6	@ PushRawNum, i
	add	r5, r5, #24	@ ivtmp.1553, ivtmp.1553,
	bgt	.L180	@,
	ldmfd	sp, {r4, r5, r6, r7, r8, sl, fp, sp, pc}	@
	.fnend
	.size	PrintDownMsg, .-PrintDownMsg
	.align	2
	.global	SM_AddMatchMode
	.type	SM_AddMatchMode, %function
SM_AddMatchMode:
	.fnstart
.LFB1608:
	@ args = 0, pretend = 0, frame = 0
	@ frame_needed = 1, uses_anonymous_args = 0
	.movsp ip
	mov	ip, sp	@,
	stmfd	sp!, {r4, r5, fp, ip, lr, pc}	@,
	.pad #4
	.save {r4, r5, fp, ip, lr}
	.setfp fp, ip, #-4
	sub	fp, ip, #4	@,,
	push	{lr}
	bl	__gnu_mcount_nc
	movw	r4, #:lower16:.LANCHOR0	@ tmp373,
	movt	r4, #:upper16:.LANCHOR0	@ tmp373,
	ldr	r5, [r4, #40]	@ temp.1590, <variable>.pSmInstArray
	cmp	r5, #0	@ temp.1590,
	beq	.L189	@,
	ldr	r3, [r5, #88]	@ <variable>.Config.ScdLowdlyEnable, <variable>.Config.ScdLowdlyEnable
	cmp	r3, #0	@ <variable>.Config.ScdLowdlyEnable,
	beq	.L189	@,
	movw	r3, #:lower16:g_DspDrvState	@ tmp183,
	movt	r3, #:upper16:g_DspDrvState	@ tmp183,
	ldr	r2, [r3, #0]	@ temp.1592, g_DspDrvState
	cmp	r2, #1	@ temp.1592,
	ldrne	r3, [r3, #4]	@ prephitmp.1593, g_DspDrvState
	beq	.L285	@,
.L192:
	mov	r0, #0	@,
	movw	r1, #:lower16:.LC52	@,
	movt	r1, #:upper16:.LC52	@,
	bl	dprint_vfmw	@
	movw	r0, #:lower16:190868	@ tmp185,
	movt	r0, #:upper16:190868	@ tmp185,
	mov	r2, #0	@ tmp186,
	str	r2, [r5, r0]	@ tmp186, <variable>.MatchScdIdPlus1
.L189:
	ldr	r5, [r4, #88]	@ temp.1595, <variable>.pSmInstArray
	cmp	r5, #0	@ temp.1595,
	beq	.L194	@,
	ldr	r3, [r5, #88]	@ <variable>.Config.ScdLowdlyEnable, <variable>.Config.ScdLowdlyEnable
	cmp	r3, #0	@ <variable>.Config.ScdLowdlyEnable,
	beq	.L194	@,
	movw	r3, #:lower16:g_DspDrvState	@ tmp195,
	movt	r3, #:upper16:g_DspDrvState	@ tmp195,
	ldr	r2, [r3, #0]	@ temp.1597, g_DspDrvState
	cmp	r2, #1	@ temp.1597,
	ldrne	r3, [r3, #4]	@ prephitmp.1598, g_DspDrvState
	beq	.L286	@,
.L197:
	mov	r0, #0	@,
	movw	r1, #:lower16:.LC52	@,
	movt	r1, #:upper16:.LC52	@,
	bl	dprint_vfmw	@
	movw	r0, #:lower16:190868	@ tmp197,
	movt	r0, #:upper16:190868	@ tmp197,
	mov	r2, #0	@ tmp198,
	str	r2, [r5, r0]	@ tmp198, <variable>.MatchScdIdPlus1
.L194:
	ldr	r5, [r4, #136]	@ temp.1600, <variable>.pSmInstArray
	cmp	r5, #0	@ temp.1600,
	beq	.L199	@,
	ldr	r3, [r5, #88]	@ <variable>.Config.ScdLowdlyEnable, <variable>.Config.ScdLowdlyEnable
	cmp	r3, #0	@ <variable>.Config.ScdLowdlyEnable,
	beq	.L199	@,
	movw	r3, #:lower16:g_DspDrvState	@ tmp207,
	movt	r3, #:upper16:g_DspDrvState	@ tmp207,
	ldr	r2, [r3, #0]	@ temp.1602, g_DspDrvState
	cmp	r2, #1	@ temp.1602,
	ldrne	r3, [r3, #4]	@ prephitmp.1603, g_DspDrvState
	beq	.L287	@,
.L202:
	mov	r0, #0	@,
	movw	r1, #:lower16:.LC52	@,
	movt	r1, #:upper16:.LC52	@,
	bl	dprint_vfmw	@
	movw	r0, #:lower16:190868	@ tmp209,
	movt	r0, #:upper16:190868	@ tmp209,
	mov	r2, #0	@ tmp210,
	str	r2, [r5, r0]	@ tmp210, <variable>.MatchScdIdPlus1
.L199:
	ldr	r5, [r4, #184]	@ temp.1605, <variable>.pSmInstArray
	cmp	r5, #0	@ temp.1605,
	beq	.L204	@,
	ldr	r3, [r5, #88]	@ <variable>.Config.ScdLowdlyEnable, <variable>.Config.ScdLowdlyEnable
	cmp	r3, #0	@ <variable>.Config.ScdLowdlyEnable,
	beq	.L204	@,
	movw	r3, #:lower16:g_DspDrvState	@ tmp219,
	movt	r3, #:upper16:g_DspDrvState	@ tmp219,
	ldr	r2, [r3, #0]	@ temp.1607, g_DspDrvState
	cmp	r2, #1	@ temp.1607,
	ldrne	r3, [r3, #4]	@ prephitmp.1608, g_DspDrvState
	beq	.L288	@,
.L207:
	mov	r0, #0	@,
	movw	r1, #:lower16:.LC52	@,
	movt	r1, #:upper16:.LC52	@,
	bl	dprint_vfmw	@
	movw	r0, #:lower16:190868	@ tmp221,
	movt	r0, #:upper16:190868	@ tmp221,
	mov	r2, #0	@ tmp222,
	str	r2, [r5, r0]	@ tmp222, <variable>.MatchScdIdPlus1
.L204:
	ldr	r5, [r4, #232]	@ temp.1610, <variable>.pSmInstArray
	cmp	r5, #0	@ temp.1610,
	beq	.L209	@,
	ldr	r3, [r5, #88]	@ <variable>.Config.ScdLowdlyEnable, <variable>.Config.ScdLowdlyEnable
	cmp	r3, #0	@ <variable>.Config.ScdLowdlyEnable,
	beq	.L209	@,
	movw	r3, #:lower16:g_DspDrvState	@ tmp231,
	movt	r3, #:upper16:g_DspDrvState	@ tmp231,
	ldr	r2, [r3, #0]	@ temp.1612, g_DspDrvState
	cmp	r2, #1	@ temp.1612,
	ldrne	r3, [r3, #4]	@ prephitmp.1613, g_DspDrvState
	beq	.L289	@,
.L212:
	mov	r0, #0	@,
	movw	r1, #:lower16:.LC52	@,
	movt	r1, #:upper16:.LC52	@,
	bl	dprint_vfmw	@
	movw	r0, #:lower16:190868	@ tmp233,
	movt	r0, #:upper16:190868	@ tmp233,
	mov	r2, #0	@ tmp234,
	str	r2, [r5, r0]	@ tmp234, <variable>.MatchScdIdPlus1
.L209:
	ldr	r5, [r4, #280]	@ temp.1615, <variable>.pSmInstArray
	cmp	r5, #0	@ temp.1615,
	beq	.L214	@,
	ldr	r3, [r5, #88]	@ <variable>.Config.ScdLowdlyEnable, <variable>.Config.ScdLowdlyEnable
	cmp	r3, #0	@ <variable>.Config.ScdLowdlyEnable,
	beq	.L214	@,
	movw	r3, #:lower16:g_DspDrvState	@ tmp243,
	movt	r3, #:upper16:g_DspDrvState	@ tmp243,
	ldr	r2, [r3, #0]	@ temp.1617, g_DspDrvState
	cmp	r2, #1	@ temp.1617,
	ldrne	r3, [r3, #4]	@ prephitmp.1618, g_DspDrvState
	beq	.L290	@,
.L217:
	mov	r0, #0	@,
	movw	r1, #:lower16:.LC52	@,
	movt	r1, #:upper16:.LC52	@,
	bl	dprint_vfmw	@
	movw	r0, #:lower16:190868	@ tmp245,
	movt	r0, #:upper16:190868	@ tmp245,
	mov	r2, #0	@ tmp246,
	str	r2, [r5, r0]	@ tmp246, <variable>.MatchScdIdPlus1
.L214:
	ldr	r5, [r4, #328]	@ temp.1620, <variable>.pSmInstArray
	cmp	r5, #0	@ temp.1620,
	beq	.L219	@,
	ldr	r3, [r5, #88]	@ <variable>.Config.ScdLowdlyEnable, <variable>.Config.ScdLowdlyEnable
	cmp	r3, #0	@ <variable>.Config.ScdLowdlyEnable,
	beq	.L219	@,
	movw	r3, #:lower16:g_DspDrvState	@ tmp255,
	movt	r3, #:upper16:g_DspDrvState	@ tmp255,
	ldr	r2, [r3, #0]	@ temp.1622, g_DspDrvState
	cmp	r2, #1	@ temp.1622,
	ldrne	r3, [r3, #4]	@ prephitmp.1623, g_DspDrvState
	beq	.L291	@,
.L222:
	mov	r0, #0	@,
	movw	r1, #:lower16:.LC52	@,
	movt	r1, #:upper16:.LC52	@,
	bl	dprint_vfmw	@
	movw	r0, #:lower16:190868	@ tmp257,
	movt	r0, #:upper16:190868	@ tmp257,
	mov	r2, #0	@ tmp258,
	str	r2, [r5, r0]	@ tmp258, <variable>.MatchScdIdPlus1
.L219:
	ldr	r5, [r4, #376]	@ temp.1625, <variable>.pSmInstArray
	cmp	r5, #0	@ temp.1625,
	beq	.L224	@,
	ldr	r3, [r5, #88]	@ <variable>.Config.ScdLowdlyEnable, <variable>.Config.ScdLowdlyEnable
	cmp	r3, #0	@ <variable>.Config.ScdLowdlyEnable,
	beq	.L224	@,
	movw	r3, #:lower16:g_DspDrvState	@ tmp267,
	movt	r3, #:upper16:g_DspDrvState	@ tmp267,
	ldr	r2, [r3, #0]	@ temp.1627, g_DspDrvState
	cmp	r2, #1	@ temp.1627,
	ldrne	r3, [r3, #4]	@ prephitmp.1628, g_DspDrvState
	beq	.L292	@,
.L227:
	mov	r0, #0	@,
	movw	r1, #:lower16:.LC52	@,
	movt	r1, #:upper16:.LC52	@,
	bl	dprint_vfmw	@
	movw	r0, #:lower16:190868	@ tmp269,
	movt	r0, #:upper16:190868	@ tmp269,
	mov	r2, #0	@ tmp270,
	str	r2, [r5, r0]	@ tmp270, <variable>.MatchScdIdPlus1
.L224:
	ldr	r5, [r4, #424]	@ temp.1630, <variable>.pSmInstArray
	cmp	r5, #0	@ temp.1630,
	beq	.L229	@,
	ldr	r3, [r5, #88]	@ <variable>.Config.ScdLowdlyEnable, <variable>.Config.ScdLowdlyEnable
	cmp	r3, #0	@ <variable>.Config.ScdLowdlyEnable,
	beq	.L229	@,
	movw	r3, #:lower16:g_DspDrvState	@ tmp279,
	movt	r3, #:upper16:g_DspDrvState	@ tmp279,
	ldr	r2, [r3, #0]	@ temp.1632, g_DspDrvState
	cmp	r2, #1	@ temp.1632,
	ldrne	r3, [r3, #4]	@ prephitmp.1633, g_DspDrvState
	beq	.L293	@,
.L232:
	mov	r0, #0	@,
	movw	r1, #:lower16:.LC52	@,
	movt	r1, #:upper16:.LC52	@,
	bl	dprint_vfmw	@
	movw	r0, #:lower16:190868	@ tmp281,
	movt	r0, #:upper16:190868	@ tmp281,
	mov	r2, #0	@ tmp282,
	str	r2, [r5, r0]	@ tmp282, <variable>.MatchScdIdPlus1
.L229:
	ldr	r5, [r4, #472]	@ temp.1635, <variable>.pSmInstArray
	cmp	r5, #0	@ temp.1635,
	beq	.L234	@,
	ldr	r3, [r5, #88]	@ <variable>.Config.ScdLowdlyEnable, <variable>.Config.ScdLowdlyEnable
	cmp	r3, #0	@ <variable>.Config.ScdLowdlyEnable,
	beq	.L234	@,
	movw	r3, #:lower16:g_DspDrvState	@ tmp291,
	movt	r3, #:upper16:g_DspDrvState	@ tmp291,
	ldr	r2, [r3, #0]	@ temp.1637, g_DspDrvState
	cmp	r2, #1	@ temp.1637,
	ldrne	r3, [r3, #4]	@ prephitmp.1638, g_DspDrvState
	beq	.L294	@,
.L237:
	mov	r0, #0	@,
	movw	r1, #:lower16:.LC52	@,
	movt	r1, #:upper16:.LC52	@,
	bl	dprint_vfmw	@
	movw	r0, #:lower16:190868	@ tmp293,
	movt	r0, #:upper16:190868	@ tmp293,
	mov	r2, #0	@ tmp294,
	str	r2, [r5, r0]	@ tmp294, <variable>.MatchScdIdPlus1
.L234:
	ldr	r5, [r4, #520]	@ temp.1640, <variable>.pSmInstArray
	cmp	r5, #0	@ temp.1640,
	beq	.L239	@,
	ldr	r3, [r5, #88]	@ <variable>.Config.ScdLowdlyEnable, <variable>.Config.ScdLowdlyEnable
	cmp	r3, #0	@ <variable>.Config.ScdLowdlyEnable,
	beq	.L239	@,
	movw	r3, #:lower16:g_DspDrvState	@ tmp303,
	movt	r3, #:upper16:g_DspDrvState	@ tmp303,
	ldr	r2, [r3, #0]	@ temp.1642, g_DspDrvState
	cmp	r2, #1	@ temp.1642,
	ldrne	r3, [r3, #4]	@ prephitmp.1643, g_DspDrvState
	beq	.L295	@,
.L242:
	mov	r0, #0	@,
	movw	r1, #:lower16:.LC52	@,
	movt	r1, #:upper16:.LC52	@,
	bl	dprint_vfmw	@
	movw	r0, #:lower16:190868	@ tmp305,
	movt	r0, #:upper16:190868	@ tmp305,
	mov	r2, #0	@ tmp306,
	str	r2, [r5, r0]	@ tmp306, <variable>.MatchScdIdPlus1
.L239:
	ldr	r5, [r4, #568]	@ temp.1645, <variable>.pSmInstArray
	cmp	r5, #0	@ temp.1645,
	beq	.L244	@,
	ldr	r3, [r5, #88]	@ <variable>.Config.ScdLowdlyEnable, <variable>.Config.ScdLowdlyEnable
	cmp	r3, #0	@ <variable>.Config.ScdLowdlyEnable,
	beq	.L244	@,
	movw	r3, #:lower16:g_DspDrvState	@ tmp315,
	movt	r3, #:upper16:g_DspDrvState	@ tmp315,
	ldr	r2, [r3, #0]	@ temp.1647, g_DspDrvState
	cmp	r2, #1	@ temp.1647,
	ldrne	r3, [r3, #4]	@ prephitmp.1648, g_DspDrvState
	beq	.L296	@,
.L247:
	mov	r0, #0	@,
	movw	r1, #:lower16:.LC52	@,
	movt	r1, #:upper16:.LC52	@,
	bl	dprint_vfmw	@
	movw	r0, #:lower16:190868	@ tmp317,
	movt	r0, #:upper16:190868	@ tmp317,
	mov	r2, #0	@ tmp318,
	str	r2, [r5, r0]	@ tmp318, <variable>.MatchScdIdPlus1
.L244:
	ldr	r5, [r4, #616]	@ temp.1650, <variable>.pSmInstArray
	cmp	r5, #0	@ temp.1650,
	beq	.L249	@,
	ldr	r3, [r5, #88]	@ <variable>.Config.ScdLowdlyEnable, <variable>.Config.ScdLowdlyEnable
	cmp	r3, #0	@ <variable>.Config.ScdLowdlyEnable,
	beq	.L249	@,
	movw	r3, #:lower16:g_DspDrvState	@ tmp327,
	movt	r3, #:upper16:g_DspDrvState	@ tmp327,
	ldr	r2, [r3, #0]	@ temp.1652, g_DspDrvState
	cmp	r2, #1	@ temp.1652,
	ldrne	r3, [r3, #4]	@ prephitmp.1653, g_DspDrvState
	beq	.L297	@,
.L252:
	mov	r0, #0	@,
	movw	r1, #:lower16:.LC52	@,
	movt	r1, #:upper16:.LC52	@,
	bl	dprint_vfmw	@
	movw	r0, #:lower16:190868	@ tmp329,
	movt	r0, #:upper16:190868	@ tmp329,
	mov	r2, #0	@ tmp330,
	str	r2, [r5, r0]	@ tmp330, <variable>.MatchScdIdPlus1
.L249:
	ldr	r5, [r4, #664]	@ temp.1655, <variable>.pSmInstArray
	cmp	r5, #0	@ temp.1655,
	beq	.L254	@,
	ldr	r3, [r5, #88]	@ <variable>.Config.ScdLowdlyEnable, <variable>.Config.ScdLowdlyEnable
	cmp	r3, #0	@ <variable>.Config.ScdLowdlyEnable,
	beq	.L254	@,
	movw	r3, #:lower16:g_DspDrvState	@ tmp339,
	movt	r3, #:upper16:g_DspDrvState	@ tmp339,
	ldr	r2, [r3, #0]	@ temp.1657, g_DspDrvState
	cmp	r2, #1	@ temp.1657,
	ldrne	r3, [r3, #4]	@ prephitmp.1658, g_DspDrvState
	beq	.L298	@,
.L257:
	mov	r0, #0	@,
	movw	r1, #:lower16:.LC52	@,
	movt	r1, #:upper16:.LC52	@,
	bl	dprint_vfmw	@
	movw	r0, #:lower16:190868	@ tmp341,
	movt	r0, #:upper16:190868	@ tmp341,
	mov	r2, #0	@ tmp342,
	str	r2, [r5, r0]	@ tmp342, <variable>.MatchScdIdPlus1
.L254:
	ldr	r5, [r4, #712]	@ temp.1660, <variable>.pSmInstArray
	cmp	r5, #0	@ temp.1660,
	beq	.L259	@,
	ldr	r3, [r5, #88]	@ <variable>.Config.ScdLowdlyEnable, <variable>.Config.ScdLowdlyEnable
	cmp	r3, #0	@ <variable>.Config.ScdLowdlyEnable,
	beq	.L259	@,
	movw	r3, #:lower16:g_DspDrvState	@ tmp351,
	movt	r3, #:upper16:g_DspDrvState	@ tmp351,
	ldr	r2, [r3, #0]	@ temp.1662, g_DspDrvState
	cmp	r2, #1	@ temp.1662,
	ldrne	r3, [r3, #4]	@ prephitmp.1663, g_DspDrvState
	beq	.L299	@,
.L262:
	mov	r0, #0	@,
	movw	r1, #:lower16:.LC52	@,
	movt	r1, #:upper16:.LC52	@,
	bl	dprint_vfmw	@
	movw	r0, #:lower16:190868	@ tmp353,
	movt	r0, #:upper16:190868	@ tmp353,
	mov	r2, #0	@ tmp354,
	str	r2, [r5, r0]	@ tmp354, <variable>.MatchScdIdPlus1
.L259:
	ldr	r4, [r4, #760]	@ D.52909, <variable>.pSmInstArray
	cmp	r4, #0	@ D.52909,
	ldmeqfd	sp, {r4, r5, fp, sp, pc}	@
	ldr	r3, [r4, #88]	@ <variable>.Config.ScdLowdlyEnable, <variable>.Config.ScdLowdlyEnable
	cmp	r3, #0	@ <variable>.Config.ScdLowdlyEnable,
	ldmeqfd	sp, {r4, r5, fp, sp, pc}	@
	movw	r3, #:lower16:g_DspDrvState	@ tmp363,
	movt	r3, #:upper16:g_DspDrvState	@ tmp363,
	ldr	r2, [r3, #0]	@ D.52917, g_DspDrvState
	cmp	r2, #1	@ D.52917,
	ldrne	r3, [r3, #4]	@ prephitmp.1578, g_DspDrvState
	beq	.L300	@,
.L267:
	movw	r1, #:lower16:.LC52	@,
	mov	r0, #0	@,
	movt	r1, #:upper16:.LC52	@,
	bl	dprint_vfmw	@
.L284:
	movw	r0, #:lower16:190868	@ tmp371,
	movt	r0, #:upper16:190868	@ tmp371,
	mov	r2, #0	@ tmp372,
	str	r2, [r4, r0]	@ tmp372, <variable>.MatchScdIdPlus1
	ldmfd	sp, {r4, r5, fp, sp, pc}	@
.L300:
	ldr	r3, [r3, #4]	@ prephitmp.1578, g_DspDrvState
	cmp	r3, #1	@ prephitmp.1578,
	beq	.L284	@,
	cmp	r3, #2	@ prephitmp.1578,
	movweq	r3, #:lower16:190868	@ tmp367,
	movteq	r3, #:upper16:190868	@ tmp367,
	streq	r2, [r4, r3]	@ D.52917, <variable>.MatchScdIdPlus1
	bne	.L267	@,
	ldmfd	sp, {r4, r5, fp, sp, pc}	@
.L285:
	ldr	r3, [r3, #4]	@ prephitmp.1593, g_DspDrvState
	cmp	r3, #1	@ prephitmp.1593,
	beq	.L193	@,
	cmp	r3, #2	@ prephitmp.1593,
	movweq	r3, #:lower16:190868	@ tmp189,
	movteq	r3, #:upper16:190868	@ tmp189,
	streq	r2, [r5, r3]	@ temp.1592, <variable>.MatchScdIdPlus1
	bne	.L192	@,
	b	.L189	@
.L286:
	ldr	r3, [r3, #4]	@ prephitmp.1598, g_DspDrvState
	cmp	r3, #1	@ prephitmp.1598,
	beq	.L198	@,
	cmp	r3, #2	@ prephitmp.1598,
	movweq	r3, #:lower16:190868	@ tmp201,
	movteq	r3, #:upper16:190868	@ tmp201,
	streq	r2, [r5, r3]	@ temp.1597, <variable>.MatchScdIdPlus1
	bne	.L197	@,
	b	.L194	@
.L287:
	ldr	r3, [r3, #4]	@ prephitmp.1603, g_DspDrvState
	cmp	r3, #1	@ prephitmp.1603,
	beq	.L203	@,
	cmp	r3, #2	@ prephitmp.1603,
	movweq	r3, #:lower16:190868	@ tmp213,
	movteq	r3, #:upper16:190868	@ tmp213,
	streq	r2, [r5, r3]	@ temp.1602, <variable>.MatchScdIdPlus1
	bne	.L202	@,
	b	.L199	@
.L288:
	ldr	r3, [r3, #4]	@ prephitmp.1608, g_DspDrvState
	cmp	r3, #1	@ prephitmp.1608,
	beq	.L208	@,
	cmp	r3, #2	@ prephitmp.1608,
	movweq	r3, #:lower16:190868	@ tmp225,
	movteq	r3, #:upper16:190868	@ tmp225,
	streq	r2, [r5, r3]	@ temp.1607, <variable>.MatchScdIdPlus1
	bne	.L207	@,
	b	.L204	@
.L289:
	ldr	r3, [r3, #4]	@ prephitmp.1613, g_DspDrvState
	cmp	r3, #1	@ prephitmp.1613,
	beq	.L213	@,
	cmp	r3, #2	@ prephitmp.1613,
	movweq	r3, #:lower16:190868	@ tmp237,
	movteq	r3, #:upper16:190868	@ tmp237,
	streq	r2, [r5, r3]	@ temp.1612, <variable>.MatchScdIdPlus1
	bne	.L212	@,
	b	.L209	@
.L290:
	ldr	r3, [r3, #4]	@ prephitmp.1618, g_DspDrvState
	cmp	r3, #1	@ prephitmp.1618,
	beq	.L218	@,
	cmp	r3, #2	@ prephitmp.1618,
	movweq	r3, #:lower16:190868	@ tmp249,
	movteq	r3, #:upper16:190868	@ tmp249,
	streq	r2, [r5, r3]	@ temp.1617, <variable>.MatchScdIdPlus1
	bne	.L217	@,
	b	.L214	@
.L291:
	ldr	r3, [r3, #4]	@ prephitmp.1623, g_DspDrvState
	cmp	r3, #1	@ prephitmp.1623,
	beq	.L223	@,
	cmp	r3, #2	@ prephitmp.1623,
	movweq	r3, #:lower16:190868	@ tmp261,
	movteq	r3, #:upper16:190868	@ tmp261,
	streq	r2, [r5, r3]	@ temp.1622, <variable>.MatchScdIdPlus1
	bne	.L222	@,
	b	.L219	@
.L292:
	ldr	r3, [r3, #4]	@ prephitmp.1628, g_DspDrvState
	cmp	r3, #1	@ prephitmp.1628,
	beq	.L228	@,
	cmp	r3, #2	@ prephitmp.1628,
	movweq	r3, #:lower16:190868	@ tmp273,
	movteq	r3, #:upper16:190868	@ tmp273,
	streq	r2, [r5, r3]	@ temp.1627, <variable>.MatchScdIdPlus1
	bne	.L227	@,
	b	.L224	@
.L293:
	ldr	r3, [r3, #4]	@ prephitmp.1633, g_DspDrvState
	cmp	r3, #1	@ prephitmp.1633,
	beq	.L233	@,
	cmp	r3, #2	@ prephitmp.1633,
	movweq	r3, #:lower16:190868	@ tmp285,
	movteq	r3, #:upper16:190868	@ tmp285,
	streq	r2, [r5, r3]	@ temp.1632, <variable>.MatchScdIdPlus1
	bne	.L232	@,
	b	.L229	@
.L294:
	ldr	r3, [r3, #4]	@ prephitmp.1638, g_DspDrvState
	cmp	r3, #1	@ prephitmp.1638,
	beq	.L238	@,
	cmp	r3, #2	@ prephitmp.1638,
	movweq	r3, #:lower16:190868	@ tmp297,
	movteq	r3, #:upper16:190868	@ tmp297,
	streq	r2, [r5, r3]	@ temp.1637, <variable>.MatchScdIdPlus1
	bne	.L237	@,
	b	.L234	@
.L295:
	ldr	r3, [r3, #4]	@ prephitmp.1643, g_DspDrvState
	cmp	r3, #1	@ prephitmp.1643,
	beq	.L243	@,
	cmp	r3, #2	@ prephitmp.1643,
	movweq	r3, #:lower16:190868	@ tmp309,
	movteq	r3, #:upper16:190868	@ tmp309,
	streq	r2, [r5, r3]	@ temp.1642, <variable>.MatchScdIdPlus1
	bne	.L242	@,
	b	.L239	@
.L296:
	ldr	r3, [r3, #4]	@ prephitmp.1648, g_DspDrvState
	cmp	r3, #1	@ prephitmp.1648,
	beq	.L248	@,
	cmp	r3, #2	@ prephitmp.1648,
	movweq	r3, #:lower16:190868	@ tmp321,
	movteq	r3, #:upper16:190868	@ tmp321,
	streq	r2, [r5, r3]	@ temp.1647, <variable>.MatchScdIdPlus1
	bne	.L247	@,
	b	.L244	@
.L297:
	ldr	r3, [r3, #4]	@ prephitmp.1653, g_DspDrvState
	cmp	r3, #1	@ prephitmp.1653,
	beq	.L253	@,
	cmp	r3, #2	@ prephitmp.1653,
	movweq	r3, #:lower16:190868	@ tmp333,
	movteq	r3, #:upper16:190868	@ tmp333,
	streq	r2, [r5, r3]	@ temp.1652, <variable>.MatchScdIdPlus1
	bne	.L252	@,
	b	.L249	@
.L298:
	ldr	r3, [r3, #4]	@ prephitmp.1658, g_DspDrvState
	cmp	r3, #1	@ prephitmp.1658,
	beq	.L258	@,
	cmp	r3, #2	@ prephitmp.1658,
	movweq	r3, #:lower16:190868	@ tmp345,
	movteq	r3, #:upper16:190868	@ tmp345,
	streq	r2, [r5, r3]	@ temp.1657, <variable>.MatchScdIdPlus1
	bne	.L257	@,
	b	.L254	@
.L299:
	ldr	r3, [r3, #4]	@ prephitmp.1663, g_DspDrvState
	cmp	r3, #1	@ prephitmp.1663,
	beq	.L263	@,
	cmp	r3, #2	@ prephitmp.1663,
	movweq	r3, #:lower16:190868	@ tmp357,
	movteq	r3, #:upper16:190868	@ tmp357,
	streq	r2, [r5, r3]	@ temp.1662, <variable>.MatchScdIdPlus1
	bne	.L262	@,
	b	.L259	@
.L193:
	movw	ip, #:lower16:190868	@ tmp191,
	movt	ip, #:upper16:190868	@ tmp191,
	mov	r1, #0	@ tmp192,
	str	r1, [r5, ip]	@ tmp192, <variable>.MatchScdIdPlus1
	b	.L189	@
.L263:
	movw	ip, #:lower16:190868	@ tmp359,
	movt	ip, #:upper16:190868	@ tmp359,
	mov	r1, #0	@ tmp360,
	str	r1, [r5, ip]	@ tmp360, <variable>.MatchScdIdPlus1
	b	.L259	@
.L258:
	movw	ip, #:lower16:190868	@ tmp347,
	movt	ip, #:upper16:190868	@ tmp347,
	mov	r1, #0	@ tmp348,
	str	r1, [r5, ip]	@ tmp348, <variable>.MatchScdIdPlus1
	b	.L254	@
.L253:
	movw	ip, #:lower16:190868	@ tmp335,
	movt	ip, #:upper16:190868	@ tmp335,
	mov	r1, #0	@ tmp336,
	str	r1, [r5, ip]	@ tmp336, <variable>.MatchScdIdPlus1
	b	.L249	@
.L248:
	movw	ip, #:lower16:190868	@ tmp323,
	movt	ip, #:upper16:190868	@ tmp323,
	mov	r1, #0	@ tmp324,
	str	r1, [r5, ip]	@ tmp324, <variable>.MatchScdIdPlus1
	b	.L244	@
.L243:
	movw	ip, #:lower16:190868	@ tmp311,
	movt	ip, #:upper16:190868	@ tmp311,
	mov	r1, #0	@ tmp312,
	str	r1, [r5, ip]	@ tmp312, <variable>.MatchScdIdPlus1
	b	.L239	@
.L238:
	movw	ip, #:lower16:190868	@ tmp299,
	movt	ip, #:upper16:190868	@ tmp299,
	mov	r1, #0	@ tmp300,
	str	r1, [r5, ip]	@ tmp300, <variable>.MatchScdIdPlus1
	b	.L234	@
.L233:
	movw	ip, #:lower16:190868	@ tmp287,
	movt	ip, #:upper16:190868	@ tmp287,
	mov	r1, #0	@ tmp288,
	str	r1, [r5, ip]	@ tmp288, <variable>.MatchScdIdPlus1
	b	.L229	@
.L228:
	movw	ip, #:lower16:190868	@ tmp275,
	movt	ip, #:upper16:190868	@ tmp275,
	mov	r1, #0	@ tmp276,
	str	r1, [r5, ip]	@ tmp276, <variable>.MatchScdIdPlus1
	b	.L224	@
.L223:
	movw	ip, #:lower16:190868	@ tmp263,
	movt	ip, #:upper16:190868	@ tmp263,
	mov	r1, #0	@ tmp264,
	str	r1, [r5, ip]	@ tmp264, <variable>.MatchScdIdPlus1
	b	.L219	@
.L218:
	movw	ip, #:lower16:190868	@ tmp251,
	movt	ip, #:upper16:190868	@ tmp251,
	mov	r1, #0	@ tmp252,
	str	r1, [r5, ip]	@ tmp252, <variable>.MatchScdIdPlus1
	b	.L214	@
.L213:
	movw	ip, #:lower16:190868	@ tmp239,
	movt	ip, #:upper16:190868	@ tmp239,
	mov	r1, #0	@ tmp240,
	str	r1, [r5, ip]	@ tmp240, <variable>.MatchScdIdPlus1
	b	.L209	@
.L208:
	movw	ip, #:lower16:190868	@ tmp227,
	movt	ip, #:upper16:190868	@ tmp227,
	mov	r1, #0	@ tmp228,
	str	r1, [r5, ip]	@ tmp228, <variable>.MatchScdIdPlus1
	b	.L204	@
.L203:
	movw	ip, #:lower16:190868	@ tmp215,
	movt	ip, #:upper16:190868	@ tmp215,
	mov	r1, #0	@ tmp216,
	str	r1, [r5, ip]	@ tmp216, <variable>.MatchScdIdPlus1
	b	.L199	@
.L198:
	movw	ip, #:lower16:190868	@ tmp203,
	movt	ip, #:upper16:190868	@ tmp203,
	mov	r1, #0	@ tmp204,
	str	r1, [r5, ip]	@ tmp204, <variable>.MatchScdIdPlus1
	b	.L194	@
	.fnend
	.size	SM_AddMatchMode, .-SM_AddMatchMode
	.align	2
	.global	SM_SetRawDiscontinueFlag
	.type	SM_SetRawDiscontinueFlag, %function
SM_SetRawDiscontinueFlag:
	.fnstart
.LFB1598:
	@ args = 0, pretend = 0, frame = 0
	@ frame_needed = 1, uses_anonymous_args = 0
	.movsp ip
	mov	ip, sp	@,
	stmfd	sp!, {fp, ip, lr, pc}	@,
	.pad #4
	.save {fp, ip, lr}
	.setfp fp, ip, #-4
	sub	fp, ip, #4	@,,
	.pad #8
	sub	sp, sp, #8	@,,
	push	{lr}
	bl	__gnu_mcount_nc
	cmp	r0, #15	@ InstID,
	bhi	.L307	@,
	add	r0, r0, r0, asl #1	@, tmp142, InstID, InstID,
	movw	ip, #:lower16:.LANCHOR0	@ tmp138,
	movt	ip, #:upper16:.LANCHOR0	@ tmp138,
	add	r2, ip, r0, asl #4	@, tmp144, tmp138, tmp142,
	ldr	ip, [r2, #40]	@ pSmInstArray, <variable>.pSmInstArray
	rsbs	r3, ip, #1	@ tmp149, pSmInstArray
	movcc	r3, #0	@ tmp149
	orrs	r3, r3, r1, lsr #31	@,, tmp149, Flag,
	bne	.L308	@,
	movw	r2, #:lower16:190872	@ tmp155,
	movt	r2, #:upper16:190872	@ tmp155,
	ldr	r3, [ip, r2]	@ <variable>.Mode, <variable>.Mode
	cmp	r3, #0	@ <variable>.Mode,
	strne	r1, [ip, #84]	@ Flag, <variable>.Config.DisContinueRawPacketFlag
	streq	r3, [ip, #84]	@ <variable>.Mode, <variable>.Config.DisContinueRawPacketFlag
	moveq	r0, #1	@ D.52080,
	movne	r0, #1	@ D.52080,
	b	.L303	@
.L308:
	mov	r3, r1	@, Flag
	mov	r0, #22	@,
	movw	r1, #:lower16:.LC53	@,
	movw	r2, #4108	@,
	movt	r1, #:upper16:.LC53	@,
	str	ip, [sp, #0]	@ pSmInstArray,
	bl	dprint_vfmw	@
.L307:
	mov	r0, #0	@ D.52080,
.L303:
	sub	sp, fp, #12
	ldmfd	sp, {fp, sp, pc}
	.fnend
	.size	SM_SetRawDiscontinueFlag, .-SM_SetRawDiscontinueFlag
	.align	2
	.global	SM_CfgBuf
	.type	SM_CfgBuf, %function
SM_CfgBuf:
	.fnstart
.LFB1571:
	@ args = 0, pretend = 0, frame = 16
	@ frame_needed = 1, uses_anonymous_args = 0
	.movsp ip
	mov	ip, sp	@,
	stmfd	sp!, {r4, r5, r6, r7, r8, r9, sl, fp, ip, lr, pc}	@,
	.pad #4
	.save {r4, r5, r6, r7, r8, r9, sl, fp, ip, lr}
	.setfp fp, ip, #-4
	sub	fp, ip, #4	@,,
	.pad #20
	sub	sp, sp, #20	@,,
	push	{lr}
	bl	__gnu_mcount_nc
	cmp	r0, #15	@ SmID,
	bhi	.L316	@,
	cmp	r1, #0	@ ScdId,
	bne	.L317	@,
	add	r0, r0, r0, asl #1	@, tmp144, SmID, SmID,
	movw	r2, #:lower16:.LANCHOR0	@ tmp140,
	movt	r2, #:upper16:.LANCHOR0	@ tmp140,
	add	r0, r2, r0, asl #4	@, tmp146, tmp140, tmp144,
	ldr	ip, [r0, #40]	@ pSmInstArray, <variable>.pSmInstArray
	cmp	ip, #0	@ pSmInstArray,
	mvneq	r0, #0	@ D.50713,
	beq	.L311	@,
	movw	r3, #:lower16:190860	@ tmp148,
	movt	r3, #:upper16:190860	@ tmp148,
	ldr	r0, [ip, r3]	@ <variable>.ScdID, <variable>.ScdID
	cmp	r0, #0	@ <variable>.ScdID,
	beq	.L311	@,
	ldr	sl, [r2, #780]	@ <variable>.ScdDrvMem.DownMsgMemAddr, <variable>.ScdDrvMem.DownMsgMemAddr
	movw	r7, #:lower16:190760	@ tmp150,
	movt	r7, #:upper16:190760	@ tmp150,
	movw	r8, #:lower16:190764	@ tmp153,
	movt	r8, #:upper16:190764	@ tmp153,
	movw	r4, #:lower16:190768	@ tmp156,
	str	sl, [ip, r7]	@ <variable>.ScdDrvMem.DownMsgMemAddr, <variable>.BufAddrCfg.DownMsgPhyAddr
	movt	r4, #:upper16:190768	@ tmp156,
	ldr	r6, [r2, #784]	@ <variable>.ScdDrvMem.pDownMsgMemVirAddr, <variable>.ScdDrvMem.pDownMsgMemVirAddr
	movw	r0, #:lower16:190772	@ tmp159,
	movt	r0, #:upper16:190772	@ tmp159,
	movw	r9, #:lower16:190820	@,
	movt	r9, #:upper16:190820	@,
	movw	sl, #:lower16:190776	@ tmp162,
	str	r6, [ip, r8]	@ <variable>.ScdDrvMem.pDownMsgMemVirAddr, <variable>.BufAddrCfg.pDownMsgVirAddr
	movt	sl, #:upper16:190776	@ tmp162,
	ldr	r5, [r2, #788]	@ <variable>.ScdDrvMem.DownMsgMemSize, <variable>.ScdDrvMem.DownMsgMemSize
	movw	r7, #:lower16:190780	@ tmp165,
	movw	r8, #:lower16:190784	@ tmp168,
	movt	r7, #:upper16:190780	@ tmp165,
	movt	r8, #:upper16:190784	@ tmp168,
	movw	r6, #:lower16:190812	@ tmp170,
	str	r5, [ip, r4]	@ <variable>.ScdDrvMem.DownMsgMemSize, <variable>.BufAddrCfg.DownMsgSize
	movt	r6, #:upper16:190812	@ tmp170,
	ldr	r4, [r2, #792]	@ <variable>.ScdDrvMem.UpMsgMemAddr, <variable>.ScdDrvMem.UpMsgMemAddr
	movw	r5, #:lower16:190816	@ tmp173,
	str	r9, [fp, #-56]	@, %sfp
	movw	r9, #:lower16:190824	@,
	movt	r9, #:upper16:190824	@,
	str	r9, [fp, #-48]	@, %sfp
	str	r4, [ip, r0]	@ <variable>.ScdDrvMem.UpMsgMemAddr, <variable>.BufAddrCfg.UpMsgPhyAddr
	movw	r0, #:lower16:190832	@,
	movt	r0, #:upper16:190832	@,
	str	r0, [fp, #-52]	@, %sfp
	ldr	r4, [r2, #796]	@, <variable>.ScdDrvMem.pUpMsgMemVirAddr
	movt	r5, #:upper16:190816	@ tmp173,
	movw	r9, #:lower16:190828	@ tmp182,
	movt	r9, #:upper16:190828	@ tmp182,
	mov	r0, r1	@ D.50713, ScdId
	str	r4, [ip, sl]	@, <variable>.BufAddrCfg.pUpMsgVirAddr
	ldr	sl, [r2, #800]	@, <variable>.ScdDrvMem.UpMsgMemSize
	str	sl, [ip, r7]	@, <variable>.BufAddrCfg.UpMsgSize
	mov	sl, #1152	@ tmp169,
	str	sl, [ip, r8]	@ tmp169, <variable>.BufAddrCfg.UpMsgNum
	ldr	r7, [r2, #804]	@ <variable>.ScdDrvMem.DvmMemAddr, <variable>.ScdDrvMem.DvmMemAddr
	str	r7, [ip, r6]	@ <variable>.ScdDrvMem.DvmMemAddr, <variable>.BufAddrCfg.DvmMemAddr
	ldr	r6, [r2, #808]	@ <variable>.ScdDrvMem.pDvmMemVirAddr, <variable>.ScdDrvMem.pDvmMemVirAddr
	str	r6, [ip, r5]	@ <variable>.ScdDrvMem.pDvmMemVirAddr, <variable>.BufAddrCfg.pDvmMemVirAddr
	ldr	r4, [fp, #-56]	@, %sfp
	ldr	r5, [r2, #812]	@ <variable>.ScdDrvMem.DvmMemSize, <variable>.ScdDrvMem.DvmMemSize
	str	r5, [ip, r4]	@ <variable>.ScdDrvMem.DvmMemSize, <variable>.BufAddrCfg.DvmMemSize
	ldr	r5, [fp, #-48]	@, %sfp
	ldr	r4, [r2, #816]	@ <variable>.ScdDrvMem.DspSedTopMemAddr, <variable>.ScdDrvMem.DspSedTopMemAddr
	str	r4, [ip, r5]	@ <variable>.ScdDrvMem.DspSedTopMemAddr, <variable>.BufAddrCfg.DspSedTopMemAddr
	ldr	r4, [r2, #820]	@ <variable>.ScdDrvMem.pDspSedTopMemVirAddr, <variable>.ScdDrvMem.pDspSedTopMemVirAddr
	str	r4, [ip, r9]	@ <variable>.ScdDrvMem.pDspSedTopMemVirAddr, <variable>.BufAddrCfg.pDspSedTopMemVirAddr
	ldr	r2, [r2, #824]	@ <variable>.ScdDrvMem.DspSedTopMemSize, <variable>.ScdDrvMem.DspSedTopMemSize
	str	r1, [ip, r3]	@ ScdId, <variable>.ScdID
	ldr	r9, [fp, #-52]	@, %sfp
	str	r2, [ip, r9]	@ <variable>.ScdDrvMem.DspSedTopMemSize, <variable>.BufAddrCfg.DspSedTopMemSize
.L311:
	sub	sp, fp, #40
	ldmfd	sp, {r4, r5, r6, r7, r8, r9, sl, fp, sp, pc}
.L317:
	mov	r3, r1	@, ScdId
	mov	r0, #0	@,
	movw	r1, #:lower16:.LC55	@,
	movw	r2, #2052	@,
	movt	r1, #:upper16:.LC55	@,
	bl	dprint_vfmw	@
	mvn	r0, #0	@ D.50713,
	b	.L311	@
.L316:
	mov	r3, r0	@, SmID
	movw	r1, #:lower16:.LC54	@,
	mov	r0, #0	@,
	movt	r1, #:upper16:.LC54	@,
	movw	r2, #2046	@,
	bl	dprint_vfmw	@
	mvn	r0, #0	@ D.50713,
	b	.L311	@
	.fnend
	.size	SM_CfgBuf, .-SM_CfgBuf
	.align	2
	.global	SCDDRV_ExitSleep
	.type	SCDDRV_ExitSleep, %function
SCDDRV_ExitSleep:
	.fnstart
.LFB1562:
	@ args = 0, pretend = 0, frame = 0
	@ frame_needed = 1, uses_anonymous_args = 0
	.movsp ip
	mov	ip, sp	@,
	stmfd	sp!, {r3, r4, fp, ip, lr, pc}	@,
	.pad #4
	.save {r3, r4, fp, ip, lr}
	.setfp fp, ip, #-4
	sub	fp, ip, #4	@,,
	push	{lr}
	bl	__gnu_mcount_nc
	movw	r3, #:lower16:g_vdm_hal_fun_ptr	@ tmp135,
	movt	r3, #:upper16:g_vdm_hal_fun_ptr	@ tmp135,
	mov	r4, r0	@ ScdId, ScdId
	ldr	r3, [r3, #8]	@ D.50320, g_vdm_hal_fun_ptr.pfun_SCDDRV_OpenHardware
	cmp	r3, #0	@ D.50320,
	beq	.L319	@,
	blx	r3	@ D.50320
	movw	r1, #:lower16:.LANCHOR0	@ tmp137,
	movt	r1, #:upper16:.LANCHOR0	@ tmp137,
	mov	r0, #0	@ tmp142,
	add	r4, r1, r4, asl #2	@, tmp140, tmp137, ScdId,
	str	r0, [r4, #768]	@ tmp142, s_eScdDrvSleepStage
	ldmfd	sp, {r3, r4, fp, sp, pc}	@
.L319:
	mov	r0, r3	@, D.50320
	movw	r1, #:lower16:.LC56	@,
	movw	r2, #1437	@,
	movt	r1, #:upper16:.LC56	@,
	bl	dprint_vfmw	@
	movw	r1, #:lower16:.LANCHOR0	@ tmp137,
	movt	r1, #:upper16:.LANCHOR0	@ tmp137,
	mov	r0, #0	@ tmp142,
	add	r4, r1, r4, asl #2	@, tmp140, tmp137, ScdId,
	str	r0, [r4, #768]	@ tmp142, s_eScdDrvSleepStage
	ldmfd	sp, {r3, r4, fp, sp, pc}	@
	.fnend
	.size	SCDDRV_ExitSleep, .-SCDDRV_ExitSleep
	.align	2
	.global	ReleaseStreamSeg
	.type	ReleaseStreamSeg, %function
ReleaseStreamSeg:
	.fnstart
.LFB1555:
	@ args = 0, pretend = 0, frame = 0
	@ frame_needed = 1, uses_anonymous_args = 0
	.movsp ip
	mov	ip, sp	@,
	stmfd	sp!, {r4, r5, r6, r7, r8, r9, sl, fp, ip, lr, pc}	@,
	.pad #4
	.save {r4, r5, r6, r7, r8, r9, sl, fp, ip, lr}
	.setfp fp, ip, #-4
	sub	fp, ip, #4	@,,
	.pad #12
	sub	sp, sp, #12	@,,
	push	{lr}
	bl	__gnu_mcount_nc
	subs	r4, r0, #0	@ pStreamSegArray, pStreamSegArray
	mov	r5, r1	@ StreamID, StreamID
	bne	.L344	@,
.L323:
	mvn	r0, #0	@ Ret,
.L337:
	sub	sp, fp, #40
	ldmfd	sp, {r4, r5, r6, r7, r8, r9, sl, fp, sp, pc}
.L344:
	sub	r2, r1, #1152	@ tmp147, StreamID,
	movw	r3, #:lower16:-1154	@ tmp149,
	movt	r3, #:upper16:-1154	@ tmp149,
	cmp	r2, r3	@ tmp147, tmp149
	bls	.L323	@,
	cmn	r1, #1	@ StreamID,
	beq	.L345	@,
	movw	r3, #:lower16:92168	@ tmp198,
	movw	r2, #:lower16:92172	@ tmp199,
	movt	r3, #:upper16:92168	@ tmp198,
	movt	r2, #:upper16:92172	@ tmp199,
	ldr	r3, [r4, r3]	@ i.1771, <variable>.Head
	ldr	r0, [r4, r2]	@ temp.1781, <variable>.Tail
	cmp	r3, r0	@ i.1771, temp.1781
	beq	.L325	@,
	cmp	r1, r3	@ StreamID, i.1771
	movwne	r1, #:lower16:954437177	@ tmp288,
	movtne	r1, #:upper16:954437177	@ tmp288,
	bne	.L339	@,
	b	.L329	@
.L343:
	cmp	r5, r3	@ StreamID, i.1771
	beq	.L329	@,
.L339:
	add	r3, r3, #1	@ D.50235, i.1771,
	umull	ip, r2, r1, r3	@, tmp216, tmp288, D.50235
	mov	r2, r2, lsr #8	@ i.1771, tmp216,
	add	ip, r2, r2, asl #3	@, tmp220, i.1771, i.1771,
	sub	r3, r3, ip, asl #7	@ i.1771, D.50235, tmp220,
	cmp	r3, r0	@ i.1771, temp.1781
	bne	.L343	@,
.L325:
	mvn	r0, #2	@ Ret,
	b	.L337	@
.L329:
	add	sl, r5, r5, asl #2	@, tmp202, StreamID, StreamID,
	add	r1, r4, sl, asl #4	@, tmp206, pStreamSegArray, tmp202,
	add	sl, r1, #8	@ tmp207, tmp206,
	ldrsb	r0, [sl, #4]	@ <variable>.SegState, <variable>.SegState
	cmp	r0, #2	@ <variable>.SegState,
	bne	.L325	@,
.L328:
	ldrb	ip, [sl, #5]	@ zero_extendqisi2	@ <variable>.IsLastSeg, <variable>.IsLastSeg
	mov	lr, #0	@ tmp222,
	ldr	r2, [sl, #8]	@ <variable>.PhyAddr, <variable>.PhyAddr
	mov	r0, #26	@,
	ldr	r3, [sl, #12]	@ <variable>.LenInByte, <variable>.LenInByte
	movw	r1, #:lower16:.LC59	@,
	strb	lr, [sl, #4]	@ tmp222, <variable>.SegState
	movt	r1, #:upper16:.LC59	@,
	str	ip, [sp, #0]	@ <variable>.IsLastSeg,
	str	r5, [sp, #4]	@ StreamID,
	bl	dprint_vfmw	@
	movw	r1, #:lower16:92168	@ tmp228,
	movt	r1, #:upper16:92168	@ tmp228,
	ldr	r0, [r4, r1]	@ <variable>.Head, <variable>.Head
	cmp	r0, r5	@ <variable>.Head, StreamID
	beq	.L346	@,
.L332:
	movw	r3, #:lower16:92200	@ tmp262,
	movt	r3, #:upper16:92200	@ tmp262,
	ldr	r2, [sl, #12]	@ <variable>.LenInByte, <variable>.LenInByte
	mov	r0, #0	@ Ret,
	ldr	r1, [r4, r3]	@ <variable>.SegTotalSize, <variable>.SegTotalSize
	rsb	ip, r2, r1	@ tmp266, <variable>.LenInByte, <variable>.SegTotalSize
	bic	r2, ip, ip, asr #31	@ tmp267, tmp266
	str	r2, [r4, r3]	@ tmp267, <variable>.SegTotalSize
	b	.L337	@
.L345:
	movw	ip, #:lower16:92168	@ tmp150,
	movw	r1, #:lower16:92172	@ tmp151,
	movt	ip, #:upper16:92168	@ tmp150,
	movt	r1, #:upper16:92172	@ tmp151,
	ldr	sl, [r4, ip]	@ D.50206, <variable>.Head
	ldr	r0, [r4, r1]	@ <variable>.Tail, <variable>.Tail
	cmp	sl, r0	@ D.50206, <variable>.Tail
	beq	.L325	@,
	mov	r2, sl	@, D.50206
	mov	r0, #0	@,
	movw	r1, #:lower16:.LC57	@,
	mov	r9, sl, asl #2	@ tmp270, D.50206,
	movt	r1, #:upper16:.LC57	@,
	mov	r5, sl	@ StreamID, D.50206
	bl	dprint_vfmw	@
	add	r3, r9, sl	@ tmp156, tmp270, D.50206
	add	r8, r3, #1	@ tmp157, tmp156,
	add	r8, r4, r8, asl #4	@, tmp160, pStreamSegArray, tmp157,
	ldr	r2, [r8, #4]	@ <variable>.LenInByte, <variable>.LenInByte
	cmp	r2, #0	@ <variable>.LenInByte,
	beq	.L326	@,
	mov	r6, r3, asl #1	@ tmp280, tmp156,
	add	r8, r8, #4	@ tmp287, tmp160,
	add	r7, r6, #1	@ tmp281, tmp280,
	mov	r6, #0	@ i.1769,
.L327:
	ldr	lr, [r4, r7, asl #3]	@ <variable>.VirAddr, <variable>.VirAddr
	mov	r0, #0	@,
	movw	r1, #:lower16:.LC58	@,
	movt	r1, #:upper16:.LC58	@,
	ldrb	r2, [lr, r6]	@ zero_extendqisi2	@,* i.1769
	add	r6, r6, #1	@ i.1769, i.1769,
	bl	dprint_vfmw	@
	ldr	r1, [r8, #0]	@ <variable>.LenInByte, <variable>.LenInByte
	cmp	r6, #15	@ i.1769,
	movhi	r0, #0	@,
	movls	r0, #1	@,
	cmp	r1, r6	@ <variable>.LenInByte, i.1769
	movls	r0, #0	@,,
	cmp	r0, #0	@ tmp190,
	bne	.L327	@,
.L326:
	add	ip, r9, sl	@ tmp193, tmp270, D.50206
	movw	r1, #:lower16:.LC39	@,
	mov	r0, #0	@,
	movt	r1, #:upper16:.LC39	@,
	add	sl, r4, ip, asl #4	@, tmp196, pStreamSegArray, tmp193,
	add	sl, sl, #8	@ pSeg, tmp196,
	bl	dprint_vfmw	@
	b	.L328	@
.L346:
	movw	r7, #:lower16:92172	@ tmp277,
	movw	r6, #:lower16:954437177	@ tmp278,
	movt	r7, #:upper16:92172	@ tmp277,
	movt	r6, #:upper16:954437177	@ tmp278,
	movw	r8, #1151	@ tmp273,
	b	.L336	@
.L333:
	ldr	r0, [r4, r7]	@ temp.1774, <variable>.Tail
	add	r3, r5, #1	@ temp.1776, i,
	add	r1, r5, r5, asl #2	@, tmp241, i, i,
	cmp	r0, r5	@ temp.1774, i
	umull	ip, r2, r6, r3	@, tmp256, tmp278, temp.1776
	add	ip, r4, r1, asl #4	@, tmp245, pStreamSegArray, tmp241,
	beq	.L347	@,
	cmp	r5, r8	@ i, tmp273
	mov	r2, r2, lsr #8	@ i, tmp256,
	bhi	.L335	@,
	ldrsb	r0, [ip, #12]	@ <variable>.SegState, <variable>.SegState
	cmp	r0, #0	@ <variable>.SegState,
	bne	.L348	@,
.L335:
	add	r0, r2, r2, asl #3	@, tmp260, i, i,
	sub	r5, r3, r0, asl #7	@ i, temp.1776, tmp260,
.L336:
	cmp	r5, r8	@ i, tmp273
	bls	.L333	@,
	movw	r1, #:lower16:.LC60	@,
	movw	r2, #:lower16:.LANCHOR1	@,
	movt	r1, #:upper16:.LC60	@,
	movt	r2, #:upper16:.LANCHOR1	@,
	mov	r0, #1	@,
	bl	dprint_vfmw	@
	b	.L333	@
.L347:
	movw	ip, #:lower16:92196	@ tmp236,
	movt	ip, #:upper16:92196	@ tmp236,
	movw	r2, #:lower16:92168	@ tmp234,
	movw	r3, #:lower16:92192	@ tmp235,
	ldr	r1, [r4, ip]	@ <variable>.SegBufWriteAddr, <variable>.SegBufWriteAddr
	movt	r2, #:upper16:92168	@ tmp234,
	movt	r3, #:upper16:92192	@ tmp235,
	str	r5, [r4, r2]	@ i, <variable>.Head
	str	r1, [r4, r3]	@ <variable>.SegBufWriteAddr, <variable>.SegBufReadAddr
	b	.L332	@
.L348:
	add	r1, r1, #1	@ tmp254, tmp241,
	movw	ip, #:lower16:92168	@ tmp249,
	movt	ip, #:upper16:92168	@ tmp249,
	movw	r3, #:lower16:92192	@ tmp250,
	movt	r3, #:upper16:92192	@ tmp250,
	str	r5, [r4, ip]	@ i, <variable>.Head
	ldr	r2, [r4, r1, asl #4]	@ <variable>.PhyAddr, <variable>.PhyAddr
	str	r2, [r4, r3]	@ <variable>.PhyAddr, <variable>.SegBufReadAddr
	b	.L332	@
	.fnend
	.size	ReleaseStreamSeg, .-ReleaseStreamSeg
	.align	2
	.global	SM_ReleaseStreamSeg
	.type	SM_ReleaseStreamSeg, %function
SM_ReleaseStreamSeg:
	.fnstart
.LFB1579:
	@ args = 0, pretend = 0, frame = 0
	@ frame_needed = 1, uses_anonymous_args = 0
	.movsp ip
	mov	ip, sp	@,
	stmfd	sp!, {fp, ip, lr, pc}	@,
	.pad #4
	.save {fp, ip, lr}
	.setfp fp, ip, #-4
	sub	fp, ip, #4	@,,
	push	{lr}
	bl	__gnu_mcount_nc
	add	r0, r0, r0, asl #1	@, tmp142, SmID, SmID,
	movw	r2, #:lower16:.LANCHOR0	@ tmp138,
	movt	r2, #:upper16:.LANCHOR0	@ tmp138,
	add	r3, r2, r0, asl #4	@, tmp144, tmp138, tmp142,
	ldr	r0, [r3, #40]	@ pSmInstArray, <variable>.pSmInstArray
	cmp	r0, #0	@ pSmInstArray,
	mvneq	r0, #0	@ ret,
	ldmeqfd	sp, {fp, sp, pc}	@
	add	ip, r0, #98304	@, pSmInstArray,
	add	r0, ip, #224	@,,
	bl	ReleaseStreamSeg	@
	ldmfd	sp, {fp, sp, pc}	@
	.fnend
	.size	SM_ReleaseStreamSeg, .-SM_ReleaseStreamSeg
	.align	2
	.global	GetRawNumOffsert
	.type	GetRawNumOffsert, %function
GetRawNumOffsert:
	.fnstart
.LFB1543:
	@ args = 32, pretend = 0, frame = 32
	@ frame_needed = 1, uses_anonymous_args = 0
	.movsp ip
	mov	ip, sp	@,
	stmfd	sp!, {r4, r5, r6, r7, r8, r9, sl, fp, ip, lr, pc}	@,
	.pad #4
	.save {r4, r5, r6, r7, r8, r9, sl, fp, ip, lr}
	.setfp fp, ip, #-4
	sub	fp, ip, #4	@,,
	.pad #36
	sub	sp, sp, #36	@,,
	push	{lr}
	bl	__gnu_mcount_nc
	rsbs	ip, r0, #1	@ tmp161, pRawStreamArray
	movcc	ip, #0	@ tmp161
	orrs	ip, ip, r1, lsr #31	@,, tmp161, Len,
	beq	.L366	@,
.L354:
	mvn	ip, #0	@ D.49908,
.L362:
	mov	r0, ip	@, D.49908
	sub	sp, fp, #40
	ldmfd	sp, {r4, r5, r6, r7, r8, r9, sl, fp, sp, pc}
.L366:
	cmp	r2, #0	@ pNum,
	cmpne	r3, #0	@, pOffset,
	beq	.L354	@,
	mov	ip, #98304	@ tmp173,
	movw	sl, #:lower16:98308	@ tmp180,
	ldr	r8, [r0, ip]	@ D.49914, <variable>.Head
	movt	sl, #:upper16:98308	@ tmp180,
	movw	r4, #:lower16:98316	@ tmp179,
	movt	r4, #:upper16:98316	@ tmp179,
	ldr	r6, [r0, sl]	@ <variable>.Tail, <variable>.Tail
	mov	r5, r8, asl #1	@ tmp333, D.49914,
	ldr	sl, [r0, r4]	@ D.49916, <variable>.FirstPacketOffset
	add	r7, r5, r8	@ tmp176, tmp333, D.49914
	add	r4, r5, r8	@ tmp184, tmp333, D.49914
	subs	r6, r6, r8	@ RawNum, <variable>.Tail, D.49914
	add	r9, r0, r7, asl #5	@, tmp178, pRawStreamArray, tmp176,
	addmi	r6, r6, #1024	@ RawNum, RawNum,
	add	ip, r6, r8	@, RawNum, D.49914
	ldr	r6, [fp, #4]	@, pPts
	ldr	r7, [r9, #8]	@ D.49915, <variable>.Length
	mov	r9, r4, asl #5	@ tmp186, tmp184,
	str	ip, [fp, #-48]	@, %sfp
	add	ip, r9, #16	@ tmp187, tmp186,
	add	r5, r0, r4, asl #5	@, tmp194, pRawStreamArray, tmp184,
	ldrd	r8, [ip, r0]	@ <variable>.Pts, tmp187, pRawStreamArray
	mov	r4, r5	@ tmp210, tmp194
	strd	r8, [r6]	@ <variable>.Pts,
	ldr	r6, [fp, #8]	@, pUsertag
	ldrd	r8, [r5, #32]	@ <variable>.UserTag, tmp194,
	strd	r8, [r6]	@ <variable>.UserTag,
	ldrd	r8, [ip, r0]	@ <variable>.Pts, tmp187, pRawStreamArray
	ldr	ip, [fp, #32]	@, pRawPts
	strd	r8, [ip]	@ <variable>.Pts,
	ldrd	r8, [r5, #40]	@ <variable>.DispTime, tmp210,
	ldr	r5, [fp, #12]	@, pDisptime
	strd	r8, [r5]	@ <variable>.DispTime,
	ldr	r5, [fp, #16]	@, pDispEnableFlag
	ldr	r6, [r4, #56]	@ <variable>.DispEnableFlag, <variable>.DispEnableFlag
	str	r6, [r5, #0]	@ <variable>.DispEnableFlag,
	ldr	r6, [fp, #20]	@, pDispFrameDistance
	ldr	ip, [r4, #60]	@ <variable>.DispFrameDistance, <variable>.DispFrameDistance
	str	ip, [r6, #0]	@ <variable>.DispFrameDistance,
	ldr	r8, [fp, #24]	@, pDistanceBeforeFirstFrame
	ldr	ip, [r4, #64]	@ <variable>.DistanceBeforeFirstFrame, <variable>.DistanceBeforeFirstFrame
	str	ip, [r8, #0]	@ <variable>.DistanceBeforeFirstFrame,
	ldr	r9, [fp, #28]	@, pGopNum
	ldr	ip, [r4, #68]	@ <variable>.GopNum, <variable>.GopNum
	str	ip, [r9, #0]	@ <variable>.GopNum,
	mov	ip, #98304	@ tmp245,
	ldr	r4, [r0, ip]	@ i, <variable>.Head
	ldr	ip, [fp, #-48]	@, %sfp
	cmp	ip, r4	@, i
	ble	.L356	@,
	rsb	r6, sl, r7	@ TotalLen, D.49916, D.49915
	cmp	r1, r6	@ Len, TotalLen
	blt	.L356	@,
	str	r6, [fp, #-72]	@ TotalLen, %sfp
	mov	sl, r1	@ Len, Len
	str	r2, [fp, #-52]	@ pNum, %sfp
	str	r3, [fp, #-56]	@ pOffset, %sfp
	b	.L365	@
.L359:
	ldr	r7, [fp, #-48]	@, %sfp
	ldr	r9, [fp, #4]	@, pPts
	cmp	r7, r4	@, i
	ldrd	r6, [fp, #-68]	@,,
	strd	r6, [r9]	@,
	ldr	ip, [fp, #8]	@, pUsertag
	ldrd	r8, [r1, #32]	@ <variable>.UserTag, tmp270,
	strd	r8, [ip]	@ <variable>.UserTag,
	ldr	r1, [fp, #32]	@, pRawPts
	ldrd	r8, [r2, #16]	@ <variable>.Pts, tmp278,
	strd	r8, [r1]	@ <variable>.Pts,
	ldr	r2, [fp, #12]	@, pDisptime
	ldrd	r8, [r3, #40]	@ <variable>.DispTime, tmp286,
	strd	r8, [r2]	@ <variable>.DispTime,
	ldr	r6, [fp, #16]	@, pDispEnableFlag
	ldr	ip, [r3, #56]	@ <variable>.DispEnableFlag, <variable>.DispEnableFlag
	str	ip, [r6, #0]	@ <variable>.DispEnableFlag,
	ldr	r1, [fp, #20]	@, pDispFrameDistance
	ldr	r2, [r3, #60]	@ <variable>.DispFrameDistance, <variable>.DispFrameDistance
	str	r2, [r1, #0]	@ <variable>.DispFrameDistance,
	ldr	r8, [fp, #24]	@, pDistanceBeforeFirstFrame
	ldr	r6, [r3, #64]	@ <variable>.DistanceBeforeFirstFrame, <variable>.DistanceBeforeFirstFrame
	str	r6, [r8, #0]	@ <variable>.DistanceBeforeFirstFrame,
	ldr	r9, [fp, #28]	@, pGopNum
	ldr	r7, [r3, #68]	@ <variable>.GopNum, <variable>.GopNum
	str	r7, [r9, #0]	@ <variable>.GopNum,
	ble	.L367	@,
	ldr	r1, [fp, #-72]	@, %sfp
	cmp	sl, r1	@ Len,
	blt	.L368	@,
.L365:
	add	r4, r4, #1	@ i, i,
	mvn	r7, #0	@,
	mvn	r6, #0	@,
	mov	r5, r4, asr #31	@ tmp246, i,
	mov	r1, r5, lsr #22	@ tmp247, tmp246,
	add	ip, r4, r1	@ tmp248, i, tmp247
	mov	r9, ip, asl #22	@ tmp249, tmp248,
	mov	r8, r9, lsr #22	@ tmp249, tmp249,
	rsb	r5, r1, r8	@ Index, tmp247, tmp249
	mov	r2, r5, asl #1	@, Index,
	str	r2, [fp, #-76]	@, %sfp
	add	r3, r2, r5	@ tmp268,, Index
	add	r1, r0, r3, asl #5	@, tmp270, pRawStreamArray, tmp268,
	ldrd	r8, [r1, #16]	@, tmp263,
	mov	r2, r1	@ tmp278, tmp270
	mov	r3, r1	@ tmp286, tmp278
	cmp	r9, r7	@,
	cmpeq	r8, r6	@,
	ldr	r7, [fp, #-72]	@, %sfp
	strd	r8, [fp, #-68]	@,,
	ldr	ip, [r1, #8]	@ <variable>.Length, <variable>.Length
	add	r7, r7, ip	@,, <variable>.Length
	str	r7, [fp, #-72]	@, %sfp
	ldreq	r9, [fp, #4]	@, pPts
	ldreqd	r8, [r9]	@,
	streqd	r8, [fp, #-68]	@,,
	b	.L359	@
.L367:
	ldr	r6, [fp, #-72]	@ TotalLen, %sfp
	mov	r1, sl	@ Len, Len
	ldr	r2, [fp, #-52]	@ pNum, %sfp
	ldr	r3, [fp, #-56]	@ pOffset, %sfp
	ldr	r7, [fp, #-76]	@ tmp332, %sfp
.L358:
	mov	ip, #98304	@ tmp321,
	ldr	ip, [r0, ip]	@ temp.1841, <variable>.Head
	cmp	ip, r4	@ temp.1841, i
	beq	.L356	@,
	add	r5, r7, r5	@ tmp325, tmp332, Index
	rsb	r4, ip, r4	@ tmp329, temp.1841, i
	mov	ip, #0	@ D.49908,
	add	r0, r0, r5, asl #5	@, tmp327, pRawStreamArray, tmp325,
	ldr	r0, [r0, #8]	@ <variable>.Length, <variable>.Length
	str	r4, [r2, #0]	@ tmp329,* pNum
	rsb	r6, r0, r6	@ TotalLen.1843, <variable>.Length, TotalLen
	rsb	r0, r6, r1	@ tmp330, TotalLen.1843, Len
	str	r0, [r3, #0]	@ tmp330,* pOffset
	b	.L362	@
.L368:
	mov	r6, r1	@ TotalLen,
	ldr	r2, [fp, #-52]	@ pNum, %sfp
	mov	r1, sl	@ Len, Len
	ldr	r3, [fp, #-56]	@ pOffset, %sfp
	ldr	r7, [fp, #-76]	@ tmp332, %sfp
	b	.L358	@
.L356:
	mov	ip, #0	@ tmp322,
	str	ip, [r2, #0]	@ tmp322,* pNum
	str	r1, [r3, #0]	@ Len,* pOffset
	b	.L362	@
	.fnend
	.size	GetRawNumOffsert, .-GetRawNumOffsert
	.align	2
	.global	GetSegPts
	.type	GetSegPts, %function
GetSegPts:
	.fnstart
.LFB1592:
	@ args = 0, pretend = 0, frame = 8
	@ frame_needed = 1, uses_anonymous_args = 0
	.movsp ip
	mov	ip, sp	@,
	stmfd	sp!, {r4, r5, r6, r7, r8, r9, sl, fp, ip, lr, pc}	@,
	.pad #4
	.save {r4, r5, r6, r7, r8, r9, sl, fp, ip, lr}
	.setfp fp, ip, #-4
	sub	fp, ip, #4	@,,
	.pad #44
	sub	sp, sp, #44	@,,
	push	{lr}
	bl	__gnu_mcount_nc
	mov	r4, r3	@ pSegPacket, pSegPacket
	mvn	r9, #0	@ tmp144,
	mvn	r6, #0	@ tmp140,
	str	r9, [r3, #68]	@ tmp144, <variable>.GopNum
	mvn	r7, #0	@,
	str	r9, [r4, #56]	@ tmp144, <variable>.DispEnableFlag
	mov	r5, r2	@ pLastPts, pLastPts
	strd	r6, [r3, #24]	@ tmp140, pSegPacket,
	sub	r2, fp, #48	@,,
	strd	r6, [r3, #40]	@ tmp140, pSegPacket,
	mov	lr, #0	@ tmp138,
	strd	r6, [r3, #32]	@ tmp140, pSegPacket,
	sub	r3, fp, #52	@,,
	str	r9, [r4, #60]	@ tmp144, <variable>.DispFrameDistance
	add	r8, r4, #24	@ tmp150, pSegPacket,
	str	r9, [r4, #64]	@ tmp144, <variable>.DistanceBeforeFirstFrame
	add	sl, r4, #40	@ tmp151, pSegPacket,
	strd	r6, [r4, #48]	@ tmp140, pSegPacket,
	add	ip, r4, #48	@ tmp152, pSegPacket,
	str	r8, [sp, #0]	@ tmp150,
	add	r9, r4, #56	@ tmp153, pSegPacket,
	add	r8, r4, #60	@, pSegPacket,
	str	sl, [sp, #4]	@ tmp151,
	str	r8, [sp, #16]	@,
	add	sl, r4, #64	@ tmp155, pSegPacket,
	str	ip, [sp, #8]	@ tmp152,
	add	r8, r4, #68	@ tmp156, pSegPacket,
	add	ip, r4, #32	@ tmp157, pSegPacket,
	str	lr, [fp, #-52]	@ tmp138, Offset
	str	r9, [sp, #12]	@ tmp153,
	str	sl, [sp, #20]	@ tmp155,
	str	r8, [sp, #24]	@ tmp156,
	str	ip, [sp, #28]	@ tmp157,
	str	lr, [fp, #-48]	@ tmp138, Num
	bl	GetRawNumOffsert	@
	ldrd	r2, [r4, #24]	@ D.51626, pSegPacket,
	ldrd	r0, [r5]	@ tmp158,* pLastPts
	cmp	r1, r3	@ tmp158, D.51626
	cmpeq	r0, r2	@ tmp158, D.51626
	beq	.L373	@,
	strd	r2, [r5]	@ D.51626,* pLastPts
.L372:
	sub	sp, fp, #40
	ldmfd	sp, {r4, r5, r6, r7, r8, r9, sl, fp, sp, pc}
.L373:
	strd	r6, [r4, #24]	@ tmp140, pSegPacket,
	b	.L372	@
	.fnend
	.size	GetSegPts, .-GetSegPts
	.align	2
	.global	DeleteRawPacket
	.type	DeleteRawPacket, %function
DeleteRawPacket:
	.fnstart
.LFB1541:
	@ args = 0, pretend = 0, frame = 0
	@ frame_needed = 1, uses_anonymous_args = 0
	.movsp ip
	mov	ip, sp	@,
	stmfd	sp!, {r3, r4, r5, r6, r7, r8, r9, sl, fp, ip, lr, pc}	@,
	.pad #4
	.save {r3, r4, r5, r6, r7, r8, r9, sl, fp, ip, lr}
	.setfp fp, ip, #-4
	sub	fp, ip, #4	@,,
	push	{lr}
	bl	__gnu_mcount_nc
	cmp	r0, #0	@ pRawStreamArray,
	cmpne	r1, #0	@, DelNum,
	mov	r9, r1	@ DelNum, DelNum
	mov	r4, r0	@ pRawStreamArray, pRawStreamArray
	movne	r6, #0	@, tmp170
	moveq	r6, #1	@, tmp170
	beq	.L410	@,
	movw	r3, #:lower16:.LANCHOR0	@ tmp261,
	movt	r3, #:upper16:.LANCHOR0	@ tmp261,
	ldr	r2, [r3, #40]	@ D.53580, <variable>.pSmInstArray
	cmp	r2, #0	@ D.53580,
	beq	.L377	@,
	add	r2, r2, #200	@ tmp172, D.53580,
	cmp	r0, r2	@ pRawStreamArray, tmp172
	beq	.L378	@,
.L377:
	ldr	r2, [r3, #88]	@ temp.1906, <variable>.pSmInstArray
	cmp	r2, #0	@ temp.1906,
	beq	.L379	@,
	add	r0, r2, #200	@ tmp174, temp.1906,
	cmp	r4, r0	@ pRawStreamArray, tmp174
	moveq	r6, #1	@ SmID,
	beq	.L378	@,
.L379:
	ldr	r2, [r3, #136]	@ temp.1908, <variable>.pSmInstArray
	cmp	r2, #0	@ temp.1908,
	beq	.L380	@,
	add	r1, r2, #200	@ tmp176, temp.1908,
	cmp	r4, r1	@ pRawStreamArray, tmp176
	moveq	r6, #2	@ SmID,
	beq	.L378	@,
.L380:
	ldr	r2, [r3, #184]	@ temp.1910, <variable>.pSmInstArray
	cmp	r2, #0	@ temp.1910,
	beq	.L381	@,
	add	ip, r2, #200	@ tmp178, temp.1910,
	cmp	r4, ip	@ pRawStreamArray, tmp178
	moveq	r6, #3	@ SmID,
	beq	.L378	@,
.L381:
	ldr	r2, [r3, #232]	@ temp.1912, <variable>.pSmInstArray
	cmp	r2, #0	@ temp.1912,
	beq	.L382	@,
	add	lr, r2, #200	@ tmp180, temp.1912,
	cmp	r4, lr	@ pRawStreamArray, tmp180
	moveq	r6, #4	@ SmID,
	beq	.L378	@,
.L382:
	ldr	r2, [r3, #280]	@ temp.1914, <variable>.pSmInstArray
	cmp	r2, #0	@ temp.1914,
	beq	.L383	@,
	add	r2, r2, #200	@ tmp182, temp.1914,
	cmp	r4, r2	@ pRawStreamArray, tmp182
	moveq	r6, #5	@ SmID,
	beq	.L378	@,
.L383:
	ldr	r2, [r3, #328]	@ temp.1916, <variable>.pSmInstArray
	cmp	r2, #0	@ temp.1916,
	beq	.L384	@,
	add	r0, r2, #200	@ tmp184, temp.1916,
	cmp	r4, r0	@ pRawStreamArray, tmp184
	moveq	r6, #6	@ SmID,
	beq	.L378	@,
.L384:
	ldr	r2, [r3, #376]	@ temp.1918, <variable>.pSmInstArray
	cmp	r2, #0	@ temp.1918,
	beq	.L385	@,
	add	r1, r2, #200	@ tmp186, temp.1918,
	cmp	r4, r1	@ pRawStreamArray, tmp186
	moveq	r6, #7	@ SmID,
	beq	.L378	@,
.L385:
	ldr	r2, [r3, #424]	@ temp.1920, <variable>.pSmInstArray
	cmp	r2, #0	@ temp.1920,
	beq	.L386	@,
	add	ip, r2, #200	@ tmp188, temp.1920,
	cmp	r4, ip	@ pRawStreamArray, tmp188
	moveq	r6, #8	@ SmID,
	beq	.L378	@,
.L386:
	ldr	r2, [r3, #472]	@ temp.1922, <variable>.pSmInstArray
	cmp	r2, #0	@ temp.1922,
	beq	.L387	@,
	add	lr, r2, #200	@ tmp190, temp.1922,
	cmp	r4, lr	@ pRawStreamArray, tmp190
	moveq	r6, #9	@ SmID,
	beq	.L378	@,
.L387:
	ldr	r2, [r3, #520]	@ temp.1924, <variable>.pSmInstArray
	cmp	r2, #0	@ temp.1924,
	beq	.L388	@,
	add	r2, r2, #200	@ tmp192, temp.1924,
	cmp	r4, r2	@ pRawStreamArray, tmp192
	moveq	r6, #10	@ SmID,
	beq	.L378	@,
.L388:
	ldr	r2, [r3, #568]	@ temp.1926, <variable>.pSmInstArray
	cmp	r2, #0	@ temp.1926,
	beq	.L389	@,
	add	r0, r2, #200	@ tmp194, temp.1926,
	cmp	r4, r0	@ pRawStreamArray, tmp194
	moveq	r6, #11	@ SmID,
	beq	.L378	@,
.L389:
	ldr	r2, [r3, #616]	@ temp.1928, <variable>.pSmInstArray
	cmp	r2, #0	@ temp.1928,
	beq	.L390	@,
	add	r1, r2, #200	@ tmp196, temp.1928,
	cmp	r4, r1	@ pRawStreamArray, tmp196
	moveq	r6, #12	@ SmID,
	beq	.L378	@,
.L390:
	ldr	r2, [r3, #664]	@ temp.1930, <variable>.pSmInstArray
	cmp	r2, #0	@ temp.1930,
	beq	.L391	@,
	add	ip, r2, #200	@ tmp198, temp.1930,
	cmp	r4, ip	@ pRawStreamArray, tmp198
	moveq	r6, #13	@ SmID,
	beq	.L378	@,
.L391:
	ldr	r2, [r3, #712]	@ temp.1932, <variable>.pSmInstArray
	cmp	r2, #0	@ temp.1932,
	beq	.L392	@,
	add	lr, r2, #200	@ tmp200, temp.1932,
	cmp	r4, lr	@ pRawStreamArray, tmp200
	moveq	r6, #14	@ SmID,
	beq	.L378	@,
.L392:
	ldr	r2, [r3, #760]	@ temp.1904, <variable>.pSmInstArray
	cmp	r2, #0	@ temp.1904,
	beq	.L393	@,
	add	r2, r2, #200	@ tmp202, temp.1904,
	cmp	r4, r2	@ pRawStreamArray, tmp202
	beq	.L394	@,
.L393:
	mov	r0, #0	@,
	movw	r1, #:lower16:.LC61	@,
	mov	r2, #660	@,
	movt	r1, #:upper16:.LC61	@,
	bl	dprint_vfmw	@
	mvn	r0, #0	@ D.49797,
	ldmfd	sp, {r3, r4, r5, r6, r7, r8, r9, sl, fp, sp, pc}	@
.L394:
	mov	r6, #15	@ SmID,
.L378:
	movw	ip, #:lower16:98308	@ tmp205,
	movt	ip, #:upper16:98308	@ tmp205,
	mov	r1, #98304	@ tmp204,
	ldr	r0, [r4, ip]	@ D.49804, <variable>.Tail
	ldr	r7, [r4, r1]	@ D.49803, <variable>.Head
	cmp	r7, r0	@ D.49803, D.49804
	addgt	r0, r0, #1024	@ tmp206, D.49804,
	rsb	r2, r7, r0	@ PacketNum, D.49803, tmp206
	cmp	r2, r9	@ PacketNum, DelNum
	bcc	.L411	@,
	add	sl, r7, r7, asl #1	@, tmp210, D.49803, D.49803,
	add	r6, r6, r6, asl #1	@, tmp266, SmID, SmID,
	mov	r0, #26	@,
	movw	r1, #:lower16:.LC63	@,
	mov	lr, sl, asl #2	@ tmp217, tmp210,
	add	r6, r3, r6, asl #4	@, tmp269, tmp261, tmp266,
	add	r8, lr, #1	@ tmp218, tmp217,
	ldr	r2, [r4, sl, asl #5]	@, <variable>.PhyAddr
	movt	r1, #:upper16:.LC63	@,
	sub	r5, r9, #1	@ tmp271, DelNum,
	ldr	r3, [r4, r8, asl #3]	@, <variable>.Length
	and	sl, r5, #1	@ tmp273, tmp271,
	bl	dprint_vfmw	@
	ldr	r3, [r6, #40]!	@ D.49819, <variable>.pSmInstArray
	movw	r5, #:lower16:98524	@ tmp270,
	movt	r5, #:upper16:98524	@ tmp270,
	ldr	r2, [r4, r8, asl #3]	@ <variable>.Length, <variable>.Length
	add	r8, r7, #1	@ D.49823, D.49803,
	ldr	r1, [r3, r5]	@ <variable>.RawPacketArray.RawTotalSize, <variable>.RawPacketArray.RawTotalSize
	cmp	r9, #1	@ DelNum,
	mov	r7, r8, asl #22	@ j, D.49823,
	mov	r8, #1	@ i,
	rsb	ip, r2, r1	@ tmp237, <variable>.Length, <variable>.RawPacketArray.RawTotalSize
	str	ip, [r3, r5]	@ tmp237, <variable>.RawPacketArray.RawTotalSize
	ldr	r3, [r6, #0]	@ temp.1902, <variable>.pSmInstArray
	mov	r7, r7, lsr #22	@ j, j,
	ldr	r0, [r3, r5]	@ <variable>.RawPacketArray.RawTotalSize, <variable>.RawPacketArray.RawTotalSize
	bic	r2, r0, r0, asr #31	@ tmp249, <variable>.RawPacketArray.RawTotalSize
	str	r2, [r3, r5]	@ tmp249, <variable>.RawPacketArray.RawTotalSize
	bls	.L407	@,
	cmp	sl, #0	@ tmp273,
	beq	.L398	@,
	add	r8, r7, r7, asl #1	@, tmp324, j, j,
	movw	r1, #:lower16:.LC63	@,
	mov	r0, #26	@,
	movt	r1, #:upper16:.LC63	@,
	mov	sl, r8, asl #2	@ tmp328, tmp324,
	ldr	r2, [r4, r8, asl #5]	@, <variable>.PhyAddr
	add	sl, sl, #1	@ tmp329, tmp328,
	mov	r8, #2	@ i,
	b	.L409	@
.L398:
	add	r3, r7, r7, asl #1	@, tmp278, j, j,
	mov	r0, #26	@,
	movw	r1, #:lower16:.LC63	@,
	movt	r1, #:upper16:.LC63	@,
	mov	lr, r3, asl #2	@ tmp282, tmp278,
	ldr	r2, [r4, r3, asl #5]	@, <variable>.PhyAddr
	add	sl, lr, #1	@ tmp283, tmp282,
	add	r8, r8, #1	@ tmp274, i,
	add	r8, r8, #1	@ i, tmp274,
	ldr	r3, [r4, sl, asl #3]	@, <variable>.Length
	bl	dprint_vfmw	@
	ldr	r3, [r6, #0]	@ D.49819, <variable>.pSmInstArray
	add	r1, r7, #1	@ D.49823, j,
	ldr	r2, [r4, sl, asl #3]	@ <variable>.Length, <variable>.Length
	mov	r0, #26	@,
	ldr	ip, [r3, r5]	@ <variable>.RawPacketArray.RawTotalSize, <variable>.RawPacketArray.RawTotalSize
	mov	r7, r1, asl #22	@ j, D.49823,
	movw	r1, #:lower16:.LC63	@,
	movt	r1, #:upper16:.LC63	@,
	rsb	r2, r2, ip	@ tmp293, <variable>.Length, <variable>.RawPacketArray.RawTotalSize
	str	r2, [r3, r5]	@ tmp293, <variable>.RawPacketArray.RawTotalSize
	ldr	r2, [r6, #0]	@ temp.1902, <variable>.pSmInstArray
	mov	r7, r7, lsr #22	@ j, j,
	add	r3, r7, r7, asl #1	@, tmp302, j, j,
	ldr	ip, [r2, r5]	@ <variable>.RawPacketArray.RawTotalSize, <variable>.RawPacketArray.RawTotalSize
	mov	sl, r3, asl #2	@ tmp306, tmp302,
	bic	ip, ip, ip, asr #31	@ tmp296, <variable>.RawPacketArray.RawTotalSize
	str	ip, [r2, r5]	@ tmp296, <variable>.RawPacketArray.RawTotalSize
	ldr	r2, [r4, r3, asl #5]	@, <variable>.PhyAddr
	add	sl, sl, #1	@ tmp307, tmp306,
.L409:
	ldr	r3, [r4, sl, asl #3]	@, <variable>.Length
	bl	dprint_vfmw	@
	ldr	r3, [r6, #0]	@ D.49819, <variable>.pSmInstArray
	ldr	r2, [r4, sl, asl #3]	@ <variable>.Length, <variable>.Length
	add	ip, r7, #1	@ D.49823, j,
	cmp	r9, r8	@ DelNum, i
	ldr	r1, [r3, r5]	@ <variable>.RawPacketArray.RawTotalSize, <variable>.RawPacketArray.RawTotalSize
	mov	r7, ip, asl #22	@ j, D.49823,
	rsb	r0, r2, r1	@ tmp339, <variable>.Length, <variable>.RawPacketArray.RawTotalSize
	str	r0, [r3, r5]	@ tmp339, <variable>.RawPacketArray.RawTotalSize
	ldr	r3, [r6, #0]	@ temp.1902, <variable>.pSmInstArray
	mov	r7, r7, lsr #22	@ j, j,
	ldr	ip, [r3, r5]	@ <variable>.RawPacketArray.RawTotalSize, <variable>.RawPacketArray.RawTotalSize
	bic	r2, ip, ip, asr #31	@ tmp342, <variable>.RawPacketArray.RawTotalSize
	str	r2, [r3, r5]	@ tmp342, <variable>.RawPacketArray.RawTotalSize
	bhi	.L398	@,
.L407:
	mov	r0, #98304	@ tmp251,
	movw	ip, #:lower16:98316	@ tmp258,
	ldr	r1, [r4, r0]	@ <variable>.Head, <variable>.Head
	movt	ip, #:upper16:98316	@ tmp258,
	mov	r2, #0	@ tmp259,
	add	r9, r9, r1	@ D.49826, DelNum, <variable>.Head
	str	r2, [r4, ip]	@ tmp259, <variable>.FirstPacketOffset
	cmp	r9, #1024	@ D.49826,
	str	r9, [r4, r0]	@ D.49826, <variable>.Head
	subge	r9, r9, #1024	@ tmp257, D.49826,
	strge	r9, [r4, r0]	@ tmp257, <variable>.Head
	mov	r0, r2	@ D.49797, tmp259
	ldmfd	sp, {r3, r4, r5, r6, r7, r8, r9, sl, fp, sp, pc}	@
.L411:
	movw	r1, #:lower16:.LC62	@,
	mov	r3, r9	@, DelNum
	mov	r0, #26	@,
	movt	r1, #:upper16:.LC62	@,
	bl	dprint_vfmw	@
.L410:
	mvn	r0, #0	@ D.49797,
	ldmfd	sp, {r3, r4, r5, r6, r7, r8, r9, sl, fp, sp, pc}	@
	.fnend
	.size	DeleteRawPacket, .-DeleteRawPacket
	.align	2
	.global	DeleteRawLen
	.type	DeleteRawLen, %function
DeleteRawLen:
	.fnstart
.LFB1544:
	@ args = 0, pretend = 0, frame = 56
	@ frame_needed = 1, uses_anonymous_args = 0
	.movsp ip
	mov	ip, sp	@,
	stmfd	sp!, {r4, r5, r6, fp, ip, lr, pc}	@,
	.pad #4
	.save {r4, r5, r6, fp, ip, lr}
	.setfp fp, ip, #-4
	sub	fp, ip, #4	@,,
	.pad #92
	sub	sp, sp, #92	@,,
	push	{lr}
	bl	__gnu_mcount_nc
	rsbs	r6, r0, #1	@ tmp144, pRawStreamArray
	movcc	r6, #0	@ tmp144
	mov	r5, r0	@ pRawStreamArray, pRawStreamArray
	orrs	r6, r6, r1, lsr #31	@, tmp148, tmp144, DelLen,
	bne	.L413	@,
	movw	r2, #:lower16:98324	@ tmp151,
	movw	r4, #:lower16:98316	@ tmp152,
	movt	r2, #:upper16:98324	@ tmp151,
	movt	r4, #:upper16:98316	@ tmp152,
	str	r6, [fp, #-32]	@ tmp148, DelNum
	str	r6, [fp, #-36]	@ tmp148, RawPacketOffSet
	ldr	ip, [r0, r2]	@ <variable>.RawTotalSize, <variable>.RawTotalSize
	ldr	r2, [r0, r4]	@ <variable>.FirstPacketOffset, <variable>.FirstPacketOffset
	subs	r2, ip, r2	@ TotallLen, <variable>.RawTotalSize, <variable>.FirstPacketOffset
	bmi	.L413	@,
	cmp	r1, r2	@ DelLen, TotallLen
	ble	.L422	@,
.L413:
	mvn	r0, #0	@ Ret,
.L416:
	sub	sp, fp, #24
	ldmfd	sp, {r4, r5, r6, fp, sp, pc}
.L422:
	sub	r2, fp, #32	@,,
	sub	r3, fp, #36	@,,
	sub	ip, fp, #60	@ tmp157,,
	sub	lr, fp, #68	@ tmp158,,
	str	ip, [sp, #0]	@ tmp157,
	sub	ip, fp, #76	@ tmp159,,
	str	lr, [sp, #4]	@ tmp158,
	sub	lr, fp, #40	@ tmp160,,
	str	ip, [sp, #8]	@ tmp159,
	sub	ip, fp, #44	@ tmp161,,
	str	lr, [sp, #12]	@ tmp160,
	sub	lr, fp, #48	@ tmp162,,
	str	ip, [sp, #16]	@ tmp161,
	sub	ip, fp, #52	@ tmp163,,
	str	lr, [sp, #20]	@ tmp162,
	sub	lr, fp, #84	@ tmp164,,
	str	ip, [sp, #24]	@ tmp163,
	str	lr, [sp, #28]	@ tmp164,
	bl	GetRawNumOffsert	@
	ldr	r1, [fp, #-32]	@, DelNum
	mov	r0, r5	@, pRawStreamArray
	bl	DeleteRawPacket	@
	movw	r1, #:lower16:98308	@ tmp167,
	movt	r1, #:upper16:98308	@ tmp167,
	mov	ip, #98304	@ tmp166,
	ldr	r2, [r5, ip]	@ D.53598, <variable>.Head
	ldr	r3, [r5, r1]	@ <variable>.Tail, <variable>.Tail
	ldr	r1, [fp, #-36]	@ RawPacketOffSet.477, RawPacketOffSet
	cmp	r2, r3	@ D.53598, <variable>.Tail
	mvneq	r0, #2	@ Ret,
	beq	.L416	@,
	add	ip, r2, r2, asl #1	@, tmp173, D.53598, D.53598,
	ldr	r0, [r5, r4]	@ <variable>.FirstPacketOffset, <variable>.FirstPacketOffset
	add	lr, r5, ip, asl #5	@, tmp175, pRawStreamArray, tmp173,
	add	r2, r1, r0	@ TargetOffset, RawPacketOffSet.477, <variable>.FirstPacketOffset
	ldr	r3, [lr, #8]	@ <variable>.Length, <variable>.Length
	cmp	r2, r3	@ TargetOffset, <variable>.Length
	strlt	r2, [r5, r4]	@ TargetOffset, <variable>.FirstPacketOffset
	movlt	r0, r6	@ Ret, tmp148
	blt	.L416	@,
	b	.L413	@
	.fnend
	.size	DeleteRawLen, .-DeleteRawLen
	.align	2
	.global	DeleteLastSendRaw
	.type	DeleteLastSendRaw, %function
DeleteLastSendRaw:
	.fnstart
.LFB1545:
	@ args = 0, pretend = 0, frame = 0
	@ frame_needed = 1, uses_anonymous_args = 0
	.movsp ip
	mov	ip, sp	@,
	stmfd	sp!, {r4, r5, fp, ip, lr, pc}	@,
	.pad #4
	.save {r4, r5, fp, ip, lr}
	.setfp fp, ip, #-4
	sub	fp, ip, #4	@,,
	push	{lr}
	bl	__gnu_mcount_nc
	cmp	r0, #15	@ SmID,
	ldmhifd	sp, {r4, r5, fp, sp, pc}	@
	add	r0, r0, r0, asl #1	@, tmp140, SmID, SmID,
	movw	r1, #:lower16:.LANCHOR0	@ tmp136,
	movt	r1, #:upper16:.LANCHOR0	@ tmp136,
	add	r3, r1, r0, asl #4	@, tmp142, tmp136, tmp140,
	ldr	r5, [r3, #40]	@ pSmInstArray, <variable>.pSmInstArray
	cmp	r5, #0	@ pSmInstArray,
	beq	.L427	@,
	movw	r4, #:lower16:190744	@ tmp145,
	movt	r4, #:upper16:190744	@ tmp145,
	ldr	r1, [r5, r4]	@ LastPushRawNum, <variable>.SmPushRaw.PushRawNum
	cmp	r1, #0	@ LastPushRawNum,
	ldmlefd	sp, {r4, r5, fp, sp, pc}	@
	add	r0, r5, #200	@, pSmInstArray,
	bl	DeleteRawPacket	@
	mov	r2, #0	@ tmp148,
	str	r2, [r5, r4]	@ tmp148, <variable>.SmPushRaw.PushRawNum
	ldmfd	sp, {r4, r5, fp, sp, pc}	@
.L427:
	mov	r0, r5	@, pSmInstArray
	movw	r1, #:lower16:.LC64	@,
	mov	r2, #924	@,
	movt	r1, #:upper16:.LC64	@,
	bl	dprint_vfmw	@
	ldmfd	sp, {r4, r5, fp, sp, pc}	@
	.fnend
	.size	DeleteLastSendRaw, .-DeleteLastSendRaw
	.align	2
	.global	SetMaxSegSize
	.type	SetMaxSegSize, %function
SetMaxSegSize:
	.fnstart
.LFB1623:
	@ args = 0, pretend = 0, frame = 0
	@ frame_needed = 1, uses_anonymous_args = 0
	.movsp ip
	mov	ip, sp	@,
	stmfd	sp!, {r4, r5, fp, ip, lr, pc}	@,
	.pad #4
	.save {r4, r5, fp, ip, lr}
	.setfp fp, ip, #-4
	sub	fp, ip, #4	@,,
	push	{lr}
	bl	__gnu_mcount_nc
	mov	r4, r1	@ pSmCfg, pSmCfg
	mov	r5, r0	@ ChanID, ChanID
	bl	VCTRL_GetChanCapLevel	@
	cmp	r0, #32	@ eCapLevel,
	bhi	.L435	@,
	cmp	r0, #25	@ eCapLevel,
	beq	.L436	@,
	ldr	r1, [r4, #8]	@ D.53439, <variable>.VidStd
	cmp	r1, #16	@ D.53439,
	cmpne	r1, #0	@, D.53439,
	bne	.L433	@,
	sub	r0, r0, #13	@ D.53602, eCapLevel,
	cmp	r0, #19	@ D.53602,
	bhi	.L433	@,
	movw	r2, #:lower16:.LANCHOR1	@ tmp160,
	movt	r2, #:upper16:.LANCHOR1	@ tmp160,
	add	r0, r2, r0, asl #2	@, tmp163, tmp160, D.53602,
	ldr	r0, [r0, #20]	@ MaxSegSize, CSWTCH.724
	ldmfd	sp, {r4, r5, fp, sp, pc}	@
.L436:
	mov	r0, r5	@, ChanID
	bl	VCTRL_GetChanWidth	@
	mov	r4, r0	@ ChanWidth,
	mov	r0, r5	@, ChanID
	bl	VCTRL_GetChanHeight	@
	cmn	r0, #1	@ ChanHeight,
	cmnne	r4, #1	@, ChanWidth,
	beq	.L437	@,
	mul	r4, r4, r0	@ tmp151, ChanWidth, ChanHeight
	movw	r3, #:lower16:2088960	@ tmp152,
	movt	r3, #:upper16:2088960	@ tmp152,
	cmp	r4, r3	@ tmp151, tmp152
	movgt	r0, #20971520	@ MaxSegSize,
	ldmgtfd	sp, {r4, r5, fp, sp, pc}	@
.L433:
	mov	r0, #3145728	@ MaxSegSize,
	ldmfd	sp, {r4, r5, fp, sp, pc}	@
.L435:
	mov	r0, #0	@,
	movw	r1, #:lower16:.LC65	@,
	movt	r1, #:upper16:.LC65	@,
	bl	dprint_vfmw	@
	mvn	r0, #0	@ MaxSegSize,
	ldmfd	sp, {r4, r5, fp, sp, pc}	@
.L437:
	mov	r0, #0	@,
	movw	r1, #:lower16:.LC66	@,
	movt	r1, #:upper16:.LC66	@,
	bl	dprint_vfmw	@
	mvn	r0, #0	@ MaxSegSize,
	ldmfd	sp, {r4, r5, fp, sp, pc}	@
	.fnend
	.size	SetMaxSegSize, .-SetMaxSegSize
	.align	2
	.global	PrintScdSegState
	.type	PrintScdSegState, %function
PrintScdSegState:
	.fnstart
.LFB1622:
	@ args = 0, pretend = 0, frame = 0
	@ frame_needed = 1, uses_anonymous_args = 0
	.movsp ip
	mov	ip, sp	@,
	stmfd	sp!, {r4, r5, r6, r7, r8, sl, fp, ip, lr, pc}	@,
	.pad #4
	.save {r4, r5, r6, r7, r8, sl, fp, ip, lr}
	.setfp fp, ip, #-4
	sub	fp, ip, #4	@,,
	push	{lr}
	bl	__gnu_mcount_nc
	mov	r8, r0	@ SmID, SmID
	mov	r0, #26	@,
	mov	r7, r1	@ PrintDetail, PrintDetail
	bl	IsDprintTypeEnable	@
	cmp	r0, #0	@,
	ldmeqfd	sp, {r4, r5, r6, r7, r8, sl, fp, sp, pc}	@
	add	r2, r8, r8, asl #1	@, tmp213, SmID, SmID,
	movw	r0, #:lower16:.LANCHOR0	@ tmp209,
	movt	r0, #:upper16:.LANCHOR0	@ tmp209,
	movw	r6, #:lower16:190696	@ tmp219,
	add	r1, r0, r2, asl #4	@, tmp215, tmp209, tmp213,
	movt	r6, #:upper16:190696	@ tmp219,
	mov	r2, r8	@, SmID
	mov	r0, #26	@,
	ldr	r4, [r1, #40]	@ D.53354, <variable>.pSmInstArray
	movw	r5, #:lower16:190700	@ tmp222,
	movw	r1, #:lower16:.LC67	@,
	movt	r5, #:upper16:190700	@ tmp222,
	movt	r1, #:upper16:.LC67	@,
	bl	dprint_vfmw	@
	ldr	r2, [r4, r6]	@, <variable>.StreamSegArray.Head
	mov	r0, #26	@,
	movw	r1, #:lower16:.LC68	@,
	movt	r1, #:upper16:.LC68	@,
	bl	dprint_vfmw	@
	ldr	r2, [r4, r5]	@, <variable>.StreamSegArray.Tail
	mov	r0, #26	@,
	movw	r1, #:lower16:.LC69	@,
	movt	r1, #:upper16:.LC69	@,
	bl	dprint_vfmw	@
	movw	ip, #:lower16:190708	@ tmp225,
	movt	ip, #:upper16:190708	@ tmp225,
	mov	r0, #26	@,
	movw	r1, #:lower16:.LC70	@,
	movt	r1, #:upper16:.LC70	@,
	ldr	r2, [r4, ip]	@, <variable>.StreamSegArray.Current
	bl	dprint_vfmw	@
	movw	r3, #:lower16:190712	@ tmp228,
	movt	r3, #:upper16:190712	@ tmp228,
	mov	r0, #26	@,
	movw	r1, #:lower16:.LC71	@,
	movt	r1, #:upper16:.LC71	@,
	ldr	r2, [r4, r3]	@, <variable>.StreamSegArray.SegBufPhyAddr
	bl	dprint_vfmw	@
	movw	ip, #:lower16:98528	@ tmp231,
	movt	ip, #:upper16:98528	@ tmp231,
	mov	r0, #26	@,
	movw	r1, #:lower16:.LC72	@,
	movt	r1, #:upper16:.LC72	@,
	ldr	r2, [r4, ip]	@, <variable>.StreamSegArray.pSegBufVirAddr
	bl	dprint_vfmw	@
	movw	r3, #:lower16:190716	@ tmp234,
	movt	r3, #:upper16:190716	@ tmp234,
	mov	r0, #26	@,
	movw	r1, #:lower16:.LC73	@,
	movt	r1, #:upper16:.LC73	@,
	ldr	r2, [r4, r3]	@, <variable>.StreamSegArray.SegBufSize
	bl	dprint_vfmw	@
	movw	ip, #:lower16:190720	@ tmp237,
	movt	ip, #:upper16:190720	@ tmp237,
	mov	r0, #26	@,
	movw	r1, #:lower16:.LC74	@,
	movt	r1, #:upper16:.LC74	@,
	ldr	r2, [r4, ip]	@, <variable>.StreamSegArray.SegBufReadAddr
	bl	dprint_vfmw	@
	movw	r3, #:lower16:190724	@ tmp240,
	movt	r3, #:upper16:190724	@ tmp240,
	mov	r0, #26	@,
	movw	r1, #:lower16:.LC75	@,
	movt	r1, #:upper16:.LC75	@,
	ldr	r2, [r4, r3]	@, <variable>.StreamSegArray.SegBufWriteAddr
	bl	dprint_vfmw	@
	cmp	r7, #1	@ PrintDetail,
	beq	.L451	@,
.L440:
	mov	r2, r8	@, SmID
	movw	r1, #:lower16:.LC77	@,
	mov	r0, #26	@,
	movt	r1, #:upper16:.LC77	@,
	bl	dprint_vfmw	@
	ldmfd	sp, {r4, r5, r6, r7, r8, sl, fp, sp, pc}	@
.L451:
	add	r3, r4, #98304	@ tmp242, D.53354,
	add	lr, r3, #224	@ tmp242, tmp242,
	cmp	lr, #0	@ tmp242,
	beq	.L441	@,
	ldr	r3, [r4, r6]	@ D.53614, <variable>.StreamSegArray.Head
	ldr	r7, [r4, r5]	@ <variable>.StreamSegArray.Tail, <variable>.StreamSegArray.Tail
	subs	r7, r7, r3	@ SegNum, <variable>.StreamSegArray.Tail, D.53614
	addmi	r7, r7, #1152	@ SegNum, SegNum,
	cmp	r7, #0	@ SegNum,
	ble	.L440	@,
	add	lr, r3, r3, asl #2	@, tmp260, D.53614, D.53614,
	mov	r0, #26	@,
	movw	r1, #:lower16:.LC78	@,
	movt	r1, #:upper16:.LC78	@,
	mov	r2, lr, asl #4	@ tmp262, tmp260,
	mov	r6, #1	@ i,
	add	ip, r2, #98304	@ tmp263, tmp262,
	sub	sl, r7, #1	@ tmp273, SegNum,
	add	r5, ip, #248	@ tmp263, tmp263,
	and	sl, sl, #1	@ tmp275, tmp273,
	add	r5, r4, r5	@ ivtmp.2037, D.53354, tmp263
	add	r4, r5, #80	@ ivtmp.2037, ivtmp.2037,
	ldr	r2, [r5, #-8]	@, <variable>.PhyAddr
	bl	dprint_vfmw	@
	ldr	r2, [r5, #-16]	@, <variable>.VirAddr
	mov	r0, #26	@,
	movw	r1, #:lower16:.LC79	@,
	movt	r1, #:upper16:.LC79	@,
	bl	dprint_vfmw	@
	ldr	r2, [r5, #-4]	@, <variable>.LenInByte
	mov	r0, #26	@,
	movw	r1, #:lower16:.LC80	@,
	movt	r1, #:upper16:.LC80	@,
	bl	dprint_vfmw	@
	ldr	r2, [r5, #0]	@, <variable>.StreamID
	mov	r0, #26	@,
	movw	r1, #:lower16:.LC81	@,
	movt	r1, #:upper16:.LC81	@,
	bl	dprint_vfmw	@
	ldrsb	r2, [r5, #-12]	@, <variable>.SegState
	mov	r0, #26	@,
	movw	r1, #:lower16:.LC82	@,
	movt	r1, #:upper16:.LC82	@,
	bl	dprint_vfmw	@
	ldrb	r2, [r5, #-11]	@ zero_extendqisi2	@, <variable>.IsLastSeg
	mov	r0, #26	@,
	movw	r1, #:lower16:.LC83	@,
	movt	r1, #:upper16:.LC83	@,
	bl	dprint_vfmw	@
	mov	r0, #26	@,
	movw	r1, #:lower16:.LC84	@,
	ldrd	r2, [r5, #8]	@, ivtmp.2037,
	movt	r1, #:upper16:.LC84	@,
	bl	dprint_vfmw	@
	cmp	r6, r7	@ i, SegNum
	bge	.L440	@,
	cmp	sl, #0	@ tmp275,
	beq	.L443	@,
	ldr	r2, [r4, #-8]	@, <variable>.PhyAddr
	mov	r0, #26	@,
	movw	r1, #:lower16:.LC78	@,
	movt	r1, #:upper16:.LC78	@,
	bl	dprint_vfmw	@
	ldr	r2, [r4, #-16]	@, <variable>.VirAddr
	mov	r0, #26	@,
	movw	r1, #:lower16:.LC79	@,
	movt	r1, #:upper16:.LC79	@,
	mov	r6, #2	@ i,
	bl	dprint_vfmw	@
	ldr	r2, [r4, #-4]	@, <variable>.LenInByte
	mov	r0, #26	@,
	movw	r1, #:lower16:.LC80	@,
	movt	r1, #:upper16:.LC80	@,
	bl	dprint_vfmw	@
	ldr	r2, [r4, #0]	@, <variable>.StreamID
	mov	r0, #26	@,
	movw	r1, #:lower16:.LC81	@,
	movt	r1, #:upper16:.LC81	@,
	bl	dprint_vfmw	@
	ldrsb	r2, [r4, #-12]	@, <variable>.SegState
	mov	r0, #26	@,
	movw	r1, #:lower16:.LC82	@,
	movt	r1, #:upper16:.LC82	@,
	bl	dprint_vfmw	@
	ldrb	r2, [r4, #-11]	@ zero_extendqisi2	@, <variable>.IsLastSeg
	mov	r0, #26	@,
	movw	r1, #:lower16:.LC83	@,
	movt	r1, #:upper16:.LC83	@,
	bl	dprint_vfmw	@
	ldrd	r2, [r4, #8]	@, ivtmp.2037,
	mov	r0, #26	@,
	movw	r1, #:lower16:.LC84	@,
	movt	r1, #:upper16:.LC84	@,
	add	r4, r5, #160	@ ivtmp.2037, ivtmp.2037,
	bl	dprint_vfmw	@
	cmp	r6, r7	@ i, SegNum
	bge	.L440	@,
.L443:
	ldr	r2, [r4, #-8]	@, <variable>.PhyAddr
	mov	r0, #26	@,
	movw	r1, #:lower16:.LC78	@,
	movt	r1, #:upper16:.LC78	@,
	bl	dprint_vfmw	@
	ldr	r2, [r4, #-16]	@, <variable>.VirAddr
	mov	r0, #26	@,
	movw	r1, #:lower16:.LC79	@,
	movt	r1, #:upper16:.LC79	@,
	add	r5, r4, #80	@ tmp277, ivtmp.2037,
	bl	dprint_vfmw	@
	ldr	r2, [r4, #-4]	@, <variable>.LenInByte
	mov	r0, #26	@,
	movw	r1, #:lower16:.LC80	@,
	movt	r1, #:upper16:.LC80	@,
	add	r6, r6, #1	@ tmp276, i,
	bl	dprint_vfmw	@
	ldr	r2, [r4, #0]	@, <variable>.StreamID
	mov	r0, #26	@,
	movw	r1, #:lower16:.LC81	@,
	movt	r1, #:upper16:.LC81	@,
	add	r6, r6, #1	@ i, tmp276,
	bl	dprint_vfmw	@
	ldrsb	r2, [r4, #-12]	@, <variable>.SegState
	mov	r0, #26	@,
	movw	r1, #:lower16:.LC82	@,
	movt	r1, #:upper16:.LC82	@,
	bl	dprint_vfmw	@
	ldrb	r2, [r4, #-11]	@ zero_extendqisi2	@, <variable>.IsLastSeg
	mov	r0, #26	@,
	movw	r1, #:lower16:.LC83	@,
	movt	r1, #:upper16:.LC83	@,
	bl	dprint_vfmw	@
	ldrd	r2, [r4, #8]	@, ivtmp.2037,
	mov	r0, #26	@,
	movw	r1, #:lower16:.LC84	@,
	movt	r1, #:upper16:.LC84	@,
	bl	dprint_vfmw	@
	ldr	r2, [r5, #-8]	@, <variable>.PhyAddr
	mov	r0, #26	@,
	movw	r1, #:lower16:.LC78	@,
	movt	r1, #:upper16:.LC78	@,
	bl	dprint_vfmw	@
	ldr	r2, [r5, #-16]	@, <variable>.VirAddr
	mov	r0, #26	@,
	movw	r1, #:lower16:.LC79	@,
	movt	r1, #:upper16:.LC79	@,
	bl	dprint_vfmw	@
	ldr	r2, [r5, #-4]	@, <variable>.LenInByte
	mov	r0, #26	@,
	movw	r1, #:lower16:.LC80	@,
	movt	r1, #:upper16:.LC80	@,
	bl	dprint_vfmw	@
	ldr	r2, [r4, #80]	@, <variable>.StreamID
	mov	r0, #26	@,
	movw	r1, #:lower16:.LC81	@,
	movt	r1, #:upper16:.LC81	@,
	add	r4, r4, #160	@ ivtmp.2037, ivtmp.2037,
	bl	dprint_vfmw	@
	ldrsb	r2, [r5, #-12]	@, <variable>.SegState
	mov	r0, #26	@,
	movw	r1, #:lower16:.LC82	@,
	movt	r1, #:upper16:.LC82	@,
	bl	dprint_vfmw	@
	ldrb	r2, [r5, #-11]	@ zero_extendqisi2	@, <variable>.IsLastSeg
	mov	r0, #26	@,
	movw	r1, #:lower16:.LC83	@,
	movt	r1, #:upper16:.LC83	@,
	bl	dprint_vfmw	@
	ldrd	r2, [r5, #8]	@, tmp277,
	mov	r0, #26	@,
	movw	r1, #:lower16:.LC84	@,
	movt	r1, #:upper16:.LC84	@,
	bl	dprint_vfmw	@
	cmp	r6, r7	@ i, SegNum
	blt	.L443	@,
	b	.L440	@
.L441:
	movw	r1, #:lower16:.LC76	@,
	ldr	r2, .L452	@,
	movt	r1, #:upper16:.LC76	@,
	movw	r3, #6198	@,
	mov	r0, #22	@,
	bl	dprint_vfmw	@
	b	.L440	@
.L453:
	.align	2
.L452:
	.word	.LANCHOR1+100
	.fnend
	.size	PrintScdSegState, .-PrintScdSegState
	.align	2
	.global	PrintScdRawState
	.type	PrintScdRawState, %function
PrintScdRawState:
	.fnstart
.LFB1620:
	@ args = 0, pretend = 0, frame = 0
	@ frame_needed = 1, uses_anonymous_args = 0
	.movsp ip
	mov	ip, sp	@,
	stmfd	sp!, {r4, r5, r6, r7, r8, sl, fp, ip, lr, pc}	@,
	.pad #4
	.save {r4, r5, r6, r7, r8, sl, fp, ip, lr}
	.setfp fp, ip, #-4
	sub	fp, ip, #4	@,,
	push	{lr}
	bl	__gnu_mcount_nc
	mov	r8, r0	@ SmID, SmID
	mov	r0, #26	@,
	mov	r7, r1	@ PrintDetail, PrintDetail
	bl	IsDprintTypeEnable	@
	cmp	r0, #0	@,
	ldmeqfd	sp, {r4, r5, r6, r7, r8, sl, fp, sp, pc}	@
	add	r2, r8, r8, asl #1	@, tmp153, SmID, SmID,
	movw	r0, #:lower16:.LANCHOR0	@ tmp149,
	movt	r0, #:upper16:.LANCHOR0	@ tmp149,
	movw	r6, #:lower16:98504	@ tmp159,
	add	r1, r0, r2, asl #4	@, tmp155, tmp149, tmp153,
	movt	r6, #:upper16:98504	@ tmp159,
	mov	r2, r8	@, SmID
	mov	r0, #26	@,
	ldr	r4, [r1, #40]	@ D.53239, <variable>.pSmInstArray
	movw	r5, #:lower16:98508	@ tmp162,
	movw	r1, #:lower16:.LC85	@,
	movt	r5, #:upper16:98508	@ tmp162,
	movt	r1, #:upper16:.LC85	@,
	bl	dprint_vfmw	@
	ldr	r2, [r4, r6]	@, <variable>.RawPacketArray.Head
	mov	r0, #26	@,
	movw	r1, #:lower16:.LC86	@,
	movt	r1, #:upper16:.LC86	@,
	bl	dprint_vfmw	@
	ldr	r2, [r4, r5]	@, <variable>.RawPacketArray.Tail
	mov	r0, #26	@,
	movw	r1, #:lower16:.LC87	@,
	movt	r1, #:upper16:.LC87	@,
	bl	dprint_vfmw	@
	movw	r3, #:lower16:98512	@ tmp165,
	movt	r3, #:upper16:98512	@ tmp165,
	mov	r0, #26	@,
	movw	r1, #:lower16:.LC88	@,
	movt	r1, #:upper16:.LC88	@,
	ldr	r2, [r4, r3]	@, <variable>.RawPacketArray.History
	bl	dprint_vfmw	@
	movw	ip, #:lower16:98516	@ tmp168,
	movt	ip, #:upper16:98516	@ tmp168,
	mov	r0, #26	@,
	movw	r1, #:lower16:.LC89	@,
	movt	r1, #:upper16:.LC89	@,
	ldr	r2, [r4, ip]	@, <variable>.RawPacketArray.FirstPacketOffset
	bl	dprint_vfmw	@
	movw	r3, #:lower16:98520	@ tmp171,
	movt	r3, #:upper16:98520	@ tmp171,
	mov	r0, #26	@,
	movw	r1, #:lower16:.LC90	@,
	movt	r1, #:upper16:.LC90	@,
	ldr	r2, [r4, r3]	@, <variable>.RawPacketArray.CurShowIndex
	bl	dprint_vfmw	@
	cmp	r7, #1	@ PrintDetail,
	beq	.L467	@,
.L456:
	mov	r2, r8	@, SmID
	movw	r1, #:lower16:.LC92	@,
	mov	r0, #26	@,
	movt	r1, #:upper16:.LC92	@,
	bl	dprint_vfmw	@
	ldmfd	sp, {r4, r5, r6, r7, r8, sl, fp, sp, pc}	@
.L467:
	cmn	r4, #200	@ D.53239,
	beq	.L457	@,
	ldr	r3, [r4, r6]	@ D.53623, <variable>.RawPacketArray.Head
	ldr	r7, [r4, r5]	@ <variable>.RawPacketArray.Tail, <variable>.RawPacketArray.Tail
	subs	r7, r7, r3	@ RawNum, <variable>.RawPacketArray.Tail, D.53623
	addmi	r7, r7, #1024	@ RawNum, RawNum,
	cmp	r7, #0	@ RawNum,
	ble	.L456	@,
	add	r5, r3, r3, asl #1	@, tmp187, D.53623, D.53623,
	mov	r0, #26	@,
	movw	r1, #:lower16:.LC93	@,
	movt	r1, #:upper16:.LC93	@,
	add	r4, r4, r5, asl #5	@, tmp189, D.53239, tmp187,
	mov	r6, #1	@ i,
	add	r5, r4, #208	@ ivtmp.2080, tmp189,
	sub	sl, r7, #1	@ tmp195, RawNum,
	and	sl, sl, #1	@ tmp197, tmp195,
	add	r4, r5, #96	@ ivtmp.2080, ivtmp.2080,
	ldr	r2, [r5, #-8]	@, <variable>.PhyAddr
	bl	dprint_vfmw	@
	ldr	r2, [r5, #-4]	@, <variable>.VirAddr
	mov	r0, #26	@,
	movw	r1, #:lower16:.LC94	@,
	movt	r1, #:upper16:.LC94	@,
	bl	dprint_vfmw	@
	ldr	r2, [r5, #0]	@, <variable>.Length
	mov	r0, #26	@,
	movw	r1, #:lower16:.LC95	@,
	movt	r1, #:upper16:.LC95	@,
	bl	dprint_vfmw	@
	mov	r0, #26	@,
	movw	r1, #:lower16:.LC96	@,
	ldrd	r2, [r5, #8]	@, ivtmp.2080,
	movt	r1, #:upper16:.LC96	@,
	bl	dprint_vfmw	@
	cmp	r6, r7	@ i, RawNum
	bge	.L456	@,
	cmp	sl, #0	@ tmp197,
	beq	.L459	@,
	ldr	r2, [r4, #-8]	@, <variable>.PhyAddr
	mov	r0, #26	@,
	movw	r1, #:lower16:.LC93	@,
	movt	r1, #:upper16:.LC93	@,
	bl	dprint_vfmw	@
	ldr	r2, [r4, #-4]	@, <variable>.VirAddr
	mov	r0, #26	@,
	movw	r1, #:lower16:.LC94	@,
	movt	r1, #:upper16:.LC94	@,
	mov	r6, #2	@ i,
	bl	dprint_vfmw	@
	ldr	r2, [r4, #0]	@, <variable>.Length
	mov	r0, #26	@,
	movw	r1, #:lower16:.LC95	@,
	movt	r1, #:upper16:.LC95	@,
	bl	dprint_vfmw	@
	ldrd	r2, [r4, #8]	@, ivtmp.2080,
	mov	r0, #26	@,
	movw	r1, #:lower16:.LC96	@,
	movt	r1, #:upper16:.LC96	@,
	add	r4, r5, #192	@ ivtmp.2080, ivtmp.2080,
	bl	dprint_vfmw	@
	cmp	r6, r7	@ i, RawNum
	bge	.L456	@,
.L459:
	ldr	r2, [r4, #-8]	@, <variable>.PhyAddr
	mov	r0, #26	@,
	movw	r1, #:lower16:.LC93	@,
	movt	r1, #:upper16:.LC93	@,
	bl	dprint_vfmw	@
	ldr	r2, [r4, #-4]	@, <variable>.VirAddr
	mov	r0, #26	@,
	movw	r1, #:lower16:.LC94	@,
	movt	r1, #:upper16:.LC94	@,
	add	r5, r4, #96	@ tmp199, ivtmp.2080,
	bl	dprint_vfmw	@
	ldr	r2, [r4, #0]	@, <variable>.Length
	mov	r0, #26	@,
	movw	r1, #:lower16:.LC95	@,
	movt	r1, #:upper16:.LC95	@,
	add	r6, r6, #1	@ tmp198, i,
	bl	dprint_vfmw	@
	ldrd	r2, [r4, #8]	@, ivtmp.2080,
	mov	r0, #26	@,
	movw	r1, #:lower16:.LC96	@,
	movt	r1, #:upper16:.LC96	@,
	add	r6, r6, #1	@ i, tmp198,
	bl	dprint_vfmw	@
	ldr	r2, [r5, #-8]	@, <variable>.PhyAddr
	mov	r0, #26	@,
	movw	r1, #:lower16:.LC93	@,
	movt	r1, #:upper16:.LC93	@,
	bl	dprint_vfmw	@
	ldr	r2, [r5, #-4]	@, <variable>.VirAddr
	mov	r0, #26	@,
	movw	r1, #:lower16:.LC94	@,
	movt	r1, #:upper16:.LC94	@,
	bl	dprint_vfmw	@
	ldr	r2, [r4, #96]	@, <variable>.Length
	mov	r0, #26	@,
	movw	r1, #:lower16:.LC95	@,
	movt	r1, #:upper16:.LC95	@,
	add	r4, r4, #192	@ ivtmp.2080, ivtmp.2080,
	bl	dprint_vfmw	@
	ldrd	r2, [r5, #8]	@, tmp199,
	mov	r0, #26	@,
	movw	r1, #:lower16:.LC96	@,
	movt	r1, #:upper16:.LC96	@,
	bl	dprint_vfmw	@
	cmp	r6, r7	@ i, RawNum
	blt	.L459	@,
	b	.L456	@
.L457:
	movw	r1, #:lower16:.LC91	@,
	ldr	r2, .L468	@,
	movt	r1, #:upper16:.LC91	@,
	movw	r3, #6060	@,
	mov	r0, #22	@,
	bl	dprint_vfmw	@
	b	.L456	@
.L469:
	.align	2
.L468:
	.word	.LANCHOR1+120
	.fnend
	.size	PrintScdRawState, .-PrintScdRawState
	.align	2
	.global	PrintScdVtrlReg
	.type	PrintScdVtrlReg, %function
PrintScdVtrlReg:
	.fnstart
.LFB1616:
	@ args = 0, pretend = 0, frame = 8
	@ frame_needed = 1, uses_anonymous_args = 0
	.movsp ip
	mov	ip, sp	@,
	stmfd	sp!, {r4, r5, r6, r7, r8, r9, sl, fp, ip, lr, pc}	@,
	.pad #4
	.save {r4, r5, r6, r7, r8, r9, sl, fp, ip, lr}
	.setfp fp, ip, #-4
	sub	fp, ip, #4	@,,
	.pad #12
	sub	sp, sp, #12	@,,
	push	{lr}
	bl	__gnu_mcount_nc
	mov	r2, r0	@ ScdId, ScdId
	movw	r0, #:lower16:-121387004	@ tmp142,
	movt	r0, #:upper16:-121387004	@,
	str	r2, [fp, #-48]	@,
	bl	MEM_ReadPhyWord	@
	mov	r8, r0	@ D.53152,
	movw	r0, #:lower16:-121387000	@ tmp143,
	movt	r0, #:upper16:-121387000	@,
	bl	MEM_ReadPhyWord	@
	mov	r7, r0	@ D.53153,
	movw	r0, #:lower16:-121386996	@ tmp144,
	movt	r0, #:upper16:-121386996	@,
	bl	MEM_ReadPhyWord	@
	mov	r6, r0	@ D.53154,
	movw	r0, #:lower16:-121386992	@ tmp145,
	movt	r0, #:upper16:-121386992	@,
	bl	MEM_ReadPhyWord	@
	mov	r5, r0	@ D.53155,
	movw	r0, #:lower16:-121386988	@ tmp146,
	movt	r0, #:upper16:-121386988	@,
	bl	MEM_ReadPhyWord	@
	mov	r4, r0	@ D.53156,
	movw	r0, #:lower16:-121386984	@ tmp147,
	movt	r0, #:upper16:-121386984	@,
	bl	MEM_ReadPhyWord	@
	mov	sl, r0	@ D.53157,
	movw	r0, #:lower16:-121386976	@ tmp148,
	movt	r0, #:upper16:-121386976	@,
	bl	MEM_ReadPhyWord	@
	mov	r9, r0	@ D.53158,
	movw	r0, #:lower16:-121387008	@ tmp149,
	movt	r0, #:upper16:-121387008	@,
	bl	MEM_ReadPhyWord	@
	ldr	r2, [fp, #-48]	@,
	movw	r1, #:lower16:.LC97	@,
	movt	r1, #:upper16:.LC97	@,
	mov	ip, r0	@ D.53159,
	mov	r0, #24	@,
	str	ip, [fp, #-48]	@,
	bl	dprint_vfmw	@
	mov	r2, r8	@, D.53152
	mov	r0, #24	@,
	movw	r1, #:lower16:.LC98	@,
	movt	r1, #:upper16:.LC98	@,
	bl	dprint_vfmw	@
	mov	r2, r7	@, D.53153
	mov	r0, #24	@,
	movw	r1, #:lower16:.LC99	@,
	movt	r1, #:upper16:.LC99	@,
	bl	dprint_vfmw	@
	mov	r2, r6	@, D.53154
	mov	r0, #24	@,
	movw	r1, #:lower16:.LC100	@,
	movt	r1, #:upper16:.LC100	@,
	bl	dprint_vfmw	@
	mov	r2, r5	@, D.53155
	mov	r0, #24	@,
	movw	r1, #:lower16:.LC101	@,
	movt	r1, #:upper16:.LC101	@,
	bl	dprint_vfmw	@
	mov	r2, r4	@, D.53156
	mov	r0, #24	@,
	movw	r1, #:lower16:.LC102	@,
	movt	r1, #:upper16:.LC102	@,
	bl	dprint_vfmw	@
	mov	r2, sl	@, D.53157
	mov	r0, #24	@,
	movw	r1, #:lower16:.LC103	@,
	movt	r1, #:upper16:.LC103	@,
	bl	dprint_vfmw	@
	mov	r2, r9	@, D.53158
	mov	r0, #24	@,
	movw	r1, #:lower16:.LC104	@,
	movt	r1, #:upper16:.LC104	@,
	bl	dprint_vfmw	@
	ldr	r3, [fp, #-48]	@,
	movw	r1, #:lower16:.LC105	@,
	mov	r0, #24	@,
	movt	r1, #:upper16:.LC105	@,
	sxtb	r2, r3	@, D.53159
	bl	dprint_vfmw	@
	sub	sp, fp, #40
	ldmfd	sp, {r4, r5, r6, r7, r8, r9, sl, fp, sp, pc}
	.fnend
	.size	PrintScdVtrlReg, .-PrintScdVtrlReg
	.align	2
	.global	ReadScdStateReg
	.type	ReadScdStateReg, %function
ReadScdStateReg:
	.fnstart
.LFB1587:
	@ args = 0, pretend = 0, frame = 0
	@ frame_needed = 1, uses_anonymous_args = 0
	.movsp ip
	mov	ip, sp	@,
	stmfd	sp!, {r3, r4, r5, r6, fp, ip, lr, pc}	@,
	.pad #4
	.save {r3, r4, r5, r6, fp, ip, lr}
	.setfp fp, ip, #-4
	sub	fp, ip, #4	@,,
	push	{lr}
	bl	__gnu_mcount_nc
	mov	r4, r0	@ pSmStateReg, pSmStateReg
	movw	r0, #:lower16:-121386944	@ tmp141,
	movt	r0, #:upper16:-121386944	@,
	mov	r6, r1	@ ScdId, ScdId
	bl	MEM_ReadPhyWord	@
	movw	r5, #:lower16:-121386932	@ tmp154,
	movt	r5, #:upper16:-121386932	@ tmp154,
	and	ip, r0, #1	@ tmp142,,
	movw	r0, #:lower16:-121386940	@ tmp143,
	str	ip, [r4, #0]	@ tmp142, <variable>.Scdover
	movt	r0, #:upper16:-121386940	@,
	bl	MEM_ReadPhyWord	@
	and	r2, r0, #1	@ tmp144,,
	mov	r0, r5	@, tmp154
	str	r2, [r4, #4]	@ tmp144, <variable>.ScdInt
	bl	MEM_ReadPhyWord	@
	mov	r0, r0, lsr #22	@ tmp146,,
	str	r0, [r4, #8]	@ tmp146, <variable>.ShortScdNum
	mov	r0, r5	@, tmp154
	bl	MEM_ReadPhyWord	@
	bic	r1, r0, #-16777216	@ tmp149,,
	movw	r0, #:lower16:-121386928	@ tmp150,
	bic	r3, r1, #12582912	@ tmp149, tmp149,
	movt	r0, #:upper16:-121386928	@,
	str	r3, [r4, #12]	@ tmp149, <variable>.ScdNum
	bl	MEM_ReadPhyWord	@
	str	r0, [r4, #16]	@, <variable>.ScdRollAddr
	movw	r0, #:lower16:-121386924	@ tmp151,
	movt	r0, #:upper16:-121386924	@,
	bl	MEM_ReadPhyWord	@
	mov	r1, r6	@, ScdId
	str	r0, [r4, #20]	@, <variable>.SrcEaten
	mov	r0, r4	@, pSmStateReg
	bl	PrintScdStateReg	@
	ldmfd	sp, {r3, r4, r5, r6, fp, sp, pc}	@
	.fnend
	.size	ReadScdStateReg, .-ReadScdStateReg
	.align	2
	.global	GetNextVop
	.type	GetNextVop, %function
GetNextVop:
	.fnstart
.LFB1594:
	@ args = 4, pretend = 0, frame = 48
	@ frame_needed = 1, uses_anonymous_args = 0
	.movsp ip
	mov	ip, sp	@,
	stmfd	sp!, {r4, r5, r6, r7, r8, r9, sl, fp, ip, lr, pc}	@,
	.pad #4
	.save {r4, r5, r6, r7, r8, r9, sl, fp, ip, lr}
	.setfp fp, ip, #-4
	sub	fp, ip, #4	@,,
	.pad #52
	sub	sp, sp, #52	@,,
	push	{lr}
	bl	__gnu_mcount_nc
	mov	r6, r0	@ pScdInstance, pScdInstance
	movw	r0, #:lower16:-121386976	@,
	movt	r0, #:upper16:-121386976	@,
	mov	r4, r2	@ pStreamSegArray, pStreamSegArray
	mov	r7, r3	@ Seg_num, Seg_num
	mov	r8, r1	@ pUsedSeg, pUsedSeg
	mov	r1, #0	@ tmp157,
	str	r1, [fp, #-48]	@ tmp157, SegNum
	bl	MEM_ReadPhyWord	@
	ldr	r1, [fp, #4]	@, ScdId
	sub	r0, fp, #72	@,,
	bl	ReadScdStateReg	@
	ldr	r3, [fp, #-56]	@ SmStateReg.ScdRollAddr, SmStateReg.ScdRollAddr
	cmp	r3, #0	@ SmStateReg.ScdRollAddr,
	mvneq	r5, #6	@, Ret,
	movne	r5, #0	@, Ret,
	cmp	r4, #0	@ pStreamSegArray,
	beq	.L477	@,
	movw	lr, #:lower16:92172	@ tmp161,
	movw	ip, #:lower16:92168	@ tmp162,
	movt	lr, #:upper16:92172	@ tmp161,
	movt	ip, #:upper16:92168	@ tmp162,
	ldr	r2, [r4, lr]	@ <variable>.Tail, <variable>.Tail
	ldr	r0, [r4, ip]	@ <variable>.Head, <variable>.Head
	subs	r3, r2, r0	@ prephitmp.2185, <variable>.Tail, <variable>.Head
	addmi	r3, r3, #1152	@ prephitmp.2185, prephitmp.2185,
.L478:
	cmp	r5, #0	@ Ret,
	rsb	r3, r3, #1152	@, prephitmp.2185,
	str	r3, [fp, #-88]	@, %sfp
	str	r3, [fp, #-48]	@, SegNum
	bne	.L479	@,
	subs	r3, r7, #1	@ i, Seg_num,
	movmi	r5, r7	@ Ret, Seg_num
	bmi	.L479	@,
	movw	r1, #:lower16:204748	@ tmp170,
	movt	r1, #:upper16:204748	@ tmp170,
	movw	r2, #:lower16:92184	@ tmp171,
	tst	r3, #1	@ i,
	ldr	r0, [r6, r1]	@ pretmp.2176, <variable>.UpMsgStepNum
	movt	r2, #:upper16:92184	@ tmp171,
	ldr	r1, [r6, #20]	@ pretmp.2183, <variable>.SegFilter.ModeFlag
	movw	sl, #:lower16:-1241448448	@,
	str	r5, [fp, #-80]	@ Ret, %sfp
	movt	sl, #:upper16:-1241448448	@,
	mov	r7, r0, asl #2	@ pretmp.2204, pretmp.2176,
	ldr	r6, [r4, r2]	@ pretmp.2182, <variable>.SegBufPhyAddr
	movw	r5, #:lower16:-33488896	@ tmp191,
	str	sl, [fp, #-84]	@, %sfp
	movt	r5, #:upper16:-33488896	@ tmp191,
	ldr	r2, [r4, #0]	@ pretmp.2178, <variable>.pSegBufVirAddr
	mla	r0, r7, r3, r8	@ ivtmp.2200, pretmp.2204, i, pUsedSeg
	rsb	ip, r7, #0	@ D.55298, pretmp.2204
	bne	.L499	@,
.L487:
	ldr	r7, [r0, #0]	@ tmp174,* ivtmp.2200
	cmp	r1, #1	@ pretmp.2183,
	rsb	r8, r6, r7	@ tmp173, pretmp.2182, tmp174
	add	r4, r2, r8	@ VirAddr, pretmp.2178, tmp173
	ldrb	r7, [r2, r8]	@ zero_extendqisi2	@ tmp180,
	ldrb	lr, [r4, #2]	@ zero_extendqisi2	@ tmp177,
	ldrb	r8, [r4, #1]	@ zero_extendqisi2	@ tmp175,
	ldrb	r4, [r4, #3]	@ zero_extendqisi2	@ tmp182,
	mov	sl, lr, asl #16	@ tmp178, tmp177,
	add	lr, sl, r8, asl #8	@, tmp179, tmp178, tmp175,
	add	sl, lr, r7	@ tmp181, tmp179, tmp180
	add	r4, sl, r4, asl #24	@, start_code, tmp181, tmp182,
	beq	.L510	@,
	cmp	r1, #2	@ pretmp.2183,
	beq	.L511	@,
.L483:
	mov	r7, #0	@ flag,
.L484:
	cmp	r4, r5	@ start_code, tmp191
	beq	.L482	@,
	cmp	r7, #1	@ flag,
	beq	.L482	@,
.L485:
	subs	r4, r3, #1	@ i.2203, i,
	add	r9, r0, ip	@ ivtmp.2200, ivtmp.2200, D.55298
	bmi	.L486	@,
	ldr	r7, [r0, ip]	@ tmp198,* D.55298
	cmp	r1, #1	@ pretmp.2183,
	mov	r3, r4	@ i, i.2203
	rsb	r8, r6, r7	@ tmp199, pretmp.2182, tmp198
	add	r0, r2, r8	@ VirAddr, pretmp.2178, tmp199
	ldrb	lr, [r2, r8]	@ zero_extendqisi2	@ tmp206,
	ldrb	sl, [r0, #2]	@ zero_extendqisi2	@ tmp203,
	ldrb	r8, [r0, #1]	@ zero_extendqisi2	@ tmp201,
	ldrb	r0, [r0, #3]	@ zero_extendqisi2	@ tmp208,
	mov	sl, sl, asl #16	@ tmp204, tmp203,
	add	sl, sl, r8, asl #8	@, tmp205, tmp204, tmp201,
	add	sl, sl, lr	@ tmp207, tmp205, tmp206
	add	r0, sl, r0, asl #24	@, start_code, tmp207, tmp208,
	beq	.L512	@,
	cmp	r1, #2	@ pretmp.2183,
	beq	.L513	@,
.L497:
	cmp	r0, r5	@ start_code, tmp191
	mov	r7, #0	@ flag,
	beq	.L496	@,
.L516:
	cmp	r7, #1	@ flag,
	beq	.L496	@,
.L495:
	add	r0, r9, ip	@ ivtmp.2200, ivtmp.2200, D.55298
	sub	r3, r4, #1	@ i, i.2203,
	b	.L487	@
.L499:
	ldr	lr, [r0, #0]	@ tmp211,* ivtmp.2200
	cmp	r1, #1	@ pretmp.2183,
	rsb	r8, r6, lr	@ tmp212, pretmp.2182, tmp211
	add	sl, r2, r8	@ VirAddr, pretmp.2178, tmp212
	ldrb	r7, [sl, #2]	@ zero_extendqisi2	@ tmp216,
	ldrb	r8, [sl, #1]	@ zero_extendqisi2	@ tmp214,
	ldrb	lr, [sl, #3]	@ zero_extendqisi2	@ tmp221,
	mov	r7, r7, asl #16	@ tmp217, tmp216,
	ldrb	r4, [sl, #0]	@ zero_extendqisi2	@ tmp219,* VirAddr
	add	sl, r7, r8, asl #8	@, tmp218, tmp217, tmp214,
	add	r7, sl, r4	@ tmp220, tmp218, tmp219
	add	sl, r7, lr, asl #24	@, start_code, tmp220, tmp221,
	beq	.L514	@,
	cmp	r1, #2	@ pretmp.2183,
	beq	.L515	@,
.L492:
	mov	r4, #0	@ flag,
.L502:
	cmp	sl, r5	@ start_code, tmp191
	beq	.L491	@,
	cmp	r4, #1	@ flag,
	beq	.L491	@,
.L490:
	subs	r4, r3, #1	@ i.2203, i,
	add	r0, r0, ip	@ ivtmp.2200, ivtmp.2200, D.55298
	movpl	r3, r4	@ i, i.2203
	bpl	.L487	@,
.L486:
	mov	r5, r3	@ Ret, i
.L479:
	mov	r0, r5	@, Ret
	sub	sp, fp, #40
	ldmfd	sp, {r4, r5, r6, r7, r8, r9, sl, fp, sp, pc}
.L510:
	ldr	r7, [fp, #-84]	@, %sfp
	cmp	r4, r7	@ start_code,
	bne	.L483	@,
.L482:
	ldr	r4, [fp, #-80]	@, %sfp
	add	r4, r4, #1	@,,
	str	r4, [fp, #-80]	@, %sfp
	cmp	r4, #0	@,
	ble	.L485	@,
	ldr	r7, [fp, #-88]	@, %sfp
	cmp	r7, r3	@, i
	bcc	.L485	@,
	mov	r5, r3	@ Ret, i
	b	.L479	@
.L511:
	ubfx	r7, r4, #16, #8	@ tmp186, start_code,,
	sub	lr, r7, #128	@ tmp187, tmp186,
	cmp	lr, #3	@ tmp187,
	movhi	r7, #0	@, flag
	movls	r7, #1	@, flag
	b	.L484	@
.L513:
	ubfx	lr, r0, #16, #8	@ tmp234, start_code,,
	sub	r7, lr, #128	@ tmp235, tmp234,
	cmp	r7, #3	@ tmp235,
	movhi	r7, #0	@, flag
	movls	r7, #1	@, flag
	cmp	r0, r5	@ start_code, tmp191
	bne	.L516	@,
.L496:
	ldr	r0, [fp, #-80]	@, %sfp
	add	r7, r0, #1	@,,
	str	r7, [fp, #-80]	@, %sfp
	cmp	r7, #0	@,
	ble	.L495	@,
	ldr	lr, [fp, #-88]	@, %sfp
	cmp	lr, r4	@, i.2203
	bcc	.L495	@,
	mov	r5, r3	@ Ret, i
	b	.L479	@
.L512:
	ldr	r7, [fp, #-84]	@, %sfp
	cmp	r0, r7	@ start_code,
	bne	.L497	@,
	b	.L496	@
.L514:
	ldr	r4, [fp, #-84]	@, %sfp
	cmp	sl, r4	@ start_code,
	bne	.L492	@,
.L491:
	ldr	r4, [fp, #-88]	@, %sfp
	mov	r7, #1	@,
	str	r7, [fp, #-80]	@, %sfp
	cmp	r4, r3	@, i
	bcc	.L490	@,
	mov	r5, r3	@ Ret, i
	b	.L479	@
.L515:
	ubfx	lr, sl, #16, #8	@ tmp227, start_code,,
	sub	r4, lr, #128	@ tmp228, tmp227,
	cmp	r4, #3	@ tmp228,
	movhi	r4, #0	@, flag
	movls	r4, #1	@, flag
	b	.L502	@
.L477:
	movw	r3, #3560	@,
	mov	r0, #22	@,
	movw	r1, #:lower16:.LC106	@,
	ldr	r2, .L517	@,
	movt	r1, #:upper16:.LC106	@,
	bl	dprint_vfmw	@
	ldr	r3, [fp, #-48]	@ prephitmp.2185, SegNum
	b	.L478	@
.L518:
	.align	2
.L517:
	.word	.LANCHOR1+140
	.fnend
	.size	GetNextVop, .-GetNextVop
	.align	2
	.global	WaitSCDFinish
	.type	WaitSCDFinish, %function
WaitSCDFinish:
	.fnstart
.LFB1615:
	@ args = 0, pretend = 0, frame = 0
	@ frame_needed = 1, uses_anonymous_args = 0
	.movsp ip
	mov	ip, sp	@,
	stmfd	sp!, {r4, r5, r6, fp, ip, lr, pc}	@,
	.pad #4
	.save {r4, r5, r6, fp, ip, lr}
	.setfp fp, ip, #-4
	sub	fp, ip, #4	@,,
	.pad #12
	sub	sp, sp, #12	@,,
	push	{lr}
	bl	__gnu_mcount_nc
	add	r0, r0, r0, asl #1	@, tmp145, ScdId, ScdId,
	movw	r2, #:lower16:.LANCHOR0	@ tmp141,
	movt	r2, #:upper16:.LANCHOR0	@ tmp141,
	add	r1, r2, r0, asl #5	@, tmp147, tmp141, tmp145,
	ldr	r3, [r1, #856]	@ <variable>.SCDState, <variable>.SCDState
	cmp	r3, #1	@ <variable>.SCDState,
	beq	.L536	@,
.L520:
	mov	r0, #0	@ D.53138,
.L524:
	sub	sp, fp, #24
	ldmfd	sp, {r4, r5, r6, fp, sp, pc}
.L536:
	bl	OSAL_GetTimeInMs	@
	movw	r6, #:lower16:500000	@ tmp158,
	mov	r5, #0	@ i,
	movt	r6, #:upper16:500000	@ tmp158,
	mov	r4, r0	@ t_start,
	b	.L525	@
.L538:
	bl	OSAL_GetTimeInMs	@
	cmp	r4, r0	@ t_start, t_now
	rsbhi	ip, r0, r4	@ tmp152, t_now, t_start
	rsbls	ip, r4, r0	@ t_wait, t_start, t_now
	mvnhi	ip, ip	@ t_wait, tmp152
	cmp	ip, #1000	@ t_wait,
	bhi	.L534	@,
	movw	r0, #:lower16:-121386944	@,
	movt	r0, #:upper16:-121386944	@,
	bl	MEM_ReadPhyWord	@
	add	r5, r5, #1	@ tmp159, i,
	tst	r0, #1	@,
	bne	.L520	@,
	bl	OSAL_GetTimeInMs	@
	cmp	r4, r0	@ t_start, t_now
	rsbhi	ip, r0, r4	@ tmp164, t_now, t_start
	rsbls	ip, r4, r0	@ t_wait, t_start, t_now
	mvnhi	ip, ip	@ t_wait, tmp164
	cmp	ip, #1000	@ t_wait,
	bhi	.L534	@,
	add	r5, r5, #1	@ i, tmp159,
	cmp	r5, r6	@ i, tmp158
	beq	.L537	@,
.L525:
	movw	r0, #:lower16:-121386944	@,
	movt	r0, #:upper16:-121386944	@,
	bl	MEM_ReadPhyWord	@
	tst	r0, #1	@,
	beq	.L538	@,
	b	.L520	@
.L534:
	mov	r3, r0	@, t_now
	mov	r2, r4	@, t_start
	mov	r0, #0	@,
	movw	r1, #:lower16:.LC107	@,
	movt	r1, #:upper16:.LC107	@,
	str	ip, [sp, #0]	@ t_wait,
	bl	dprint_vfmw	@
	mvn	r0, #6	@ D.53138,
	b	.L524	@
.L537:
	mvn	r0, #6	@ D.53138,
	b	.L524	@
	.fnend
	.size	WaitSCDFinish, .-WaitSCDFinish
	.align	2
	.global	CalcInstBlockTime
	.type	CalcInstBlockTime, %function
CalcInstBlockTime:
	.fnstart
.LFB1581:
	@ args = 0, pretend = 0, frame = 0
	@ frame_needed = 1, uses_anonymous_args = 0
	.movsp ip
	mov	ip, sp	@,
	stmfd	sp!, {r4, r5, fp, ip, lr, pc}	@,
	.pad #4
	.save {r4, r5, fp, ip, lr}
	.setfp fp, ip, #-4
	sub	fp, ip, #4	@,,
	push	{lr}
	bl	__gnu_mcount_nc
	add	r0, r0, r0, asl #1	@, tmp145, SmID, SmID,
	movw	r2, #:lower16:.LANCHOR0	@ tmp141,
	movt	r2, #:upper16:.LANCHOR0	@ tmp141,
	add	r3, r2, r0, asl #4	@, tmp147, tmp141, tmp145,
	mov	r5, r1	@ FirstCalc, FirstCalc
	ldr	r4, [r3, #40]	@ pSmInstArray, <variable>.pSmInstArray
	cmp	r4, #0	@ pSmInstArray,
	moveq	r0, r4	@ prephitmp.2249, pSmInstArray
	ldmeqfd	sp, {r4, r5, fp, sp, pc}	@
	bl	OSAL_GetTimeInMs	@
	cmp	r5, #0	@ FirstCalc,
	mov	r3, r0	@ CurTime,
	beq	.L542	@,
	movw	r1, #:lower16:204700	@ tmp149,
	movw	ip, #:lower16:204704	@ tmp151,
	movt	r1, #:upper16:204700	@ tmp149,
	movt	ip, #:upper16:204704	@ tmp151,
	mov	r0, #0	@ tmp150,
	str	r0, [r4, r1]	@ tmp150, <variable>.BlockTimeInMs
	str	r3, [r4, ip]	@ CurTime,
	ldmfd	sp, {r4, r5, fp, sp, pc}	@
.L542:
	movw	r2, #:lower16:204704	@ tmp152,
	movt	r2, #:upper16:204704	@ tmp152,
	ldr	r1, [r4, r2]	@ D.51147, <variable>.LastBlockTime
	cmp	r0, r1	@ CurTime, D.51147
	bls	.L543	@,
	rsb	r3, r1, r0	@ D.51150, D.51147, CurTime
	movw	lr, #:lower16:204700	@ tmp153,
	movt	lr, #:upper16:204700	@ tmp153,
	mov	r0, r3	@ prephitmp.2249, D.51150
	str	r3, [r4, lr]	@ D.51150,
	ldmfd	sp, {r4, r5, fp, sp, pc}	@
.L543:
	movw	ip, #:lower16:204700	@ tmp154,
	movt	ip, #:upper16:204700	@ tmp154,
	mov	r0, r5	@ prephitmp.2249, FirstCalc
	str	r3, [r4, r2]	@ CurTime, <variable>.LastBlockTime
	str	r5, [r4, ip]	@ FirstCalc, <variable>.BlockTimeInMs
	ldmfd	sp, {r4, r5, fp, sp, pc}	@
	.fnend
	.size	CalcInstBlockTime, .-CalcInstBlockTime
	.align	2
	.global	WriteScdVtrlReg
	.type	WriteScdVtrlReg, %function
WriteScdVtrlReg:
	.fnstart
.LFB1584:
	@ args = 0, pretend = 0, frame = 0
	@ frame_needed = 1, uses_anonymous_args = 0
	.movsp ip
	mov	ip, sp	@,
	stmfd	sp!, {r3, r4, r5, r6, fp, ip, lr, pc}	@,
	.pad #4
	.save {r3, r4, r5, r6, fp, ip, lr}
	.setfp fp, ip, #-4
	sub	fp, ip, #4	@,,
	push	{lr}
	bl	__gnu_mcount_nc
	movw	r4, #:lower16:.LANCHOR0	@ tmp220,
	movt	r4, #:upper16:.LANCHOR0	@ tmp220,
	mov	r5, r0	@ pSmCtrlReg, pSmCtrlReg
	mov	r6, r1	@ ScdId, ScdId
	ldr	r1, [r0, #4]	@, <variable>.DownMsgPhyAddr
	ldr	r3, [r4, #868]	@ s_RegPhyBaseAddr, s_RegPhyBaseAddr
	add	lr, r3, #2048	@, s_RegPhyBaseAddr,
	add	r0, lr, #4	@,,
	bl	MEM_WritePhyWord	@
	ldr	r2, [r4, #868]	@ s_RegPhyBaseAddr, s_RegPhyBaseAddr
	ldr	r1, [r5, #12]	@, <variable>.UpMsgPhyAddr
	add	ip, r2, #2048	@, s_RegPhyBaseAddr,
	add	r0, ip, #8	@,,
	bl	MEM_WritePhyWord	@
	ldr	r0, [r4, #868]	@ s_RegPhyBaseAddr, s_RegPhyBaseAddr
	ldr	r1, [r5, #20]	@, <variable>.UpLen
	add	r3, r0, #2048	@, s_RegPhyBaseAddr,
	add	r0, r3, #12	@,,
	bl	MEM_WritePhyWord	@
	ldr	r2, [r4, #868]	@ s_RegPhyBaseAddr, s_RegPhyBaseAddr
	ldr	r1, [r5, #24]	@, <variable>.BufferFirst
	add	r0, r2, #2064	@, s_RegPhyBaseAddr,
	bl	MEM_WritePhyWord	@
	ldr	ip, [r4, #868]	@ s_RegPhyBaseAddr, s_RegPhyBaseAddr
	ldr	r1, [r5, #28]	@, <variable>.BufferLast
	add	r0, ip, #2064	@, s_RegPhyBaseAddr,
	add	r0, r0, #4	@,,
	bl	MEM_WritePhyWord	@
	ldr	r3, [r4, #868]	@ s_RegPhyBaseAddr, s_RegPhyBaseAddr
	ldr	r1, [r5, #32]	@, <variable>.BufferIni
	add	r2, r3, #2064	@, s_RegPhyBaseAddr,
	add	r0, r2, #8	@,,
	bl	MEM_WritePhyWord	@
	ldrsb	r0, [r5, #1]	@ <variable>.SliceCheckFlag, <variable>.SliceCheckFlag
	ldr	ip, [r5, #36]	@ <variable>.ScdProtocol, <variable>.ScdProtocol
	ldr	r2, [r5, #104]	@ <variable>.ScdLowdlyEnable, <variable>.ScdLowdlyEnable
	mov	r3, r0, asl #4	@ tmp173, <variable>.SliceCheckFlag,
	and	r1, ip, #15	@ tmp167, <variable>.ScdProtocol,
	ldr	r0, [r4, #868]	@ s_RegPhyBaseAddr, s_RegPhyBaseAddr
	and	ip, r3, #16	@ tmp174, tmp173,
	orr	r1, r1, r2, asl #8	@, tmp171, tmp167, <variable>.ScdLowdlyEnable,
	orr	r1, r1, ip	@, tmp171, tmp174
	add	r0, r0, #2080	@, s_RegPhyBaseAddr,
	bl	MEM_WritePhyWord	@
	ldr	r3, [r5, #104]	@ <variable>.ScdLowdlyEnable, <variable>.ScdLowdlyEnable
	cmp	r3, #0	@ <variable>.ScdLowdlyEnable,
	beq	.L546	@,
	ldr	r0, [r4, #868]	@, s_RegPhyBaseAddr
	ldr	r1, [r5, #108]	@, <variable>.reg_avs_flag
	bl	MEM_WritePhyWord	@
.L546:
	ldr	r2, [r4, #868]	@ s_RegPhyBaseAddr, s_RegPhyBaseAddr
	ldr	r1, [r5, #44]	@, <variable>.DspSpsMsgMemAddr
	add	lr, r2, #2080	@, s_RegPhyBaseAddr,
	add	r0, lr, #8	@,,
	bl	MEM_WritePhyWord	@
	ldr	ip, [r4, #868]	@ s_RegPhyBaseAddr, s_RegPhyBaseAddr
	ldr	r1, [r5, #56]	@, <variable>.DspPpsMsgMemAddr
	add	r0, ip, #2080	@, s_RegPhyBaseAddr,
	add	r0, r0, #12	@,,
	bl	MEM_WritePhyWord	@
	ldr	r3, [r4, #868]	@ s_RegPhyBaseAddr, s_RegPhyBaseAddr
	ldr	r1, [r5, #68]	@, <variable>.DvmMemAddr
	add	r0, r3, #2096	@, s_RegPhyBaseAddr,
	bl	MEM_WritePhyWord	@
	ldr	r2, [r4, #868]	@ s_RegPhyBaseAddr, s_RegPhyBaseAddr
	ldr	r1, [r5, #80]	@, <variable>.DspSedTopMemAddr
	add	ip, r2, #2096	@, s_RegPhyBaseAddr,
	add	r0, ip, #4	@,,
	bl	MEM_WritePhyWord	@
	add	r0, r6, r6, asl #1	@, tmp207, ScdId, ScdId,
	ldr	r1, [r4, #868]	@ s_RegPhyBaseAddr, s_RegPhyBaseAddr
	add	r3, r4, r0, asl #5	@, tmp209, tmp220, tmp207,
	add	r2, r1, #2096	@, s_RegPhyBaseAddr,
	add	r0, r2, #8	@,,
	ldr	r1, [r3, #828]	@, <variable>.ScdDrvMem.DspCaMnMemAddr
	bl	MEM_WritePhyWord	@
	mov	r0, r6	@, ScdId
	bl	PrintScdVtrlReg	@
	ldr	ip, [r4, #868]	@ s_RegPhyBaseAddr, s_RegPhyBaseAddr
	mov	r1, #0	@,
	add	r0, ip, #2048	@, s_RegPhyBaseAddr,
	bl	MEM_WritePhyWord	@
	ldr	r0, [r4, #868]	@ s_RegPhyBaseAddr, s_RegPhyBaseAddr
	ldrb	r1, [r5, #2]	@ zero_extendqisi2	@ <variable>.ScdStart, <variable>.ScdStart
	add	r0, r0, #2048	@, s_RegPhyBaseAddr,
	and	r1, r1, #1	@, <variable>.ScdStart,
	bl	MEM_WritePhyWord	@
	ldmfd	sp, {r3, r4, r5, r6, fp, sp, pc}	@
	.fnend
	.size	WriteScdVtrlReg, .-WriteScdVtrlReg
	.align	2
	.global	SCDDRV_EnableInt
	.type	SCDDRV_EnableInt, %function
SCDDRV_EnableInt:
	.fnstart
.LFB1533:
	@ args = 0, pretend = 0, frame = 0
	@ frame_needed = 1, uses_anonymous_args = 0
	.movsp ip
	mov	ip, sp	@,
	stmfd	sp!, {fp, ip, lr, pc}	@,
	.pad #4
	.save {fp, ip, lr}
	.setfp fp, ip, #-4
	sub	fp, ip, #4	@,,
	push	{lr}
	bl	__gnu_mcount_nc
	movw	r3, #:lower16:.LANCHOR0	@ tmp134,
	movt	r3, #:upper16:.LANCHOR0	@ tmp134,
	mov	r1, #0	@,
	ldr	r2, [r3, #868]	@ s_RegPhyBaseAddr, s_RegPhyBaseAddr
	add	r0, r2, #2064	@, s_RegPhyBaseAddr,
	add	r0, r0, #12	@,,
	bl	MEM_WritePhyWord	@
	ldmfd	sp, {fp, sp, pc}	@
	.fnend
	.size	SCDDRV_EnableInt, .-SCDDRV_EnableInt
	.align	2
	.global	SCDDRV_MaskInt
	.type	SCDDRV_MaskInt, %function
SCDDRV_MaskInt:
	.fnstart
.LFB1532:
	@ args = 0, pretend = 0, frame = 0
	@ frame_needed = 1, uses_anonymous_args = 0
	.movsp ip
	mov	ip, sp	@,
	stmfd	sp!, {fp, ip, lr, pc}	@,
	.pad #4
	.save {fp, ip, lr}
	.setfp fp, ip, #-4
	sub	fp, ip, #4	@,,
	push	{lr}
	bl	__gnu_mcount_nc
	movw	r3, #:lower16:.LANCHOR0	@ tmp134,
	movt	r3, #:upper16:.LANCHOR0	@ tmp134,
	mov	r1, #1	@,
	ldr	r2, [r3, #868]	@ s_RegPhyBaseAddr, s_RegPhyBaseAddr
	add	r0, r2, #2064	@, s_RegPhyBaseAddr,
	add	r0, r0, #12	@,,
	bl	MEM_WritePhyWord	@
	ldmfd	sp, {fp, sp, pc}	@
	.fnend
	.size	SCDDRV_MaskInt, .-SCDDRV_MaskInt
	.align	2
	.global	ResetSCD
	.type	ResetSCD, %function
ResetSCD:
	.fnstart
.LFB1531:
	@ args = 0, pretend = 0, frame = 8
	@ frame_needed = 1, uses_anonymous_args = 0
	.movsp ip
	mov	ip, sp	@,
	stmfd	sp!, {r4, r5, r6, fp, ip, lr, pc}	@,
	.pad #4
	.save {r4, r5, r6, fp, ip, lr}
	.setfp fp, ip, #-4
	sub	fp, ip, #4	@,,
	.pad #12
	sub	sp, sp, #12	@,,
	push	{lr}
	bl	__gnu_mcount_nc
	movw	r0, #:lower16:-121386980	@,
	movt	r0, #:upper16:-121386980	@,
	movw	r4, #:lower16:g_pstRegCrg	@ tmp162,
	bl	MEM_ReadPhyWord	@
	movt	r4, #:upper16:g_pstRegCrg	@ tmp162,
	mov	r3, #0	@ i,
	movw	ip, #10000	@ tmp163,
	ldr	r2, [r4, #0]	@ g_pstRegCrg.449, g_pstRegCrg
	ldr	r5, [r2, #120]	@ u32TmpValue, <variable>.PERI_CRG30.u32
	orr	r5, r5, #32	@ u32TmpValue, u32TmpValue,
	str	r5, [r2, #120]	@ u32TmpValue, <variable>.PERI_CRG30.u32
	ldr	r1, [r4, #0]	@ prephitmp.2358, g_pstRegCrg
	mov	r6, r0	@ D.49629,
	b	.L554	@
.L562:
	ldr	r2, [r1, #372]	@ D.49633, <variable>.PERI_CRG93.u32
	and	lr, r2, #2	@ tmp170, D.49633,
	str	r2, [fp, #-32]	@ D.49633, u32TmpValue_93.u32
	uxtb	r0, lr	@ tmp171, tmp170
	cmp	r0, #0	@ tmp171,
	bne	.L553	@,
	cmp	r3, ip	@ i, tmp163
	beq	.L561	@,
.L554:
	ldr	r0, [r1, #372]	@ D.49633, <variable>.PERI_CRG93.u32
	add	r3, r3, #1	@ tmp164, i,
	add	r3, r3, #1	@ i, tmp164,
	tst	r0, #2	@ D.49633,
	str	r0, [fp, #-32]	@ D.49633, u32TmpValue_93.u32
	beq	.L562	@,
.L553:
	movw	r3, #:lower16:.LANCHOR0	@ tmp154,
	movt	r3, #:upper16:.LANCHOR0	@ tmp154,
	bfc	r5, #5, #1	@ u32TmpValue,,
	str	r5, [r1, #120]	@ u32TmpValue, <variable>.PERI_CRG30.u32
	ldr	r0, [r3, #868]	@ s_RegPhyBaseAddr, s_RegPhyBaseAddr
	and	r1, r6, #1	@, D.49629,
	add	ip, r0, #2064	@, s_RegPhyBaseAddr,
	add	r0, ip, #12	@,,
	bl	MEM_WritePhyWord	@
	mov	r0, #1	@,
	sub	sp, fp, #24
	ldmfd	sp, {r4, r5, r6, fp, sp, pc}
.L561:
	movw	r1, #:lower16:.LC108	@,
	movt	r1, #:upper16:.LC108	@,
	bl	dprint_vfmw	@
	ldr	r1, [r4, #0]	@ prephitmp.2358, g_pstRegCrg
	b	.L553	@
	.fnend
	.size	ResetSCD, .-ResetSCD
	.align	2
	.global	SCDDRV_CheckDevice
	.type	SCDDRV_CheckDevice, %function
SCDDRV_CheckDevice:
	.fnstart
.LFB1610:
	@ args = 0, pretend = 0, frame = 0
	@ frame_needed = 1, uses_anonymous_args = 0
	.movsp ip
	mov	ip, sp	@,
	stmfd	sp!, {r4, r5, r6, fp, ip, lr, pc}	@,
	.pad #4
	.save {r4, r5, r6, fp, ip, lr}
	.setfp fp, ip, #-4
	sub	fp, ip, #4	@,,
	.pad #12
	sub	sp, sp, #12	@,,
	push	{lr}
	bl	__gnu_mcount_nc
	subs	r5, r0, #0	@ ScdId, ScdId
	mvnne	r0, #0	@ D.53029,
	beq	.L570	@,
.L565:
	sub	sp, fp, #24
	ldmfd	sp, {r4, r5, r6, fp, sp, pc}
.L570:
	movw	r4, #:lower16:.LANCHOR0	@ tmp144,
	movt	r4, #:upper16:.LANCHOR0	@ tmp144,
	mov	r0, #26	@,
	movw	r1, #:lower16:.LC109	@,
	ldr	ip, [r4, #856]	@ <variable>.SCDState, <variable>.SCDState
	movt	r1, #:upper16:.LC109	@,
	ldr	r2, .L572	@,
	movw	r3, #5624	@,
	stmia	sp, {r5, ip}	@ phole stm
	bl	dprint_vfmw	@
	ldr	r6, [r4, #856]	@ temp.2399, <variable>.SCDState
	cmp	r6, #0	@ temp.2399,
	beq	.L571	@,
	movw	r3, #5633	@,
	ldr	r2, .L572	@,
	mov	r0, #26	@,
	movw	r1, #:lower16:.LC109	@,
	movt	r1, #:upper16:.LC109	@,
	stmia	sp, {r5, r6}	@ phole stm
	bl	dprint_vfmw	@
	bl	OSAL_GetTimeInMs	@
	ldr	r3, [r4, #860]	@ D.53038, <variable>.LastProcessTime
	cmp	r0, r3	@ CurTime, D.53038
	strcc	r0, [r4, #860]	@ CurTime, <variable>.LastProcessTime
	bcc	.L568	@,
	rsb	r3, r3, r0	@ DelayTime, D.53038, CurTime
	cmp	r3, #2000	@ DelayTime,
	bls	.L568	@,
	mov	r2, r5	@, ScdId
	mov	r0, #1	@,
	movw	r1, #:lower16:.LC111	@,
	movt	r1, #:upper16:.LC111	@,
	bl	dprint_vfmw	@
	mov	r0, r5	@, ScdId
	bl	ResetSCD	@
	ldr	r0, [r4, #852]	@, <variable>.ThisInstID
	str	r5, [r4, #856]	@ ScdId, <variable>.SCDState
	bl	DeleteLastSendRaw	@
	mov	r0, r5	@ D.53029, ScdId
	b	.L565	@
.L568:
	mov	r0, #26	@,
	movw	r1, #:lower16:.LC112	@,
	ldr	r2, .L572	@,
	movt	r1, #:upper16:.LC112	@,
	movw	r3, #5665	@,
	mov	lr, #0	@ tmp164,
	str	lr, [sp, #0]	@ tmp164,
	bl	dprint_vfmw	@
	mov	r0, #1	@ D.53029,
	b	.L565	@
.L571:
	mov	r0, #26	@,
	movw	r1, #:lower16:.LC110	@,
	ldr	r2, .L572	@,
	movt	r1, #:upper16:.LC110	@,
	movw	r3, #5627	@,
	str	r6, [sp, #0]	@ temp.2399,
	bl	dprint_vfmw	@
	mov	r0, r6	@ D.53029, temp.2399
	b	.L565	@
.L573:
	.align	2
.L572:
	.word	.LANCHOR1+152
	.fnend
	.size	SCDDRV_CheckDevice, .-SCDDRV_CheckDevice
	.align	2
	.global	FillEosRawStream
	.type	FillEosRawStream, %function
FillEosRawStream:
	.fnstart
.LFB1601:
	@ args = 0, pretend = 0, frame = 104
	@ frame_needed = 1, uses_anonymous_args = 0
	.movsp ip
	mov	ip, sp	@,
	stmfd	sp!, {r4, r5, r6, fp, ip, lr, pc}	@,
	.pad #4
	.save {r4, r5, r6, fp, ip, lr}
	.setfp fp, ip, #-4
	sub	fp, ip, #4	@,,
	.pad #116
	sub	sp, sp, #116	@,,
	push	{lr}
	bl	__gnu_mcount_nc
	add	r0, r0, r0, asl #1	@, tmp146, InstID, InstID,
	movw	r2, #:lower16:.LANCHOR0	@ tmp142,
	sub	r5, fp, #128	@ tmp177,,
	movt	r2, #:upper16:.LANCHOR0	@ tmp142,
	mov	r4, r1	@ pRawPacket, pRawPacket
	add	r3, r2, r0, asl #4	@, tmp148, tmp142, tmp146,
	ldr	r1, .L593	@,
	mov	r0, r5	@, tmp177
	mov	r2, #100	@,
	ldr	r6, [r3, #40]	@ pSmInstArray, <variable>.pSmInstArray
	bl	memcpy	@
	cmp	r4, #0	@ pRawPacket,
	beq	.L591	@,
	ldr	r3, [r6, #56]	@ D.52324, <variable>.Config.VidStd
	cmp	r3, #16	@ D.52324,
	ldrls	pc, [pc, r3, asl #2]	@ D.52324
	b	.L577	@
.L586:
	.word	.L584
	.word	.L579
	.word	.L580
	.word	.L581
	.word	.L582
	.word	.L582
	.word	.L590
	.word	.L577
	.word	.L582
	.word	.L582
	.word	.L582
	.word	.L582
	.word	.L582
	.word	.L582
	.word	.L582
	.word	.L584
	.word	.L585
.L579:
	ldr	r1, [r6, #72]	@ <variable>.Config.StdExt.Vc1Ext.IsAdvProfile, <variable>.Config.StdExt.Vc1Ext.IsAdvProfile
	cmp	r1, #1	@ <variable>.Config.StdExt.Vc1Ext.IsAdvProfile,
	beq	.L590	@,
.L582:
	mov	r0, #0	@ D.52323,
.L576:
	sub	sp, fp, #24
	ldmfd	sp, {r4, r5, r6, fp, sp, pc}
.L584:
	mov	r1, r5	@ pu8Flag, tmp177
	mov	r6, #15	@ u32FlagLen,
.L587:
	ldr	ip, [r4, #8]	@ D.52329, <variable>.Length
	cmp	r6, ip	@ u32FlagLen, D.52329
	bhi	.L592	@,
	ldr	r0, [r4, #4]	@, <variable>.VirAddr
	mov	r2, r6	@, u32FlagLen
	bl	memcpy	@
	str	r6, [r4, #8]	@ u32FlagLen, <variable>.Length
	mov	r0, #0	@ D.52323,
	b	.L576	@
.L590:
	add	r1, r5, #20	@ pu8Flag, tmp177,
	mov	r6, #15	@ u32FlagLen,
	b	.L587	@
.L577:
	mov	r0, #0	@,
	movw	r1, #:lower16:.LC114	@,
	ldr	r2, .L593+4	@,
	movt	r1, #:upper16:.LC114	@,
	bl	dprint_vfmw	@
	mvn	r0, #6	@ D.52323,
	b	.L576	@
.L585:
	add	r1, r5, #80	@ pu8Flag, tmp177,
	mov	r6, #16	@ u32FlagLen,
	b	.L587	@
.L580:
	add	r1, r5, #40	@ pu8Flag, tmp177,
	mov	r6, #19	@ u32FlagLen,
	b	.L587	@
.L581:
	add	r1, r5, #60	@ pu8Flag, tmp177,
	mov	r6, #16	@ u32FlagLen,
	b	.L587	@
.L592:
	mov	r3, r6	@, u32FlagLen
	mov	r0, #0	@,
	movw	r1, #:lower16:.LC115	@,
	ldr	r2, .L593+4	@,
	movt	r1, #:upper16:.LC115	@,
	str	ip, [sp, #0]	@ D.52329,
	bl	dprint_vfmw	@
	mvn	r0, #6	@ D.52323,
	b	.L576	@
.L591:
	mov	r0, r4	@, pRawPacket
	movw	r1, #:lower16:.LC113	@,
	ldr	r2, .L593+4	@,
	movt	r1, #:upper16:.LC113	@,
	bl	dprint_vfmw	@
	mvn	r0, #6	@ D.52323,
	b	.L576	@
.L594:
	.align	2
.L593:
	.word	.LANCHOR1+172
	.word	.LANCHOR1+272
	.fnend
	.size	FillEosRawStream, .-FillEosRawStream
	.align	2
	.global	GetStreamSeg
	.type	GetStreamSeg, %function
GetStreamSeg:
	.fnstart
.LFB1554:
	@ args = 0, pretend = 0, frame = 0
	@ frame_needed = 1, uses_anonymous_args = 0
	.movsp ip
	mov	ip, sp	@,
	stmfd	sp!, {r4, r5, r6, r7, fp, ip, lr, pc}	@,
	.pad #4
	.save {r4, r5, r6, r7, fp, ip, lr}
	.setfp fp, ip, #-4
	sub	fp, ip, #4	@,,
	.pad #8
	sub	sp, sp, #8	@,,
	push	{lr}
	bl	__gnu_mcount_nc
	cmp	r0, #0	@ pStreamSegArray,
	cmpne	r1, #0	@, pStreamSeg,
	mov	r4, r0	@ pStreamSegArray, pStreamSegArray
	mvneq	r0, #0	@ Ret,
	beq	.L597	@,
	movw	r2, #:lower16:92168	@ tmp151,
	movw	r3, #:lower16:92172	@ tmp152,
	movt	r2, #:upper16:92168	@ tmp151,
	movt	r3, #:upper16:92172	@ tmp152,
	ldr	r6, [r4, r2]	@ i, <variable>.Head
	ldr	ip, [r4, r3]	@ D.50160, <variable>.Tail
	cmp	r6, ip	@ i, D.50160
	beq	.L598	@,
	mov	r3, r6, asl #2	@ tmp238, i,
	add	r2, r3, r6	@ tmp155, tmp238, i
	add	r2, r4, r2, asl #4	@, tmp159, pStreamSegArray, tmp155,
	ldrsb	r2, [r2, #12]	@ <variable>.SegState, <variable>.SegState
	cmp	r2, #1	@ <variable>.SegState,
	movwne	r0, #:lower16:954437177	@ tmp239,
	movtne	r0, #:upper16:954437177	@ tmp239,
	bne	.L603	@,
	b	.L599	@
.L601:
	add	r2, r4, r2, asl #4	@, tmp169, pStreamSegArray, tmp165,
	ldrsb	r2, [r2, #12]	@ <variable>.SegState, <variable>.SegState
	cmp	r2, #1	@ <variable>.SegState,
	beq	.L599	@,
.L603:
	add	r6, r6, #1	@ D.50169, i,
	smull	r3, r2, r0, r6	@, tmp228, tmp239, D.50169
	mov	r3, r6, asr #31	@ tmp231, D.50169,
	rsb	r3, r3, r2, asr #8	@, i, tmp231, tmp228,
	add	r2, r3, r3, asl #3	@, tmp234, i, i,
	sub	r6, r6, r2, asl #7	@ i, D.50169, tmp234,
	cmp	r6, ip	@ i, D.50160
	mov	r3, r6, asl #2	@ tmp238, i,
	add	r2, r3, r6	@ tmp165, tmp238, i
	bne	.L601	@,
.L598:
	mvn	r0, #2	@ Ret,
.L597:
	sub	sp, fp, #28
	ldmfd	sp, {r4, r5, r6, r7, fp, sp, pc}
.L599:
	add	r6, r3, r6	@ tmp175, tmp238, i
	mov	r0, r1	@, pStreamSeg
	mov	r2, #80	@,
	add	r5, r4, r6, asl #4	@, tmp178, pStreamSegArray, tmp175,
	add	r6, r6, #1	@ tmp198, tmp175,
	add	r5, r5, #8	@ tmp179, tmp178,
	mov	r1, r5	@, tmp179
	bl	memcpy	@
	movw	ip, #:lower16:92204	@ tmp203,
	add	r3, r4, r6, asl #4	@, tmp201, pStreamSegArray, tmp198,
	movt	ip, #:upper16:92204	@ tmp203,
	movw	r2, #:lower16:92208	@ tmp206,
	movt	r2, #:upper16:92208	@ tmp206,
	ldr	r3, [r3, #4]	@ D.50173, <variable>.LenInByte
	mov	r1, #2	@ tmp193,
	strb	r1, [r5, #4]	@ tmp193, <variable>.SegState
	mov	r0, #26	@,
	ldr	r7, [r4, ip]	@ <variable>.SegFreshSize, <variable>.SegFreshSize
	movw	r1, #:lower16:.LC116	@,
	ldr	lr, [r4, r2]	@ <variable>.SegFreshNum, <variable>.SegFreshNum
	movt	r1, #:upper16:.LC116	@,
	rsb	r7, r3, r7	@ D.50174, D.50173, <variable>.SegFreshSize
	sub	lr, lr, #1	@ D.50176, <variable>.SegFreshNum,
	bic	r7, r7, r7, asr #31	@ tmp209, D.50174
	str	r7, [r4, ip]	@ tmp209, <variable>.SegFreshSize
	bic	ip, lr, lr, asr #31	@ tmp211, D.50176
	str	ip, [r4, r2]	@ tmp211, <variable>.SegFreshNum
	ldrb	ip, [r5, #5]	@ zero_extendqisi2	@ <variable>.IsLastSeg, <variable>.IsLastSeg
	ldr	r2, [r4, r6, asl #4]	@ <variable>.PhyAddr, <variable>.PhyAddr
	str	ip, [sp, #0]	@ <variable>.IsLastSeg,
	bl	dprint_vfmw	@
	mov	r0, #0	@ Ret,
	b	.L597	@
	.fnend
	.size	GetStreamSeg, .-GetStreamSeg
	.align	2
	.global	InsertStreamSeg
	.type	InsertStreamSeg, %function
InsertStreamSeg:
	.fnstart
.LFB1553:
	@ args = 0, pretend = 0, frame = 0
	@ frame_needed = 1, uses_anonymous_args = 0
	.movsp ip
	mov	ip, sp	@,
	stmfd	sp!, {r3, r4, r5, r6, r7, r8, r9, sl, fp, ip, lr, pc}	@,
	.pad #4
	.save {r3, r4, r5, r6, r7, r8, r9, sl, fp, ip, lr}
	.setfp fp, ip, #-4
	sub	fp, ip, #4	@,,
	push	{lr}
	bl	__gnu_mcount_nc
	cmp	r0, #0	@ pStreamSegArray,
	cmpne	r1, #0	@, pStreamSeg,
	mov	r4, r0	@ pStreamSegArray, pStreamSegArray
	mov	r7, r1	@ pStreamSeg, pStreamSeg
	movne	sl, #0	@, tmp145
	moveq	sl, #1	@, tmp145
	mvneq	r0, #0	@ Ret,
	ldmeqfd	sp, {r3, r4, r5, r6, r7, r8, r9, sl, fp, sp, pc}	@
	movw	r5, #:lower16:92172	@ tmp146,
	movt	r5, #:upper16:92172	@ tmp146,
	movw	r6, #:lower16:954437177	@ tmp150,
	movt	r6, #:upper16:954437177	@ tmp150,
	ldr	r8, [r4, r5]	@ D.50126, <variable>.Tail
	movw	r2, #:lower16:92168	@ tmp158,
	movt	r2, #:upper16:92168	@ tmp158,
	add	r3, r8, #1	@ tmp147, D.50126,
	ldr	r2, [r4, r2]	@ <variable>.Head, <variable>.Head
	smull	r0, ip, r6, r3	@, tmp149, tmp150, tmp147
	mov	r0, r3, asr #31	@ tmp152, tmp147,
	rsb	r0, r0, ip, asr #8	@, tmp148, tmp152, tmp149,
	add	r0, r0, r0, asl #3	@, tmp155, tmp148, tmp148,
	sub	r3, r3, r0, asl #7	@ tmp157, tmp147, tmp155,
	cmp	r3, r2	@ tmp157, <variable>.Head
	mvneq	r0, #3	@ Ret,
	ldmeqfd	sp, {r3, r4, r5, r6, r7, r8, r9, sl, fp, sp, pc}	@
	add	r8, r8, r8, asl #2	@, tmp162, D.50126, D.50126,
	mov	r2, #80	@,
	add	lr, r4, r8, asl #4	@, tmp165, pStreamSegArray, tmp162,
	add	r9, r4, r8, asl #4	@, tmp189, pStreamSegArray, tmp162,
	add	r0, lr, #8	@, tmp165,
	mov	r8, #1	@ tmp182,
	bl	memcpy	@
	ldr	r3, [r4, r5]	@ <variable>.Tail, <variable>.Tail
	movw	ip, #:lower16:92196	@ tmp206,
	movw	r1, #:lower16:92200	@ tmp210,
	movt	ip, #:upper16:92196	@ tmp206,
	movt	r1, #:upper16:92200	@ tmp210,
	add	r2, r3, r3, asl #2	@, tmp175, <variable>.Tail, <variable>.Tail,
	movw	r3, #:lower16:92204	@ tmp215,
	movt	r3, #:upper16:92204	@ tmp215,
	add	r0, r4, r2, asl #4	@, tmp179, pStreamSegArray, tmp175,
	movw	r2, #:lower16:92208	@ tmp220,
	movt	r2, #:upper16:92208	@ tmp220,
	strb	r8, [r0, #12]	@ tmp182, <variable>.SegState
	mov	r0, sl	@ Ret, tmp145
	ldr	sl, [r4, r5]	@ <variable>.Tail, <variable>.Tail
	str	sl, [r9, #24]	@ <variable>.Tail, <variable>.StreamID
	ldr	r8, [r4, r5]	@ <variable>.Tail, <variable>.Tail
	ldr	r9, [r4, r2]	@ <variable>.SegFreshNum, <variable>.SegFreshNum
	add	r8, r8, #1	@ tmp194, <variable>.Tail,
	add	r9, r9, #1	@ tmp223, <variable>.SegFreshNum,
	smull	sl, r6, r6, r8	@, tmp196, tmp150, tmp194
	mov	sl, r8, asr #31	@ tmp199, tmp194,
	rsb	r6, sl, r6, asr #8	@, tmp200, tmp199, tmp196,
	add	sl, r6, r6, asl #3	@, tmp203, tmp200, tmp200,
	sub	r6, r8, sl, asl #7	@ tmp205, tmp194, tmp203,
	str	r6, [r4, r5]	@ tmp205, <variable>.Tail
	ldr	sl, [r7, #8]	@ <variable>.PhyAddr, <variable>.PhyAddr
	ldr	r6, [r7, #12]	@ <variable>.LenInByte, <variable>.LenInByte
	add	r5, r6, sl	@ tmp209, <variable>.LenInByte, <variable>.PhyAddr
	str	r5, [r4, ip]	@ tmp209, <variable>.SegBufWriteAddr
	ldr	r5, [r4, r1]	@, <variable>.SegTotalSize
	ldr	ip, [r7, #12]	@ <variable>.LenInByte, <variable>.LenInByte
	add	sl, ip, r5	@ tmp214, <variable>.LenInByte,
	str	sl, [r4, r1]	@ tmp214, <variable>.SegTotalSize
	ldr	sl, [r4, r3]	@, <variable>.SegFreshSize
	ldr	r1, [r7, #12]	@ <variable>.LenInByte, <variable>.LenInByte
	str	r9, [r4, r2]	@ tmp223, <variable>.SegFreshNum
	add	ip, r1, sl	@ tmp219, <variable>.LenInByte,
	str	ip, [r4, r3]	@ tmp219, <variable>.SegFreshSize
	ldmfd	sp, {r3, r4, r5, r6, r7, r8, r9, sl, fp, sp, pc}	@
	.fnend
	.size	InsertStreamSeg, .-InsertStreamSeg
	.align	2
	.global	ShowNextRawPacket
	.type	ShowNextRawPacket, %function
ShowNextRawPacket:
	.fnstart
.LFB1538:
	@ args = 0, pretend = 0, frame = 0
	@ frame_needed = 1, uses_anonymous_args = 0
	.movsp ip
	mov	ip, sp	@,
	stmfd	sp!, {r4, r5, fp, ip, lr, pc}	@,
	.pad #4
	.save {r4, r5, fp, ip, lr}
	.setfp fp, ip, #-4
	sub	fp, ip, #4	@,,
	push	{lr}
	bl	__gnu_mcount_nc
	cmp	r0, #0	@ pRawStreamArray,
	cmpne	r1, #0	@, pRawPacket,
	mov	r3, r0	@ pRawStreamArray, pRawStreamArray
	movne	r4, #0	@, tmp144
	moveq	r4, #1	@, tmp144
	mvneq	r0, #0	@ D.49737,
	ldmeqfd	sp, {r4, r5, fp, sp, pc}	@
	movw	r2, #:lower16:98320	@ tmp145,
	movt	r2, #:upper16:98320	@ tmp145,
	movw	r0, #:lower16:98308	@ tmp154,
	movt	r0, #:upper16:98308	@ tmp154,
	ldr	ip, [r3, r2]	@ <variable>.CurShowIndex, <variable>.CurShowIndex
	ldr	r5, [r3, r0]	@ <variable>.Tail, <variable>.Tail
	add	r0, ip, #1	@ tmp146, <variable>.CurShowIndex,
	mov	ip, r0, asr #31	@ tmp148, tmp146,
	mov	ip, ip, lsr #22	@ tmp149, tmp148,
	add	r0, r0, ip	@ tmp150, tmp146, tmp149
	mov	r0, r0, asl #22	@ tmp151, tmp150,
	mov	r0, r0, lsr #22	@ tmp151, tmp151,
	rsb	r0, ip, r0	@ tmp153, tmp149, tmp151
	cmp	r5, r0	@ <variable>.Tail, tmp153
	mvneq	r0, #2	@ D.49737,
	ldmeqfd	sp, {r4, r5, fp, sp, pc}	@
	add	lr, r0, r0, asl #1	@, tmp159, tmp153, tmp153,
	str	r0, [r3, r2]	@ tmp153, <variable>.CurShowIndex
	mov	r0, r1	@, pRawPacket
	mov	r2, #96	@,
	add	r1, r3, lr, asl #5	@,, pRawStreamArray, tmp159,
	bl	memcpy	@
	mov	r0, r4	@ D.49737, tmp144
	ldmfd	sp, {r4, r5, fp, sp, pc}	@
	.fnend
	.size	ShowNextRawPacket, .-ShowNextRawPacket
	.align	2
	.global	ShowFirstRawPacket
	.type	ShowFirstRawPacket, %function
ShowFirstRawPacket:
	.fnstart
.LFB1537:
	@ args = 0, pretend = 0, frame = 0
	@ frame_needed = 1, uses_anonymous_args = 0
	.movsp ip
	mov	ip, sp	@,
	stmfd	sp!, {r3, r4, fp, ip, lr, pc}	@,
	.pad #4
	.save {r3, r4, fp, ip, lr}
	.setfp fp, ip, #-4
	sub	fp, ip, #4	@,,
	push	{lr}
	bl	__gnu_mcount_nc
	cmp	r0, #0	@ pRawStreamArray,
	cmpne	r1, #0	@, pRawPacket,
	mov	r3, r0	@ pRawStreamArray, pRawStreamArray
	movne	r4, #0	@, tmp144
	moveq	r4, #1	@, tmp144
	mvneq	r0, #0	@ D.49718,
	ldmeqfd	sp, {r3, r4, fp, sp, pc}	@
	movw	r2, #:lower16:98308	@ tmp146,
	movt	r2, #:upper16:98308	@ tmp146,
	mov	r0, #98304	@ tmp145,
	ldr	ip, [r3, r0]	@ D.49719, <variable>.Head
	ldr	r2, [r3, r2]	@ <variable>.Tail, <variable>.Tail
	cmp	ip, r2	@ D.49719, <variable>.Tail
	mvneq	r0, #2	@ D.49718,
	ldmeqfd	sp, {r3, r4, fp, sp, pc}	@
	add	r2, ip, ip, asl #1	@, tmp151, D.49719, D.49719,
	movw	lr, #:lower16:98320	@ tmp148,
	movt	lr, #:upper16:98320	@ tmp148,
	mov	r0, r1	@, pRawPacket
	add	r1, r3, r2, asl #5	@,, pRawStreamArray, tmp151,
	mov	r2, #96	@,
	str	ip, [r3, lr]	@ D.49719, <variable>.CurShowIndex
	bl	memcpy	@
	mov	r0, r4	@ D.49718, tmp144
	ldmfd	sp, {r3, r4, fp, sp, pc}	@
	.fnend
	.size	ShowFirstRawPacket, .-ShowFirstRawPacket
	.align	2
	.global	WriteScdMsg
	.type	WriteScdMsg, %function
WriteScdMsg:
	.fnstart
.LFB1585:
	@ args = 12, pretend = 0, frame = 112
	@ frame_needed = 1, uses_anonymous_args = 0
	.movsp ip
	mov	ip, sp	@,
	stmfd	sp!, {r4, r5, r6, r7, r8, r9, sl, fp, ip, lr, pc}	@,
	.pad #4
	.save {r4, r5, r6, r7, r8, r9, sl, fp, ip, lr}
	.setfp fp, ip, #-4
	sub	fp, ip, #4	@,,
	.pad #116
	sub	sp, sp, #116	@,,
	push	{lr}
	bl	__gnu_mcount_nc
	sub	r9, fp, #140	@ tmp220,,
	mov	r6, r2	@ pRawStreamArray, pRawStreamArray
	str	r1, [fp, #-144]	@ SegStreamSize, %sfp
	mov	sl, r0	@ pSmPushRaw, pSmPushRaw
	mov	r1, #0	@,
	mov	r0, r9	@, tmp220
	mov	r2, #96	@,
	mov	r5, r3	@ pDownMsgVirAddr, pDownMsgVirAddr
	bl	memset	@
	cmp	r6, #0	@ pRawStreamArray,
	beq	.L622	@,
	movw	r0, #:lower16:98308	@ tmp160,
	movt	r0, #:upper16:98308	@ tmp160,
	mov	r1, #98304	@ tmp159,
	ldr	r2, [r6, r1]	@ <variable>.Head, <variable>.Head
	ldr	r3, [r6, r0]	@ <variable>.Tail, <variable>.Tail
	cmp	r2, r3	@ <variable>.Head, <variable>.Tail
	beq	.L622	@,
	movw	r7, #:lower16:98316	@ tmp163,
	movt	r7, #:upper16:98316	@ tmp163,
	ldr	r4, [r6, r7]	@ FirstRawOffset, <variable>.FirstPacketOffset
	mov	r8, r4	@ prephitmp.2539, FirstRawOffset
.L623:
	mov	r1, r9	@, tmp220
	mov	r0, r6	@, pRawStreamArray
	bl	ShowFirstRawPacket	@
	ldr	r0, [fp, #-132]	@ RawPacket.Length, RawPacket.Length
	ldr	r3, [fp, #-136]	@ RawPacket.VirAddr, RawPacket.VirAddr
	mov	r2, #0	@ tmp170,
	rsb	r7, r4, r0	@ RawShowTotalLen, FirstRawOffset, RawPacket.Length
	ldr	r0, [fp, #-144]	@, %sfp
	ldr	r1, [fp, #-140]	@ RawPacket.PhyAddr, RawPacket.PhyAddr
	add	r8, r3, r8	@ tmp168, RawPacket.VirAddr, prephitmp.2539
	cmp	r7, r0	@ RawShowTotalLen,
	movgt	ip, #0	@, tmp178
	movle	ip, #1	@, tmp178
	str	r8, [fp, #-136]	@ tmp168, RawPacket.VirAddr
	cmp	ip, r2	@ tmp178,
	add	r4, r1, r4	@ tmp166, RawPacket.PhyAddr, FirstRawOffset
	mov	r3, r7	@ RawPacket.Length, RawShowTotalLen
	str	r4, [fp, #-140]	@ tmp166, RawPacket.PhyAddr
	moveq	r8, ip	@ j.2582, tmp178
	str	r2, [r5, #0]	@ tmp170,* pDownMsgVirAddr
	str	r2, [r5, #4]	@ tmp170,
	moveq	r4, r8	@ PushRawNum, j.2582
	str	r2, [r5, #8]	@ tmp170,
	str	r7, [fp, #-132]	@ RawShowTotalLen, RawPacket.Length
	str	r2, [sl, #4]	@ tmp170, <variable>.PushRawTotalLen
	beq	.L625	@,
	mov	r8, r2	@ j.2582, tmp170
	str	r6, [fp, #-152]	@ pRawStreamArray, %sfp
	mov	r2, r7	@ prephitmp.2541, RawShowTotalLen
	mov	r4, r8	@ PushRawNum, j.2582
	b	.L627	@
.L634:
	ldr	r3, [fp, #-132]	@ RawPacket.Length, RawPacket.Length
	movw	r0, #1023	@,
	ldr	r2, [fp, #-144]	@, %sfp
	cmp	r4, r0	@ PushRawNum,
	movgt	r1, #0	@, tmp195
	movle	r1, #1	@, tmp195
	add	r7, r7, r3	@ RawShowTotalLen, RawShowTotalLen, RawPacket.Length
	cmp	r2, r7	@, RawShowTotalLen
	mov	r2, r3	@ prephitmp.2541, RawPacket.Length
	movlt	r1, #0	@, tmp195,
	cmp	r1, #0	@ tmp195,
	beq	.L625	@,
.L627:
	cmp	r2, #0	@ prephitmp.2541,
	add	ip, r8, #1	@ j, j.2582,
	ldr	r0, [fp, #-152]	@, %sfp
	mov	r1, r9	@, tmp220
	add	r2, ip, #1	@ j.2560, j,
	add	r4, r4, #1	@ PushRawNum, PushRawNum,
	ble	.L626	@,
	ldr	lr, [fp, #-140]	@ RawPacket.PhyAddr, RawPacket.PhyAddr
	mov	r6, #0	@,
	str	r6, [fp, #-132]	@, RawPacket.Length
	add	r3, lr, r3	@ tmp180, RawPacket.PhyAddr, RawPacket.Length
	str	lr, [r5, r8, asl #2]	@ RawPacket.PhyAddr,* pDownMsgVirAddr
	sub	r3, r3, #1	@ tmp183, tmp180,
	str	r3, [r5, ip, asl #2]	@ tmp183,* pDownMsgVirAddr
	add	r8, r2, #1	@ j.2582, j.2560,
	ldr	ip, [fp, #4]	@, DownMsgPhyAddr
	add	lr, ip, r8, asl #2	@, tmp185,, j.2582,
	str	lr, [r5, r2, asl #2]	@ tmp185,* pDownMsgVirAddr
.L626:
	str	r7, [sl, #4]	@ RawShowTotalLen, <variable>.PushRawTotalLen
	bl	ShowNextRawPacket	@
	cmp	r0, #0	@,
	beq	.L634	@,
.L625:
	ldr	ip, [fp, #8]	@, LowdlyFlag
	cmp	ip, #0	@,
	bne	.L628	@,
	ldr	r3, [fp, #-132]	@ temp.2565, RawPacket.Length
	cmp	r3, #0	@ temp.2565,
	bne	.L635	@,
.L628:
	cmp	r4, #0	@ PushRawNum,
	mvneq	r0, #5	@ D.51391,
	bne	.L629	@,
.L630:
	sub	sp, fp, #40
	ldmfd	sp, {r4, r5, r6, r7, r8, r9, sl, fp, sp, pc}
.L635:
	ldr	r6, [fp, #-144]	@, %sfp
	ldr	r2, [sl, #4]	@ D.51376, <variable>.PushRawTotalLen
	sub	lr, r6, #16	@ tmp198,,
	cmp	r6, r7	@, RawShowTotalLen
	cmplt	r2, lr	@, D.51376, tmp198
	bge	.L628	@,
	cmp	r4, #1024	@ PushRawNum,
	bge	.L629	@,
	rsb	r2, r2, r6	@ D.51385, D.51376,
	cmp	r3, r2	@ temp.2565, D.51385
	blt	.L628	@,
	ldr	r0, [fp, #-140]	@ RawPacket.PhyAddr, RawPacket.PhyAddr
	add	r6, r8, #1	@ j.2570, j.2582,
	ldr	ip, [fp, #8]	@, LowdlyFlag
	add	r3, r6, #1	@ j.2578, j.2570,
	add	r1, r0, r2	@ tmp206, RawPacket.PhyAddr, D.51385
	add	r4, r4, #1	@ PushRawNum, PushRawNum,
	sub	lr, r1, #1	@ tmp209, tmp206,
	str	ip, [fp, #-132]	@, RawPacket.Length
	str	r0, [r5, r8, asl #2]	@ RawPacket.PhyAddr,* pDownMsgVirAddr
	add	r8, r3, #1	@ j.2582, j.2578,
	str	lr, [r5, r6, asl #2]	@ tmp209,* pDownMsgVirAddr
	ldr	ip, [fp, #4]	@, DownMsgPhyAddr
	add	r1, ip, r8, asl #2	@, tmp211,, j.2582,
	str	r1, [r5, r3, asl #2]	@ tmp211,* pDownMsgVirAddr
	ldr	r0, [sl, #4]	@ <variable>.PushRawTotalLen, <variable>.PushRawTotalLen
	add	r6, r0, r2	@ tmp214, <variable>.PushRawTotalLen, D.51385
	str	r6, [sl, #4]	@ tmp214, <variable>.PushRawTotalLen
.L629:
	sub	r8, r8, #1	@ tmp216, j.2582,
	ldr	r0, [fp, #4]	@, DownMsgPhyAddr
	ldr	r3, [fp, #12]	@, ScdId
	mov	r6, #0	@ tmp217,
	mov	lr, #1	@ tmp218,
	str	r6, [r5, r8, asl #2]	@ tmp217,* pDownMsgVirAddr
	mov	r1, r5	@, pDownMsgVirAddr
	mov	r2, r4	@, PushRawNum
	str	lr, [sl, #8]	@ tmp218, <variable>.PushRawOver
	str	r4, [sl, #0]	@ PushRawNum, <variable>.PushRawNum
	bl	PrintDownMsg	@
	mov	r0, r6	@ D.51391, tmp217
	b	.L630	@
.L622:
	mov	r8, #0	@ prephitmp.2539,
	mov	r4, r8	@ FirstRawOffset, prephitmp.2539
	b	.L623	@
	.fnend
	.size	WriteScdMsg, .-WriteScdMsg
	.align	2
	.global	ScdDriver
	.type	ScdDriver, %function
ScdDriver:
	.fnstart
.LFB1586:
	@ args = 12, pretend = 0, frame = 0
	@ frame_needed = 1, uses_anonymous_args = 0
	.movsp ip
	mov	ip, sp	@,
	stmfd	sp!, {r4, r5, r6, r7, r8, fp, ip, lr, pc}	@,
	.pad #4
	.save {r4, r5, r6, r7, r8, fp, ip, lr}
	.setfp fp, ip, #-4
	sub	fp, ip, #4	@,,
	.pad #20
	sub	sp, sp, #20	@,,
	push	{lr}
	bl	__gnu_mcount_nc
	ldr	r4, [fp, #12]	@ ScdId, ScdId
	mov	r5, r0	@ pSmCtrlReg, pSmCtrlReg
	mov	r6, r1	@ pSmPushRaw, pSmPushRaw
	mov	r8, r2	@ SegStreamSize, SegStreamSize
	mov	r7, r3	@ pRawStreamArray, pRawStreamArray
	mov	r0, r4	@, ScdId
	bl	ResetSCD	@
	ldr	ip, [r5, #104]	@ <variable>.ScdLowdlyEnable, <variable>.ScdLowdlyEnable
	ldr	lr, [fp, #8]	@ DownMsgPhyAddr, DownMsgPhyAddr
	mov	r0, r6	@, pSmPushRaw
	mov	r1, r8	@, SegStreamSize
	mov	r2, r7	@, pRawStreamArray
	ldr	r3, [fp, #4]	@, pDownMsgVirAddr
	str	lr, [sp, #0]	@ DownMsgPhyAddr,
	str	ip, [sp, #4]	@ <variable>.ScdLowdlyEnable,
	str	r4, [sp, #8]	@ ScdId,
	bl	WriteScdMsg	@
	subs	r6, r0, #0	@ Ret,
	bne	.L637	@,
	bl	OSAL_GetTimeInMs	@
	movw	r3, #:lower16:g_VfmwGlobalStat	@ tmp144,
	movt	r3, #:upper16:g_VfmwGlobalStat	@ tmp144,
	mov	r2, #84	@ tmp147,
	mov	r1, r4	@, ScdId
	mla	r4, r2, r4, r3	@ tmp148, tmp147, ScdId, tmp144
	str	r0, [r4, #68]	@, <variable>.u32SaLastStartTime
	mov	r0, r5	@, pSmCtrlReg
	bl	WriteScdVtrlReg	@
.L637:
	mov	r0, r6	@, Ret
	sub	sp, fp, #32
	ldmfd	sp, {r4, r5, r6, r7, r8, fp, sp, pc}
	.fnend
	.size	ScdDriver, .-ScdDriver
	.align	2
	.global	InsertRawPacket
	.type	InsertRawPacket, %function
InsertRawPacket:
	.fnstart
.LFB1535:
	@ args = 0, pretend = 0, frame = 0
	@ frame_needed = 1, uses_anonymous_args = 0
	.movsp ip
	mov	ip, sp	@,
	stmfd	sp!, {r3, r4, r5, r6, fp, ip, lr, pc}	@,
	.pad #4
	.save {r3, r4, r5, r6, fp, ip, lr}
	.setfp fp, ip, #-4
	sub	fp, ip, #4	@,,
	push	{lr}
	bl	__gnu_mcount_nc
	cmp	r0, #0	@ pRawStreamArray,
	cmpne	r1, #0	@, pRawPacket,
	mov	r4, r0	@ pRawStreamArray, pRawStreamArray
	movne	r5, #0	@, tmp144
	moveq	r5, #1	@, tmp144
	mvneq	r0, #0	@ D.49678,
	ldmeqfd	sp, {r3, r4, r5, r6, fp, sp, pc}	@
	movw	r6, #:lower16:98308	@ tmp145,
	movt	r6, #:upper16:98308	@ tmp145,
	movw	r3, #:lower16:98312	@ tmp154,
	movt	r3, #:upper16:98312	@ tmp154,
	ldr	r2, [r4, r6]	@ D.49679, <variable>.Tail
	ldr	ip, [r4, r3]	@ <variable>.History, <variable>.History
	add	r3, r2, #1	@ tmp146, D.49679,
	mov	r0, r3, asr #31	@ tmp148, tmp146,
	mov	r0, r0, lsr #22	@ tmp149, tmp148,
	add	r3, r3, r0	@ tmp150, tmp146, tmp149
	mov	r3, r3, asl #22	@ tmp151, tmp150,
	mov	r3, r3, lsr #22	@ tmp151, tmp151,
	rsb	r3, r0, r3	@ tmp153, tmp149, tmp151
	cmp	r3, ip	@ tmp153, <variable>.History
	mvneq	r0, #3	@ D.49678,
	ldmeqfd	sp, {r3, r4, r5, r6, fp, sp, pc}	@
	add	lr, r2, r2, asl #1	@, tmp158, D.49679, D.49679,
	mov	r2, #96	@,
	add	r0, r4, lr, asl #5	@,, pRawStreamArray, tmp158,
	bl	memcpy	@
	ldr	r3, [r4, r6]	@ <variable>.Tail, <variable>.Tail
	mov	r0, r5	@ D.49678, tmp144
	add	ip, r3, #1	@ tmp167, <variable>.Tail,
	mov	r2, ip, asr #31	@ tmp169, tmp167,
	mov	r2, r2, lsr #22	@ tmp170, tmp169,
	add	r1, ip, r2	@ tmp171, tmp167, tmp170
	mov	r3, r1, asl #22	@ tmp172, tmp171,
	mov	ip, r3, lsr #22	@ tmp172, tmp172,
	rsb	r1, r2, ip	@ tmp174, tmp170, tmp172
	str	r1, [r4, r6]	@ tmp174, <variable>.Tail
	ldmfd	sp, {r3, r4, r5, r6, fp, sp, pc}	@
	.fnend
	.size	InsertRawPacket, .-InsertRawPacket
	.align	2
	.global	SM_PushRaw
	.type	SM_PushRaw, %function
SM_PushRaw:
	.fnstart
.LFB1575:
	@ args = 0, pretend = 0, frame = 0
	@ frame_needed = 1, uses_anonymous_args = 0
	.movsp ip
	mov	ip, sp	@,
	stmfd	sp!, {fp, ip, lr, pc}	@,
	.pad #4
	.save {fp, ip, lr}
	.setfp fp, ip, #-4
	sub	fp, ip, #4	@,,
	push	{lr}
	bl	__gnu_mcount_nc
	add	r0, r0, r0, asl #1	@, tmp142, SmID, SmID,
	ldr	ip, [r1, #0]	@ <variable>.PhyAddr, <variable>.PhyAddr
	movw	r2, #:lower16:.LANCHOR0	@ tmp138,
	movt	r2, #:upper16:.LANCHOR0	@ tmp138,
	add	r2, r2, r0, asl #4	@, tmp144, tmp138, tmp142,
	cmp	ip, #0	@ <variable>.PhyAddr,
	ldr	r0, [r2, #40]	@ pSmInstArray, <variable>.pSmInstArray
	bne	.L648	@,
.L645:
	mvn	r0, #0	@ Ret,
	ldmfd	sp, {fp, sp, pc}	@
.L648:
	ldr	r3, [r1, #4]	@ <variable>.VirAddr, <variable>.VirAddr
	cmp	r3, #0	@ <variable>.VirAddr,
	beq	.L645	@,
	cmp	r0, #0	@ pSmInstArray,
	beq	.L645	@,
	add	r0, r0, #200	@, pSmInstArray,
	bl	InsertRawPacket	@
	ldmfd	sp, {fp, sp, pc}	@
	.fnend
	.size	SM_PushRaw, .-SM_PushRaw
	.align	2
	.global	ReleaseRawStreamData
	.type	ReleaseRawStreamData, %function
ReleaseRawStreamData:
	.fnstart
.LFB1604:
	@ args = 0, pretend = 0, frame = 16
	@ frame_needed = 1, uses_anonymous_args = 0
	.movsp ip
	mov	ip, sp	@,
	stmfd	sp!, {r4, r5, r6, r7, r8, fp, ip, lr, pc}	@,
	.pad #4
	.save {r4, r5, r6, r7, r8, fp, ip, lr}
	.setfp fp, ip, #-4
	sub	fp, ip, #4	@,,
	.pad #20
	sub	sp, sp, #20	@,,
	push	{lr}
	bl	__gnu_mcount_nc
	mov	r7, r1	@ pRawPacket, pRawPacket
	mov	r6, r0	@ InstID, InstID
	bl	VCTRL_GetStreamInterface	@
	sub	r5, fp, #48	@ tmp138,,
	mov	r1, #12	@,
	mov	r4, r0	@ pStreamIntf,
	mov	r0, r5	@, tmp138
	bl	__memzero	@
	cmp	r4, #0	@ pStreamIntf,
	beq	.L659	@,
	ldmia	r4, {r0, r1, r2}	@ pStreamIntf,,,
	stmia	r5, {r0, r1, r2}	@ tmp138,,,
	ldr	r3, [r4, #8]	@ <variable>.release_stream, <variable>.release_stream
	cmp	r3, #0	@ <variable>.release_stream,
	moveq	r8, r6, asl #1	@ tmp171, InstID,
	movweq	r5, #:lower16:.LANCHOR0	@ tmp170,
	movteq	r5, #:upper16:.LANCHOR0	@ tmp170,
	beq	.L652	@,
	mov	r8, r6, asl #1	@ tmp171, InstID,
	movw	r5, #:lower16:.LANCHOR0	@ tmp170,
	add	r4, r8, r6	@ tmp147, tmp171, InstID
	movt	r5, #:upper16:.LANCHOR0	@ tmp170,
	add	r2, r5, r4, asl #4	@, tmp149, tmp170, tmp147,
	ldr	r1, [r2, #40]	@ <variable>.pSmInstArray, <variable>.pSmInstArray
	ldr	r0, [r1, #92]	@ <variable>.Config.IsOmxPath, <variable>.Config.IsOmxPath
	cmp	r0, #1	@ <variable>.Config.IsOmxPath,
	beq	.L660	@,
	movw	r0, #:lower16:g_TaskLock	@,
	movt	r0, #:upper16:g_TaskLock	@,
	bl	OSAL_SpinUnLockIRQ	@
	mov	r1, r7	@, pRawPacket
	ldr	r0, [fp, #-48]	@, StreamIntf.stream_provider_inst_id
	ldr	r3, [fp, #-40]	@ StreamIntf.release_stream, StreamIntf.release_stream
	blx	r3	@ StreamIntf.release_stream
	mov	r4, r0	@ ret,
	movw	r0, #:lower16:g_TaskLock	@,
	movt	r0, #:upper16:g_TaskLock	@,
	bl	OSAL_SpinLockIRQ	@
.L654:
	cmp	r4, #0	@ ret,
	bne	.L652	@,
.L655:
	add	r8, r8, r6	@ tmp163, tmp171, InstID
	add	r5, r5, r8, asl #4	@, tmp165, tmp170, tmp163,
	ldr	r0, [r5, #40]	@ <variable>.pSmInstArray, <variable>.pSmInstArray
	cmp	r0, #0	@ <variable>.pSmInstArray,
	beq	.L661	@,
.L651:
	mov	r0, r4	@, ret
	sub	sp, fp, #32
	ldmfd	sp, {r4, r5, r6, r7, r8, fp, sp, pc}
.L652:
	mvn	r4, #6	@ ret,
	b	.L655	@
.L660:
	mov	r1, r7	@, pRawPacket
	ldr	r0, [fp, #-48]	@, StreamIntf.stream_provider_inst_id
	ldr	ip, [fp, #-40]	@ StreamIntf.release_stream, StreamIntf.release_stream
	blx	ip	@ StreamIntf.release_stream
	mov	r4, r0	@ ret,
	b	.L654	@
.L659:
	mov	r0, r4	@, pStreamIntf
	mov	r2, r6	@, InstID
	movw	r1, #:lower16:.LC117	@,
	movt	r1, #:upper16:.LC117	@,
	bl	dprint_vfmw	@
	mvn	r4, #6	@ ret,
	b	.L651	@
.L661:
	mov	r3, r6	@, InstID
	movw	r1, #:lower16:.LC118	@,
	movw	r2, #4763	@,
	movt	r1, #:upper16:.LC118	@,
	mvn	r4, #6	@ ret,
	bl	dprint_vfmw	@
	b	.L651	@
	.fnend
	.size	ReleaseRawStreamData, .-ReleaseRawStreamData
	.align	2
	.global	SM_MoveRawData
	.type	SM_MoveRawData, %function
SM_MoveRawData:
	.fnstart
.LFB1606:
	@ args = 0, pretend = 0, frame = 0
	@ frame_needed = 1, uses_anonymous_args = 0
	.movsp ip
	mov	ip, sp	@,
	stmfd	sp!, {r4, r5, r6, r7, r8, fp, ip, lr, pc}	@,
	.pad #4
	.save {r4, r5, r6, r7, r8, fp, ip, lr}
	.setfp fp, ip, #-4
	sub	fp, ip, #4	@,,
	.pad #12
	sub	sp, sp, #12	@,,
	push	{lr}
	bl	__gnu_mcount_nc
	movw	r3, #:lower16:98508	@ tmp144,
	movt	r3, #:upper16:98508	@ tmp144,
	mov	r4, r0	@ pSmInstArray, pSmInstArray
	ldr	ip, [r4, #196]	@ D.52758, <variable>.Config.MaxRawPacketSize
	ldr	r1, [r0, r3]	@ D.52741, <variable>.RawPacketArray.Tail
	subs	r6, r1, #1	@ LastPos, D.52741,
	addmi	r6, r6, #1024	@ LastPos, LastPos,
	subs	r0, r1, #2	@ PrePos, D.52741,
	addmi	r0, r0, #1024	@ PrePos, PrePos,
	add	r8, r6, r6, asl #1	@, tmp155, LastPos, LastPos,
	add	r5, r0, r0, asl #1	@, tmp148, PrePos, PrePos,
	mov	r8, r8, asl #5	@ tmp156, tmp155,
	add	r5, r4, r5, asl #5	@, tmp150, pSmInstArray, tmp148,
	add	r7, r8, r4	@ tmp157, tmp156, pSmInstArray
	ldr	r0, [r5, #208]	@ D.52755, <variable>.Length
	ldr	r3, [r7, #208]	@ D.52756, <variable>.Length
	add	r2, r3, r0	@ tmp159, D.52756, D.52755
	cmp	r2, ip	@ tmp159, D.52758
	bgt	.L665	@,
	ldr	lr, [r5, #204]	@ <variable>.VirAddr, <variable>.VirAddr
	mov	r2, r3	@, D.52756
	ldr	r1, [r7, #204]	@, <variable>.VirAddr
	add	r0, r0, lr	@, D.52755, <variable>.VirAddr
	bl	memcpy	@
	ldr	r0, [r7, #208]	@ <variable>.Length, <variable>.Length
	ldr	ip, [r5, #208]	@ <variable>.Length, <variable>.Length
	movw	r3, #:lower16:190856	@ tmp205,
	movt	r3, #:upper16:190856	@ tmp205,
	add	r1, r8, #200	@ tmp211, tmp156,
	add	r2, r0, ip	@ tmp204, <variable>.Length, <variable>.Length
	add	r1, r4, r1	@, pSmInstArray, tmp211
	str	r2, [r5, #208]	@ tmp204, <variable>.Length
	ldr	r0, [r4, r3]	@, <variable>.InstID
	bl	ReleaseRawStreamData	@
	movw	ip, #:lower16:98508	@ tmp213,
	movt	ip, #:upper16:98508	@ tmp213,
	mov	r0, #0	@ D.52769,
	str	r6, [r4, ip]	@ LastPos, <variable>.RawPacketArray.Tail
.L666:
	sub	sp, fp, #32
	ldmfd	sp, {r4, r5, r6, r7, r8, fp, sp, pc}
.L665:
	mov	r2, r0	@, D.52755
	movw	r1, #:lower16:.LC119	@,
	mov	r0, #1	@,
	movt	r1, #:upper16:.LC119	@,
	str	ip, [sp, #0]	@ D.52758,
	bl	dprint_vfmw	@
	mvn	r0, #6	@ D.52769,
	b	.L666	@
	.fnend
	.size	SM_MoveRawData, .-SM_MoveRawData
	.align	2
	.global	DeleteRawPacketInBuffer
	.type	DeleteRawPacketInBuffer, %function
DeleteRawPacketInBuffer:
	.fnstart
.LFB1542:
	@ args = 0, pretend = 0, frame = 0
	@ frame_needed = 1, uses_anonymous_args = 0
	.movsp ip
	mov	ip, sp	@,
	stmfd	sp!, {r3, r4, r5, r6, r7, r8, r9, sl, fp, ip, lr, pc}	@,
	.pad #4
	.save {r3, r4, r5, r6, r7, r8, r9, sl, fp, ip, lr}
	.setfp fp, ip, #-4
	sub	fp, ip, #4	@,,
	push	{lr}
	bl	__gnu_mcount_nc
	cmp	r0, #15	@ SmID,
	mov	r4, r0	@ SmID, SmID
	bhi	.L688	@,
	add	r2, r0, r0, asl #1	@, tmp152, SmID, SmID,
	movw	r0, #:lower16:.LANCHOR0	@ tmp148,
	movt	r0, #:upper16:.LANCHOR0	@ tmp148,
	add	r3, r0, r2, asl #4	@, tmp154, tmp148, tmp152,
	ldr	r5, [r3, #40]	@ pSmInstArray, <variable>.pSmInstArray
	cmp	r5, #0	@ pSmInstArray,
	beq	.L671	@,
	cmp	r1, #0	@ ResetFlag,
	bne	.L672	@,
	movw	ip, #:lower16:190872	@ tmp156,
	movt	ip, #:upper16:190872	@ tmp156,
	ldr	r1, [r5, ip]	@ <variable>.Mode, <variable>.Mode
	cmp	r1, #0	@ <variable>.Mode,
	bne	.L672	@,
.L671:
	mvn	r0, #0	@ D.49849,
	ldmfd	sp, {r3, r4, r5, r6, r7, r8, r9, sl, fp, sp, pc}	@
.L688:
	mov	r2, r0	@, SmID
	movw	r1, #:lower16:.LC120	@,
	mov	r0, #0	@,
	movt	r1, #:upper16:.LC120	@,
	bl	dprint_vfmw	@
	mvn	r0, #0	@ D.49849,
	ldmfd	sp, {r3, r4, r5, r6, r7, r8, r9, sl, fp, sp, pc}	@
.L672:
	movw	r6, #:lower16:98504	@ tmp158,
	movw	r3, #:lower16:98512	@ tmp159,
	movt	r6, #:upper16:98504	@ tmp158,
	movt	r3, #:upper16:98512	@ tmp159,
	ldr	sl, [r5, r6]	@ RawHead, <variable>.RawPacketArray.Head
	ldr	r6, [r5, r3]	@ D.49861, <variable>.RawPacketArray.History
	cmp	sl, r6	@ RawHead, D.49861
	addlt	sl, sl, #1024	@ tmp160, RawHead,
	rsb	sl, r6, sl	@ DelNum, D.49861, tmp160
	cmp	sl, #0	@ DelNum,
	beq	.L671	@,
	add	r8, r6, r6, asl #1	@, tmp164, D.49861, D.49861,
	mov	r0, #26	@,
	movw	r1, #:lower16:.LC63	@,
	movt	r1, #:upper16:.LC63	@,
	mov	r8, r8, asl #5	@ tmp165, tmp164,
	mov	r7, #1	@ i,
	add	lr, r8, r5	@ tmp166, tmp165, pSmInstArray
	sub	r9, sl, #1	@ tmp195, DelNum,
	and	r9, r9, #1	@ tmp197, tmp195,
	ldr	r2, [lr, #200]	@, <variable>.PhyAddr
	ldr	r3, [lr, #208]	@, <variable>.Length
	bl	dprint_vfmw	@
	add	r1, r8, #200	@ tmp181, tmp165,
	add	r1, r5, r1	@, pSmInstArray, tmp181
	mov	r0, r4	@, SmID
	bl	ReleaseRawStreamData	@
	add	r2, r6, r7	@ D.49875, D.49861,
	cmp	r7, sl	@ i, DelNum
	mov	r0, r2, asl #22	@ j, D.49875,
	mov	r6, r0, lsr #22	@ j, j,
	bcs	.L684	@,
	cmp	r9, #0	@ tmp197,
	beq	.L675	@,
	add	r3, r6, r6, asl #1	@, tmp228, j, j,
	movw	r1, #:lower16:.LC63	@,
	mov	r0, #26	@,
	movt	r1, #:upper16:.LC63	@,
	mov	r8, r3, asl #5	@ tmp229, tmp228,
	mov	r7, #2	@ i,
	b	.L686	@
.L675:
	add	lr, r6, r6, asl #1	@, tmp202, j, j,
	mov	r0, #26	@,
	movw	r1, #:lower16:.LC63	@,
	movt	r1, #:upper16:.LC63	@,
	mov	r8, lr, asl #5	@ tmp203, tmp202,
	add	r6, r6, #1	@ D.49875, j,
	add	r2, r8, r5	@ tmp204, tmp203, pSmInstArray
	add	r7, r7, #1	@ tmp198, i,
	add	r7, r7, #1	@ i, tmp198,
	ldr	r3, [r2, #208]	@, <variable>.Length
	ldr	r2, [r2, #200]	@, <variable>.PhyAddr
	bl	dprint_vfmw	@
	add	r0, r8, #200	@ tmp209, tmp203,
	add	r1, r5, r0	@, pSmInstArray, tmp209
	mov	r0, r4	@, SmID
	bl	ReleaseRawStreamData	@
	mov	r3, r6, asl #22	@ j, D.49875,
	movw	r1, #:lower16:.LC63	@,
	movt	r1, #:upper16:.LC63	@,
	mov	r6, r3, lsr #22	@ j, j,
	mov	r0, #26	@,
	add	ip, r6, r6, asl #1	@, tmp216, j, j,
	mov	r8, ip, asl #5	@ tmp217, tmp216,
.L686:
	add	lr, r8, r5	@ tmp230, tmp229, pSmInstArray
	ldr	r2, [lr, #200]	@, <variable>.PhyAddr
	ldr	r3, [lr, #208]	@, <variable>.Length
	bl	dprint_vfmw	@
	add	r2, r8, #200	@ tmp235, tmp229,
	add	r1, r5, r2	@, pSmInstArray, tmp235
	mov	r0, r4	@, SmID
	bl	ReleaseRawStreamData	@
	add	r0, r6, #1	@ D.49875, j,
	cmp	r7, sl	@ i, DelNum
	mov	r6, r0, asl #22	@ j, D.49875,
	mov	r6, r6, lsr #22	@ j, j,
	bcc	.L675	@,
.L684:
	movw	r1, #:lower16:98512	@ tmp184,
	movt	r1, #:upper16:98512	@ tmp184,
	mov	r0, #0	@ D.49849,
	ldr	ip, [r5, r1]	@ <variable>.RawPacketArray.History, <variable>.RawPacketArray.History
	add	sl, sl, ip	@ D.49877, DelNum, <variable>.RawPacketArray.History
	str	sl, [r5, r1]	@ D.49877, <variable>.RawPacketArray.History
	cmp	sl, #1024	@ D.49877,
	subge	sl, sl, #1024	@ tmp190, D.49877,
	strge	sl, [r5, r1]	@ tmp190, <variable>.RawPacketArray.History
	ldmfd	sp, {r3, r4, r5, r6, r7, r8, r9, sl, fp, sp, pc}	@
	.fnend
	.size	DeleteRawPacketInBuffer, .-DeleteRawPacketInBuffer
	.align	2
	.global	CutStreamWithSCD
	.type	CutStreamWithSCD, %function
CutStreamWithSCD:
	.fnstart
.LFB1583:
	@ args = 0, pretend = 0, frame = 192
	@ frame_needed = 1, uses_anonymous_args = 0
	.movsp ip
	mov	ip, sp	@,
	stmfd	sp!, {r4, r5, r6, r7, r8, r9, sl, fp, ip, lr, pc}	@,
	.pad #4
	.save {r4, r5, r6, r7, r8, r9, sl, fp, ip, lr}
	.setfp fp, ip, #-4
	sub	fp, ip, #4	@,,
	.pad #212
	sub	sp, sp, #212	@,,
	push	{lr}
	bl	__gnu_mcount_nc
	adds	r7, r0, #200	@ pRawStreamArray, pScdInstance,
	mov	r3, #0	@ tmp150,
	mov	r4, r0	@ pScdInstance, pScdInstance
	str	r3, [fp, #-56]	@ tmp150, SegBufSize
	mov	sl, r1	@ ScdId, ScdId
	ldr	r6, [r0, #56]	@ StdType, <variable>.Config.VidStd
	ldr	r8, [r0, #88]	@ D.51187, <variable>.Config.ScdLowdlyEnable
	bne	.L710	@,
.L690:
	mvn	r5, #0	@ Ret,
.L697:
	mov	r0, r5	@, Ret
	sub	sp, fp, #40
	ldmfd	sp, {r4, r5, r6, r7, r8, r9, sl, fp, sp, pc}
.L710:
	add	r5, r0, #98304	@ pStreamSegArray, pScdInstance,
	add	r5, r5, #224	@ pStreamSegArray, pStreamSegArray,
	cmp	r5, r3	@ pStreamSegArray,
	beq	.L690	@,
	add	lr, r0, #190464	@, pScdInstance,
	mov	r1, #12	@,
	add	r0, lr, #280	@,,
	str	r3, [fp, #-52]	@ tmp150, FreeSegBufAddr
	str	r3, [fp, #-48]	@ tmp150, SegStreamSize
	bl	__memzero	@
	movw	r3, #:lower16:98508	@ tmp156,
	movw	ip, #:lower16:98504	@ tmp157,
	movt	r3, #:upper16:98508	@ tmp156,
	movt	ip, #:upper16:98504	@ tmp157,
	mov	r0, #26	@,
	ldr	r1, [r4, ip]	@ <variable>.RawPacketArray.Head, <variable>.RawPacketArray.Head
	ldr	r9, [r4, r3]	@ <variable>.RawPacketArray.Tail, <variable>.RawPacketArray.Tail
	subs	r9, r9, r1	@ StreamNum, <variable>.RawPacketArray.Tail, <variable>.RawPacketArray.Head
	movw	r1, #:lower16:.LC121	@,
	addmi	r9, r9, #1024	@ StreamNum, StreamNum,
	movt	r1, #:upper16:.LC121	@,
	mov	r2, r9	@, StreamNum
	bl	dprint_vfmw	@
	movw	r2, #:lower16:98524	@ tmp161,
	movw	r0, #:lower16:98516	@ tmp162,
	movt	r2, #:upper16:98524	@ tmp161,
	movt	r0, #:upper16:98516	@ tmp162,
	ldr	ip, [r4, r2]	@ <variable>.RawPacketArray.RawTotalSize, <variable>.RawPacketArray.RawTotalSize
	ldr	r3, [r4, r0]	@ <variable>.RawPacketArray.FirstPacketOffset, <variable>.RawPacketArray.FirstPacketOffset
	subs	ip, ip, r3	@ RawStreamSize, <variable>.RawPacketArray.RawTotalSize, <variable>.RawPacketArray.FirstPacketOffset
	bmi	.L690	@,
	mov	r2, ip	@, RawStreamSize
	mov	r0, #26	@,
	movw	r1, #:lower16:.LC125	@,
	movt	r1, #:upper16:.LC125	@,
	str	ip, [fp, #-224]	@,
	bl	dprint_vfmw	@
	cmp	r9, #0	@ StreamNum,
	ldr	ip, [fp, #-224]	@,
	bgt	.L711	@,
.L693:
	mvn	r5, #4	@ Ret,
	b	.L697	@
.L711:
	cmp	ip, #3	@ RawStreamSize,
	ble	.L693	@,
	movw	r3, #:lower16:190700	@ tmp165,
	movw	r1, #:lower16:190696	@ tmp166,
	movt	r3, #:upper16:190700	@ tmp165,
	movt	r1, #:upper16:190696	@ tmp166,
	ldr	r9, [r4, r3]	@ <variable>.StreamSegArray.Tail, <variable>.StreamSegArray.Tail
	ldr	r2, [r4, r1]	@ <variable>.StreamSegArray.Head, <variable>.StreamSegArray.Head
	movw	r1, #:lower16:.LC122	@,
	movt	r1, #:upper16:.LC122	@,
	str	ip, [fp, #-224]	@,
	subs	r0, r9, r2	@ StreamNum.2788, <variable>.StreamSegArray.Tail, <variable>.StreamSegArray.Head
	addmi	r0, r0, #1152	@ StreamNum.2788, StreamNum.2788,
	rsb	r9, r0, #1152	@ StreamNum.559, StreamNum.2788,
	mov	r0, #26	@,
	mov	r2, r9	@, StreamNum.559
	bl	dprint_vfmw	@
	cmp	r9, #288	@ StreamNum.559,
	bgt	.L712	@,
.L695:
	mvn	r5, #5	@ Ret,
	b	.L697	@
.L712:
	mov	r0, r5	@, pStreamSegArray
	sub	r1, fp, #52	@,,
	sub	r2, fp, #48	@,,
	bl	GetFreeSegBuf	@
	ldr	r1, [fp, #-48]	@ SegStreamSize, SegStreamSize
	ldr	r2, [fp, #-52]	@ FreeSegBufAddr, FreeSegBufAddr
	mov	r0, #26	@,
	sub	lr, r1, #79	@ SegStreamSize.564, SegStreamSize,
	movw	r1, #:lower16:.LC123	@,
	add	r5, r2, #3	@ tmp172, FreeSegBufAddr,
	movt	r1, #:upper16:.LC123	@,
	mov	r2, lr	@, SegStreamSize.564
	bic	r3, r5, #3	@ tmp174, tmp172,
	str	lr, [fp, #-48]	@ SegStreamSize.564, SegStreamSize
	str	r3, [fp, #-52]	@ tmp174, FreeSegBufAddr
	bl	dprint_vfmw	@
	movw	ip, #:lower16:190716	@ tmp177,
	movt	ip, #:upper16:190716	@ tmp177,
	ldr	r5, [fp, #-48]	@ SegStreamSize, SegStreamSize
	ldr	r3, [r4, ip]	@ D.51225, <variable>.StreamSegArray.SegBufSize
	cmp	r5, r3, asr #3	@ SegStreamSize, D.51225,
	ble	.L695	@,
	movw	r5, #:lower16:190856	@ tmp182,
	movw	lr, #:lower16:190712	@ tmp180,
	movt	r5, #:upper16:190856	@ tmp182,
	movt	lr, #:upper16:190712	@ tmp180,
	mov	r1, sl	@, ScdId
	ldr	r0, [r4, r5]	@, <variable>.InstID
	str	r3, [fp, #-56]	@ D.51225,
	ldr	ip, [r4, lr]	@, <variable>.StreamSegArray.SegBufPhyAddr
	str	ip, [fp, #-184]	@, %sfp
	bl	SM_CfgBuf	@
	ldr	ip, [fp, #-224]	@,
	subs	r5, r0, #0	@ Ret,
	bne	.L713	@,
	movw	r1, #:lower16:204748	@ tmp188,
	movt	r1, #:upper16:204748	@ tmp188,
	movw	lr, #:lower16:190760	@ tmp194,
	movt	lr, #:upper16:190760	@ tmp194,
	ldr	r2, [r4, r1]	@ <variable>.UpMsgStepNum, <variable>.UpMsgStepNum
	movw	r0, #:lower16:190764	@ tmp196,
	movt	r0, #:upper16:190764	@ tmp196,
	movw	r1, #:lower16:190772	@ tmp198,
	movt	r1, #:upper16:190772	@ tmp198,
	mov	r3, r2, asl #2	@, <variable>.UpMsgStepNum,
	str	r3, [fp, #-176]	@, %sfp
	movw	r3, #:lower16:190788	@,
	movt	r3, #:upper16:190788	@,
	str	r3, [fp, #-208]	@, %sfp
	mul	r3, r2, r9	@, <variable>.UpMsgStepNum, StreamNum.559
	ldr	r2, [fp, #-176]	@, %sfp
	mul	r2, r9, r2	@, StreamNum.559,
	str	r3, [fp, #-204]	@, %sfp
	movw	r3, #:lower16:190800	@ tmp212,
	movt	r3, #:upper16:190800	@ tmp212,
	str	r2, [fp, #-188]	@, %sfp
	movw	r2, #:lower16:190812	@,
	movt	r2, #:upper16:190812	@,
	str	r2, [fp, #-176]	@, %sfp
	movw	r2, #:lower16:190824	@,
	movt	r2, #:upper16:190824	@,
	str	r2, [fp, #-180]	@, %sfp
	cmp	r6, #6	@ StdType,
	movne	r2, #0	@,
	moveq	r2, #1	@,
	ldr	lr, [r4, lr]	@, <variable>.BufAddrCfg.DownMsgPhyAddr
	cmp	r6, #1	@ StdType,
	cmpne	r6, #15	@, StdType,
	str	r2, [fp, #-220]	@, %sfp
	moveq	r6, r5	@ prephitmp.2767, Ret
	str	lr, [fp, #-192]	@, %sfp
	ldr	r0, [r4, r0]	@, <variable>.BufAddrCfg.pDownMsgVirAddr
	ldr	lr, [fp, #-208]	@, %sfp
	str	r0, [fp, #-196]	@, %sfp
	ldr	r1, [r4, r1]	@, <variable>.BufAddrCfg.UpMsgPhyAddr
	ldr	r0, [fp, #-176]	@, %sfp
	str	r1, [fp, #-200]	@, %sfp
	movw	r1, #:lower16:190864	@ tmp184,
	ldr	r2, [r4, lr]	@, <variable>.BufAddrCfg.DspSpsMsgMemAddr
	movt	r1, #:upper16:190864	@ tmp184,
	str	r2, [fp, #-208]	@, %sfp
	ldr	r3, [r4, r3]	@, <variable>.BufAddrCfg.DspPpsMsgMemAddr
	ldr	r2, [fp, #-180]	@, %sfp
	str	r3, [fp, #-212]	@, %sfp
	movw	r3, #:lower16:190784	@ tmp186,
	ldr	lr, [r4, r0]	@, <variable>.BufAddrCfg.DvmMemAddr
	movt	r3, #:upper16:190784	@ tmp186,
	str	lr, [fp, #-216]	@, %sfp
	ldr	lr, [fp, #-52]	@, FreeSegBufAddr
	ldr	r0, [r4, r2]	@, <variable>.BufAddrCfg.DspSedTopMemAddr
	ldr	r2, [fp, #-56]	@, SegBufSize
	str	lr, [fp, #-176]	@, %sfp
	ldr	lr, [fp, #-188]	@, %sfp
	str	r0, [fp, #-180]	@, %sfp
	movw	r0, #:lower16:190780	@ tmp187,
	movt	r0, #:upper16:190780	@ tmp187,
	str	r2, [fp, #-232]	@, %sfp
	mov	r2, #1	@ tmp185,
	str	lr, [r4, r0]	@, <variable>.BufAddrCfg.UpMsgSize
	ldr	lr, [fp, #-232]	@, %sfp
	ldr	r0, [fp, #-184]	@, %sfp
	add	r0, r0, lr	@,,
	str	r0, [fp, #-188]	@, %sfp
	str	r2, [r4, r1]	@ tmp185, <variable>.CutingFlag
	str	r9, [r4, r3]	@ StreamNum.559, <variable>.BufAddrCfg.UpMsgNum
	ldr	lr, [fp, #-192]	@, %sfp
	ldr	r1, [fp, #-196]	@, %sfp
	ldr	r3, [fp, #-200]	@, %sfp
	ldr	r0, [fp, #-204]	@, %sfp
	str	lr, [fp, #-164]	@, ScdCtrlReg.DownMsgPhyAddr
	str	r1, [fp, #-160]	@, ScdCtrlReg.pDownMsgVirAddr
	ldr	lr, [fp, #-188]	@, %sfp
	ldr	r1, [fp, #-176]	@, %sfp
	str	r3, [fp, #-156]	@, ScdCtrlReg.UpMsgPhyAddr
	str	r0, [fp, #-148]	@, ScdCtrlReg.UpLen
	ldr	r3, [fp, #-208]	@, %sfp
	ldr	r0, [fp, #-212]	@, %sfp
	str	lr, [fp, #-140]	@, ScdCtrlReg.BufferLast
	str	r1, [fp, #-136]	@, ScdCtrlReg.BufferIni
	str	r3, [fp, #-124]	@, ScdCtrlReg.DspSpsMsgMemAddr
	str	r0, [fp, #-112]	@, ScdCtrlReg.DspPpsMsgMemAddr
	ldr	lr, [fp, #-216]	@, %sfp
	ldr	r1, [fp, #-180]	@, %sfp
	ldr	r3, [fp, #-220]	@, %sfp
	ldr	r0, [fp, #-184]	@, %sfp
	str	r8, [fp, #-64]	@ D.51187, ScdCtrlReg.ScdLowdlyEnable
	str	lr, [fp, #-100]	@, ScdCtrlReg.DvmMemAddr
	str	r1, [fp, #-88]	@, ScdCtrlReg.DspSedTopMemAddr
	str	r3, [fp, #-60]	@, ScdCtrlReg.reg_avs_flag
	strb	r2, [fp, #-166]	@ tmp185, ScdCtrlReg.ScdStart
	str	r0, [fp, #-144]	@, ScdCtrlReg.BufferFirst
	strb	r2, [fp, #-168]	@ tmp185, ScdCtrlReg.ScdIntMask
	beq	.L702	@,
	cmp	r6, #6	@ StdType,
	beq	.L709	@,
	sub	r5, r6, #2	@ tmp228, StdType,
	cmp	r5, #1	@ tmp228,
	bls	.L709	@,
.L702:
	mov	r0, #0	@ tmp231,
	strb	r0, [fp, #-167]	@ tmp231, ScdCtrlReg.SliceCheckFlag
.L700:
	movw	r1, #:lower16:190764	@ tmp237,
	movw	r3, #:lower16:190760	@ tmp239,
	movt	r1, #:upper16:190764	@ tmp237,
	movt	r3, #:upper16:190760	@ tmp239,
	add	r2, r4, #190464	@, pScdInstance,
	sub	r0, fp, #168	@,,
	ldr	r5, [r4, r3]	@ <variable>.BufAddrCfg.DownMsgPhyAddr, <variable>.BufAddrCfg.DownMsgPhyAddr
	mov	r3, r7	@, pRawStreamArray
	ldr	lr, [r4, r1]	@ <variable>.BufAddrCfg.pDownMsgVirAddr, <variable>.BufAddrCfg.pDownMsgVirAddr
	add	r1, r2, #280	@,,
	ldr	r2, [fp, #-48]	@, SegStreamSize
	mov	r7, #1	@ tmp233,
	str	r5, [sp, #4]	@ <variable>.BufAddrCfg.DownMsgPhyAddr,
	str	ip, [fp, #-224]	@,
	str	r6, [fp, #-132]	@ prephitmp.2767, ScdCtrlReg.ScdProtocol
	str	lr, [sp, #0]	@ <variable>.BufAddrCfg.pDownMsgVirAddr,
	str	sl, [sp, #8]	@ ScdId,
	str	r7, [fp, #-128]	@ tmp233, ScdCtrlReg.ScdIniClr
	bl	ScdDriver	@
	ldr	ip, [fp, #-224]	@,
	subs	r5, r0, #0	@ Ret,
	bne	.L697	@,
	ldr	r6, [fp, #-48]	@ SegStreamSize, SegStreamSize
	movw	lr, #:lower16:204720	@ tmp243,
	movw	r0, #:lower16:204724	@ tmp244,
	movt	lr, #:upper16:204720	@ tmp243,
	movt	r0, #:upper16:204724	@ tmp244,
	cmp	r6, ip	@ SegStreamSize, RawStreamSize
	str	ip, [r4, lr]	@ RawStreamSize, <variable>.PrevCfgRawSize
	str	r6, [r4, r0]	@ SegStreamSize, <variable>.PrevCfgSegSize
	mov	r6, #0	@ tmp251,
	strb	r7, [r4, #5]	@ tmp233, <variable>.IsWaitSCD
	strgeb	r7, [r4, #2]	@ tmp233, <variable>.LastCfgAllRawFlag
	strltb	r5, [r4, #2]	@ Ret, <variable>.LastCfgAllRawFlag
	strb	r6, [r4, #4]	@ tmp251, <variable>.FillNewRawFlag
	bl	OSAL_GetTimeInMs	@
	movw	ip, #:lower16:204744	@ tmp253,
	movt	ip, #:upper16:204744	@ tmp253,
	strb	r6, [r4, #3]	@ tmp251, <variable>.InsertNewSegFlag
	str	r0, [r4, ip]	@, <variable>.LastSCDStartTime
	b	.L697	@
.L713:
	movw	r1, #:lower16:.LC124	@,
	mov	r2, r5	@, Ret
	movt	r1, #:upper16:.LC124	@,
	mov	r0, #26	@,
	bl	dprint_vfmw	@
	b	.L697	@
.L709:
	strb	r2, [fp, #-167]	@ tmp185, ScdCtrlReg.SliceCheckFlag
	b	.L700	@
	.fnend
	.size	CutStreamWithSCD, .-CutStreamWithSCD
	.align	2
	.global	SM_CloseSCDDrv
	.type	SM_CloseSCDDrv, %function
SM_CloseSCDDrv:
	.fnstart
.LFB1569:
	@ args = 0, pretend = 0, frame = 0
	@ frame_needed = 1, uses_anonymous_args = 0
	.movsp ip
	mov	ip, sp	@,
	stmfd	sp!, {r3, r4, r5, r6, fp, ip, lr, pc}	@,
	.pad #4
	.save {r3, r4, r5, r6, fp, ip, lr}
	.setfp fp, ip, #-4
	sub	fp, ip, #4	@,,
	push	{lr}
	bl	__gnu_mcount_nc
	movw	ip, #:lower16:.LANCHOR0	@ tmp180,
	movt	ip, #:upper16:.LANCHOR0	@ tmp180,
	movw	r3, #:lower16:190872	@ tmp181,
	movw	r1, #:lower16:190860	@ tmp182,
	mov	r5, r0	@ ScdId, ScdId
	movt	r3, #:upper16:190872	@ tmp181,
	movt	r1, #:upper16:190860	@ tmp182,
	add	r2, ip, #768	@ D.55964, tmp180,
	mov	r0, ip	@ ivtmp.2828, tmp180
	mov	r6, #0	@ tmp183,
	b	.L717	@
.L715:
	add	r0, r0, #48	@ ivtmp.2828, ivtmp.2828,
	cmp	r0, r2	@ ivtmp.2828, D.55964
	beq	.L726	@,
.L717:
	ldr	lr, [r0, #40]	@ pSmInstArray, <variable>.pSmInstArray
	cmp	lr, #0	@ pSmInstArray,
	beq	.L715	@,
	ldr	r4, [lr, r3]	@ <variable>.Mode, <variable>.Mode
	cmp	r4, #0	@ <variable>.Mode,
	beq	.L715	@,
	ldr	r4, [lr, r1]	@ <variable>.ScdID, <variable>.ScdID
	cmp	r4, #0	@ <variable>.ScdID,
	bgt	.L715	@,
	add	r4, r4, r4, asl #1	@, tmp160, <variable>.ScdID, <variable>.ScdID,
	str	r6, [lr, r3]	@ tmp183, <variable>.Mode
	add	r4, ip, r4, asl #5	@, tmp162, tmp180, tmp160,
	ldr	lr, [r4, #856]	@ <variable>.SCDState, <variable>.SCDState
	cmp	lr, #0	@ <variable>.SCDState,
	beq	.L715	@,
	mov	lr, #2	@ i,
.L716:
	add	lr, lr, #2	@ i, i,
	cmp	lr, #50	@ i,
	bne	.L716	@,
	add	r0, r0, #48	@ ivtmp.2828, ivtmp.2828,
	cmp	r0, r2	@ ivtmp.2828, D.55964
	bne	.L717	@,
.L726:
	mov	r0, r5	@, ScdId
	mov	r4, #0	@ tmp171,
	bl	ResetSCD	@
	movw	r1, #:lower16:g_VfmwGlobalStat	@ tmp165,
	movt	r1, #:upper16:g_VfmwGlobalStat	@ tmp165,
	mov	r2, #84	@ tmp168,
	add	r0, r5, r5, asl #1	@, tmp176, ScdId, ScdId,
	ldr	r3, .L727	@ tmp173,
	mla	r5, r2, r5, r1	@ tmp169, tmp168, ScdId, tmp165
	add	r0, r3, r0, asl #5	@,, tmp173, tmp176,
	mov	r1, #96	@,
	str	r4, [r5, #76]	@ tmp171, <variable>.u32SaScdLoad
	bl	__memzero	@
	mov	r0, r4	@, tmp171
	ldmfd	sp, {r3, r4, r5, r6, fp, sp, pc}	@
.L728:
	.align	2
.L727:
	.word	.LANCHOR0+772
	.fnend
	.size	SM_CloseSCDDrv, .-SM_CloseSCDDrv
	.align	2
	.global	SM_InstInit
	.type	SM_InstInit, %function
SM_InstInit:
	.fnstart
.LFB1567:
	@ args = 0, pretend = 0, frame = 0
	@ frame_needed = 1, uses_anonymous_args = 0
	.movsp ip
	mov	ip, sp	@,
	stmfd	sp!, {r3, r4, fp, ip, lr, pc}	@,
	.pad #4
	.save {r3, r4, fp, ip, lr}
	.setfp fp, ip, #-4
	sub	fp, ip, #4	@,,
	push	{lr}
	bl	__gnu_mcount_nc
	movw	r4, #:lower16:.LANCHOR0	@ tmp133,
	movt	r4, #:upper16:.LANCHOR0	@ tmp133,
	mov	r1, #48	@,
	mov	r0, r4	@, tmp133
	bl	__memzero	@
	add	r0, r4, #48	@, tmp133,
	mov	r1, #48	@,
	bl	__memzero	@
	add	r0, r4, #96	@, tmp133,
	mov	r1, #48	@,
	bl	__memzero	@
	add	r0, r4, #144	@, tmp133,
	mov	r1, #48	@,
	bl	__memzero	@
	add	r0, r4, #192	@, tmp133,
	mov	r1, #48	@,
	bl	__memzero	@
	add	r0, r4, #240	@, tmp133,
	mov	r1, #48	@,
	bl	__memzero	@
	add	r0, r4, #288	@, tmp133,
	mov	r1, #48	@,
	bl	__memzero	@
	add	r0, r4, #336	@, tmp133,
	mov	r1, #48	@,
	bl	__memzero	@
	add	r0, r4, #384	@, tmp133,
	mov	r1, #48	@,
	bl	__memzero	@
	add	r0, r4, #432	@, tmp133,
	mov	r1, #48	@,
	bl	__memzero	@
	add	r0, r4, #480	@, tmp133,
	mov	r1, #48	@,
	bl	__memzero	@
	add	r0, r4, #528	@, tmp133,
	mov	r1, #48	@,
	bl	__memzero	@
	add	r0, r4, #576	@, tmp133,
	mov	r1, #48	@,
	bl	__memzero	@
	add	r0, r4, #624	@, tmp133,
	mov	r1, #48	@,
	bl	__memzero	@
	add	r0, r4, #672	@, tmp133,
	mov	r1, #48	@,
	bl	__memzero	@
	add	r0, r4, #720	@, tmp133,
	mov	r1, #48	@,
	bl	__memzero	@
	ldmfd	sp, {r3, r4, fp, sp, pc}	@
	.fnend
	.size	SM_InstInit, .-SM_InstInit
	.align	2
	.global	SM_ClearInst
	.type	SM_ClearInst, %function
SM_ClearInst:
	.fnstart
.LFB1564:
	@ args = 0, pretend = 0, frame = 0
	@ frame_needed = 1, uses_anonymous_args = 0
	.movsp ip
	mov	ip, sp	@,
	stmfd	sp!, {r4, r5, fp, ip, lr, pc}	@,
	.pad #4
	.save {r4, r5, fp, ip, lr}
	.setfp fp, ip, #-4
	sub	fp, ip, #4	@,,
	push	{lr}
	bl	__gnu_mcount_nc
	cmp	r0, #15	@ SmID,
	mvnhi	r0, #0	@ D.50377,
	ldmhifd	sp, {r4, r5, fp, sp, pc}	@
	add	r0, r0, r0, asl #1	@, tmp140, SmID, SmID,
	movw	r5, #:lower16:.LANCHOR0	@ tmp136,
	movt	r5, #:upper16:.LANCHOR0	@ tmp136,
	movw	r1, #:lower16:204896	@,
	add	r4, r5, r0, asl #4	@, tmp142, tmp136, tmp140,
	movt	r1, #:upper16:204896	@,
	mvn	r5, #0	@,
	ldr	r0, [r4, #40]	@, <variable>.pSmInstArray
	bl	__memzero	@
	ldr	r2, [r4, #40]	@ <variable>.pSmInstArray, <variable>.pSmInstArray
	movw	r3, #:lower16:204712	@ tmp155,
	movt	r3, #:upper16:204712	@ tmp155,
	mvn	r4, #0	@ tmp156,
	mov	r0, #0	@ D.50377,
	strd	r4, [r2, r3]	@ tmp156, <variable>.pSmInstArray, tmp155
	ldmfd	sp, {r4, r5, fp, sp, pc}	@
	.fnend
	.size	SM_ClearInst, .-SM_ClearInst
	.align	2
	.global	ResetStreamSegArray
	.type	ResetStreamSegArray, %function
ResetStreamSegArray:
	.fnstart
.LFB1550:
	@ args = 0, pretend = 0, frame = 0
	@ frame_needed = 1, uses_anonymous_args = 0
	.movsp ip
	mov	ip, sp	@,
	stmfd	sp!, {r4, r5, fp, ip, lr, pc}	@,
	.pad #4
	.save {r4, r5, fp, ip, lr}
	.setfp fp, ip, #-4
	sub	fp, ip, #4	@,,
	push	{lr}
	bl	__gnu_mcount_nc
	subs	r4, r0, #0	@ pStreamSegArray, pStreamSegArray
	ldmeqfd	sp, {r4, r5, fp, sp, pc}	@
	add	r0, r4, #8	@, pStreamSegArray,
	mov	r1, #92160	@,
	bl	__memzero	@
	movw	r0, #:lower16:92184	@ tmp142,
	movt	r0, #:upper16:92184	@ tmp142,
	movw	r1, #:lower16:92168	@ tmp135,
	movw	r3, #:lower16:92172	@ tmp137,
	movt	r1, #:upper16:92168	@ tmp135,
	ldr	r5, [r4, r0]	@ <variable>.SegBufPhyAddr, <variable>.SegBufPhyAddr
	movt	r3, #:upper16:92172	@ tmp137,
	movw	r0, #:lower16:92176	@ tmp139,
	movw	r2, #:lower16:92192	@ tmp141,
	movt	r0, #:upper16:92176	@ tmp139,
	movt	r2, #:upper16:92192	@ tmp141,
	movw	ip, #:lower16:92196	@ tmp144,
	movt	ip, #:upper16:92196	@ tmp144,
	str	r5, [r4, r2]	@ <variable>.SegBufPhyAddr, <variable>.SegBufReadAddr
	mov	r2, #0	@ tmp136,
	str	r5, [r4, ip]	@ <variable>.SegBufPhyAddr, <variable>.SegBufWriteAddr
	str	r2, [r4, r0]	@ tmp136, <variable>.History
	str	r2, [r4, r1]	@ tmp136, <variable>.Head
	str	r2, [r4, r3]	@ tmp136, <variable>.Tail
	ldmfd	sp, {r4, r5, fp, sp, pc}	@
	.fnend
	.size	ResetStreamSegArray, .-ResetStreamSegArray
	.align	2
	.global	SM_CopyYuvToDnr
	.type	SM_CopyYuvToDnr, %function
SM_CopyYuvToDnr:
	.fnstart
.LFB1577:
	@ args = 0, pretend = 0, frame = 0
	@ frame_needed = 1, uses_anonymous_args = 0
	.movsp ip
	mov	ip, sp	@,
	stmfd	sp!, {r4, r5, r6, r7, fp, ip, lr, pc}	@,
	.pad #4
	.save {r4, r5, r6, r7, fp, ip, lr}
	.setfp fp, ip, #-4
	sub	fp, ip, #4	@,,
	push	{lr}
	bl	__gnu_mcount_nc
	add	r0, r0, r0, asl #1	@, tmp152, SmID, SmID,
	movw	r1, #:lower16:.LANCHOR0	@ tmp148,
	movt	r1, #:upper16:.LANCHOR0	@ tmp148,
	add	r3, r1, r0, asl #4	@, tmp154, tmp148, tmp152,
	ldr	r4, [r3, #40]	@ pSmInstArray, <variable>.pSmInstArray
	cmp	r4, #0	@ pSmInstArray,
	mvneq	r0, #0	@ D.50980,
	ldmeqfd	sp, {r4, r5, r6, r7, fp, sp, pc}	@
	movw	r3, #:lower16:98504	@ tmp156,
	movw	ip, #:lower16:98508	@ tmp157,
	movt	r3, #:upper16:98504	@ tmp156,
	movt	ip, #:upper16:98508	@ tmp157,
	ldr	r5, [r4, r3]	@ D.50987, <variable>.RawPacketArray.Head
	ldr	r2, [r4, ip]	@ <variable>.RawPacketArray.Tail, <variable>.RawPacketArray.Tail
	cmp	r2, r5	@ <variable>.RawPacketArray.Tail, D.50987
	mvneq	r0, #3	@ D.50980,
	ldmeqfd	sp, {r4, r5, r6, r7, fp, sp, pc}	@
	add	r7, r4, #98304	@, pSmInstArray,
	mov	r6, r5, asl #1	@ tmp221, D.50987,
	add	r0, r7, #224	@,,
	add	r7, r4, #200	@ pRawPacketArray, pSmInstArray,
	bl	ResetStreamSegArray	@
	add	r0, r6, r5	@ tmp164, tmp221, D.50987
	add	r1, r4, r0, asl #5	@, tmp166, pSmInstArray, tmp164,
	ldr	r3, [r1, #204]	@ pu32tmp, <variable>.VirAddr
	ldmia	r3, {r0, r2}	@ phole ldm
	sub	ip, r0, #32	@ tmp170, D.50995,
	cmp	ip, #1888	@ tmp170,
	movls	ip, #0	@, tmp172
	movhi	ip, #1	@, tmp172
	cmp	r2, #31	@ h,
	orrle	ip, ip, #1	@,, tmp175, tmp172
	cmp	ip, #0	@ tmp175,
	bne	.L742	@,
	cmp	r2, #1088	@ h,
	bgt	.L742	@,
	ldr	r1, [r1, #208]	@ D.51007, <variable>.Length
	cmp	r1, #1552	@ D.51007,
	blt	.L742	@,
	movw	lr, #:lower16:3133456	@ tmp184,
	movt	lr, #:upper16:3133456	@ tmp184,
	cmp	r1, lr	@ D.51007, tmp184
	bgt	.L742	@,
	mov	lr, #3	@ tmp186,
	movw	ip, #:lower16:190716	@ tmp188,
	mul	r0, lr, r0	@ tmp185, tmp186, D.50995
	movt	ip, #:upper16:190716	@ tmp188,
	ldr	lr, [r4, ip]	@ <variable>.StreamSegArray.SegBufSize, <variable>.StreamSegArray.SegBufSize
	sub	ip, lr, #262144	@ tmp189, <variable>.StreamSegArray.SegBufSize,
	mul	r2, r2, r0	@ tmp187, h, tmp185
	mov	r2, r2, asr #1	@ D.51012, tmp187,
	cmp	r2, ip	@ D.51012, tmp189
	bgt	.L742	@,
	add	r2, r2, #16	@ tmp191, D.51012,
	cmp	r1, r2	@ D.51007, tmp191
	blt	.L742	@,
	ldr	r2, [r3, #8]	@ tmp205,
	movw	lr, #1916	@ tmp207,
	ldr	r3, [r3, #12]	@ disp_h,
	sub	r0, r2, #4	@ tmp204, tmp205,
	cmp	r0, lr	@ tmp204, tmp207
	movls	ip, #0	@, tmp208
	movhi	ip, #1	@, tmp208
	cmp	r3, #3	@ disp_h,
	orrle	ip, ip, #1	@,, tmp211, tmp208
	cmp	ip, #0	@ tmp211,
	bne	.L745	@,
	cmp	r3, #1088	@ disp_h,
	ble	.L746	@,
.L745:
	mov	r0, #0	@,
	movw	r1, #:lower16:.LC128	@,
	movt	r1, #:upper16:.LC128	@,
	bl	dprint_vfmw	@
	mov	r1, #96	@ tmp215,
	mla	r4, r1, r5, r4	@ tmp216, tmp215, D.50987, pSmInstArray
	mov	r0, r7	@, pRawPacketArray
	ldr	r1, [r4, #208]	@, <variable>.Length
	bl	DeleteRawLen	@
	cmp	r0, #0	@,
	bne	.L748	@,
.L744:
	mov	r0, #0	@ D.50980,
	ldmfd	sp, {r4, r5, r6, r7, fp, sp, pc}	@
.L742:
	add	r5, r6, r5	@ tmp196, tmp221, D.50987
	mov	r0, #0	@,
	movw	r1, #:lower16:.LC126	@,
	movt	r1, #:upper16:.LC126	@,
	add	r4, r4, r5, asl #5	@, tmp198, pSmInstArray, tmp196,
	bl	dprint_vfmw	@
	mov	r0, r7	@, pRawPacketArray
	ldr	r1, [r4, #208]	@, <variable>.Length
	bl	DeleteRawLen	@
	cmp	r0, #0	@,
	beq	.L744	@,
	mov	r0, #0	@,
	movw	r1, #:lower16:.LC127	@,
	movw	r2, #2503	@,
	movt	r1, #:upper16:.LC127	@,
	bl	dprint_vfmw	@
	mov	r0, #0	@ D.50980,
	ldmfd	sp, {r4, r5, r6, r7, fp, sp, pc}	@
.L746:
	mov	r0, r7	@, pRawPacketArray
	bl	DeleteRawLen	@
	mov	r0, #0	@ D.50980,
	ldmfd	sp, {r4, r5, r6, r7, fp, sp, pc}	@
.L748:
	mov	r0, #0	@,
	movw	r1, #:lower16:.LC127	@,
	movw	r2, #2514	@,
	movt	r1, #:upper16:.LC127	@,
	bl	dprint_vfmw	@
	mov	r0, #0	@ D.50980,
	ldmfd	sp, {r4, r5, r6, r7, fp, sp, pc}	@
	.fnend
	.size	SM_CopyYuvToDnr, .-SM_CopyYuvToDnr
	.align	2
	.global	SM_DoNextInstance
	.type	SM_DoNextInstance, %function
SM_DoNextInstance:
	.fnstart
.LFB1607:
	@ args = 0, pretend = 0, frame = 64
	@ frame_needed = 1, uses_anonymous_args = 0
	.movsp ip
	mov	ip, sp	@,
	stmfd	sp!, {r4, r5, r6, r7, r8, r9, sl, fp, ip, lr, pc}	@,
	.pad #4
	.save {r4, r5, r6, r7, r8, r9, sl, fp, ip, lr}
	.setfp fp, ip, #-4
	sub	fp, ip, #4	@,,
	.pad #68
	sub	sp, sp, #68	@,,
	push	{lr}
	bl	__gnu_mcount_nc
	cmp	r0, #0	@ ScdId
	mov	r3, #0	@ tmp156,
	str	r1, [fp, #-108]	@ pNextInstId, %sfp
	str	r3, [fp, #-52]	@ tmp156, SegBufAddr
	str	r3, [fp, #-48]	@ tmp156, SegBufTotalSize
	bne	.L770	@,
	movw	r9, #:lower16:.LANCHOR0	@ tmp269,
	movt	r9, #:upper16:.LANCHOR0	@ tmp269,
	ldr	r3, [r9, #768]	@ D.52799, s_eScdDrvSleepStage
	cmp	r3, #0	@ D.52799,
	bne	.L771	@,
	ldr	r5, [r9, #852]	@ NextInstId, <variable>.ThisInstID
	movw	r8, #:lower16:190864	@ tmp272,
	str	r3, [fp, #-84]	@ D.52799, %sfp
	movw	r7, #:lower16:204744	@ tmp273,
	ldr	r2, [fp, #-84]	@, %sfp
	movw	r6, #:lower16:190736	@,
	movw	r4, #:lower16:190732	@,
	movt	r6, #:upper16:190736	@,
	movt	r4, #:upper16:190732	@,
	str	r6, [fp, #-88]	@, %sfp
	movw	r1, #:lower16:190712	@,
	movw	r0, #:lower16:190716	@,
	movt	r1, #:upper16:190712	@,
	movt	r0, #:upper16:190716	@,
	movt	r8, #:upper16:190864	@ tmp272,
	movt	r7, #:upper16:204744	@ tmp273,
	str	r4, [fp, #-92]	@, %sfp
	mov	r6, r2	@ i,
	str	r1, [fp, #-96]	@, %sfp
	str	r0, [fp, #-100]	@, %sfp
	str	r2, [fp, #-104]	@, %sfp
	b	.L767	@
.L755:
	cmp	r3, #11	@ D.52815,
	beq	.L754	@,
	cmp	r3, #14	@ D.52815,
	beq	.L754	@,
	cmp	r3, #4	@ D.52815,
	beq	.L754	@,
	cmp	r3, #12	@ D.52815,
	beq	.L754	@,
	cmp	r3, #10	@ D.52815,
	beq	.L754	@,
	cmp	r3, #13	@ D.52815,
	beq	.L754	@,
	cmp	r3, #18	@ D.52815,
	beq	.L754	@,
	cmp	r3, #17	@ D.52815,
	beq	.L772	@,
.L757:
	mov	r1, #0	@,
	mov	r0, r5	@, NextInstId
	bl	PrintScdRawState	@
	mov	r0, r5	@, NextInstId
	mov	r1, #0	@,
	bl	PrintScdSegState	@
	bl	OSAL_GetTimeInMs	@
	ldr	r2, [r4, r7]	@ <variable>.LastSCDStartTime, <variable>.LastSCDStartTime
	ldrsb	r3, [r4, #2]	@ <variable>.LastCfgAllRawFlag, <variable>.LastCfgAllRawFlag
	subs	r2, r0, r2	@ WaitTime, CurTimeInMs, <variable>.LastSCDStartTime
	strmi	r0, [r4, r7]	@ CurTimeInMs, <variable>.LastSCDStartTime
	movmi	r2, #200	@ WaitTime,
	cmp	r3, #1	@ <variable>.LastCfgAllRawFlag,
	beq	.L773	@,
	ldrsb	lr, [r4, #0]	@ <variable>.SegFullFlag, <variable>.SegFullFlag
	str	r0, [r4, r7]	@ CurTimeInMs, <variable>.LastSCDStartTime
	cmp	lr, #1	@ <variable>.SegFullFlag,
	movne	lr, #0	@ tmp232,
	strneb	lr, [r4, #1]	@ tmp232, <variable>.IsCounting
	beq	.L774	@,
.L763:
	mov	r0, r4	@, pSmInstArray
	mov	r1, #0	@,
	bl	CutStreamWithSCD	@
	cmn	r0, #6	@ Ret,
	moveq	r3, #1	@ tmp234,
	streqb	r3, [r4, #0]	@ tmp234, <variable>.SegFullFlag
	beq	.L754	@,
	cmp	r0, #0	@ Ret,
	mov	r3, #0	@ tmp236,
	strb	r3, [r4, #0]	@ tmp236, <variable>.SegFullFlag
	beq	.L775	@,
.L754:
	add	r6, r6, #1	@ i, i,
	cmp	r6, #16	@ i,
	beq	.L753	@,
.L767:
	add	r0, r5, #1	@ D.52804, NextInstId,
	sub	r1, fp, #76	@,,
	mov	r4, r0, asr #31	@ tmp163, D.52804,
	mov	sl, r4, lsr #28	@ tmp164, tmp163,
	add	r2, r0, sl	@ tmp165, D.52804, tmp164
	and	r5, r2, #15	@ tmp166, tmp165,
	rsb	r5, sl, r5	@ NextInstId, tmp164, tmp166
	mov	sl, r5, asl #1	@ tmp270, NextInstId,
	mov	r0, r5	@, NextInstId
	add	r3, sl, r5	@ tmp172, tmp270, NextInstId
	add	lr, r9, r3, asl #4	@, tmp174, tmp269, tmp172,
	ldr	r4, [lr, #40]	@ pSmInstArray, <variable>.pSmInstArray
	bl	SM_GetInfo	@
	ldrsb	ip, [fp, #-76]	@ stInstInfo.InstMode, stInstInfo.InstMode
	cmp	ip, #0	@ stInstInfo.InstMode,
	beq	.L754	@,
	ldr	r1, [r4, r8]	@ <variable>.CutingFlag, <variable>.CutingFlag
	cmp	r1, #1	@ <variable>.CutingFlag,
	beq	.L754	@,
	ldr	r3, [r4, #56]	@ D.52815, <variable>.Config.VidStd
	sub	ip, r3, #8	@ tmp180, D.52815,
	cmp	r3, #5	@ D.52815,
	cmpne	ip, #1	@, tmp180,
	bls	.L754	@,
	cmp	r3, #1	@ D.52815,
	bne	.L755	@,
	ldr	lr, [r4, #72]	@ <variable>.Config.StdExt.Vc1Ext.IsAdvProfile, <variable>.Config.StdExt.Vc1Ext.IsAdvProfile
	cmp	lr, #0	@ <variable>.Config.StdExt.Vc1Ext.IsAdvProfile,
	bne	.L757	@,
	b	.L754	@
.L771:
	cmp	r3, #1	@ D.52799,
	moveq	r3, #2	@ tmp161,
	mvneq	r0, #2	@ D.52797,
	streq	r3, [r9, #768]	@ tmp161, s_eScdDrvSleepStage
	beq	.L751	@,
.L753:
	mvn	r0, #2	@ D.52797,
.L751:
	sub	sp, fp, #40
	ldmfd	sp, {r4, r5, r6, r7, r8, r9, sl, fp, sp, pc}
.L773:
	ldrsb	ip, [r4, #4]	@ <variable>.FillNewRawFlag, <variable>.FillNewRawFlag
	cmp	r2, #500	@ WaitTime,
	movge	r1, #0	@, tmp202
	movlt	r1, #1	@, tmp202
	cmp	ip, #0	@ <variable>.FillNewRawFlag,
	movne	r1, #0	@, tmp202,
	cmp	r1, #0	@ tmp202,
	bne	.L754	@,
	ldrsb	lr, [r4, #0]	@ <variable>.SegFullFlag, <variable>.SegFullFlag
	str	r0, [r4, r7]	@ CurTimeInMs, <variable>.LastSCDStartTime
	cmp	lr, #1	@ <variable>.SegFullFlag,
	movne	lr, #0	@ tmp232,
	strneb	lr, [r4, #1]	@ tmp232, <variable>.IsCounting
	bne	.L763	@,
.L774:
	mov	r1, #0	@,
	mov	r0, r5	@, NextInstId
	add	ip, r4, #98304	@, pSmInstArray,
	str	ip, [fp, #-80]	@, %sfp
	bl	PrintScdRawState	@
	ldr	r2, [fp, #-80]	@, %sfp
	mov	r0, r5	@, NextInstId
	mov	r1, #0	@,
	add	r3, r2, #224	@,,
	str	r3, [fp, #-80]	@, %sfp
	bl	PrintScdSegState	@
	ldr	r0, [fp, #-80]	@, %sfp
	cmp	r0, #0	@,
	beq	.L761	@,
	ldr	r1, [fp, #-88]	@, %sfp
	ldr	lr, [fp, #-96]	@, %sfp
	ldr	r2, [fp, #-92]	@, %sfp
	ldr	ip, [r4, r1]	@, <variable>.StreamSegArray.SegFreshNum
	ldr	r0, [r4, lr]	@ <variable>.StreamSegArray.SegBufPhyAddr, <variable>.StreamSegArray.SegBufPhyAddr
	ldr	lr, [fp, #-100]	@, %sfp
	str	ip, [fp, #-84]	@, %sfp
	ldr	r3, [r4, r2]	@, <variable>.StreamSegArray.SegFreshSize
	str	r0, [fp, #-52]	@ <variable>.StreamSegArray.SegBufPhyAddr,
	str	r3, [fp, #-104]	@, %sfp
	ldr	r1, [r4, lr]	@ <variable>.StreamSegArray.SegBufSize, <variable>.StreamSegArray.SegBufSize
	str	r1, [fp, #-48]	@ <variable>.StreamSegArray.SegBufSize,
.L761:
	ldrsb	r0, [r4, #1]	@ <variable>.IsCounting, <variable>.IsCounting
	cmp	r0, #0	@ <variable>.IsCounting,
	bne	.L762	@,
	ldr	ip, [fp, #-48]	@ SegBufTotalSize, SegBufTotalSize
	ldr	r2, [fp, #-104]	@, %sfp
	add	r3, ip, ip, lsr #31	@, tmp218, SegBufTotalSize, SegBufTotalSize,
	cmp	r2, r3, asr #1	@, tmp218,
	bge	.L763	@,
	ldr	r1, [fp, #-84]	@, %sfp
	cmp	r1, #127	@,
	bgt	.L763	@,
	mov	r1, #1	@ tmp220,
	mov	r0, r5	@, NextInstId
	strb	r1, [r4, #1]	@ tmp220, <variable>.IsCounting
	bl	CalcInstBlockTime	@
	b	.L763	@
.L775:
	add	sl, sl, r5	@ tmp242, tmp270, NextInstId
	ldr	r2, [fp, #-108]	@, %sfp
	mov	r0, r5	@, NextInstId
	add	sl, r9, sl, asl #4	@, tmp244, tmp269, tmp242,
	str	r5, [r2, #0]	@ NextInstId,
	ldr	lr, [sl, #40]	@ pSmInstArray, <variable>.pSmInstArray
	ldr	r2, [r4, #88]	@, <variable>.Config.ScdLowdlyEnable
	cmp	lr, r3	@ pSmInstArray,
	movwne	r3, #:lower16:190872	@ tmp246,
	movtne	r3, #:upper16:190872	@ tmp246,
	movne	r1, #1	@ tmp247,
	strne	r1, [lr, r3]	@ tmp247, <variable>.Mode
	mov	r1, #1	@,
	bl	DBG_CountTimeInfo	@
	mov	r0, #1	@,
	bl	CHECK_REC_POS_ENABLE	@
	cmp	r0, #0	@,
	bne	.L776	@,
.L766:
	mov	r0, #0	@ D.52797,
	b	.L751	@
.L776:
	bl	OSAL_GetTimeInMs	@
	add	r9, r9, r5, asl #2	@, tmp252, tmp269, NextInstId,
	movw	r2, #:lower16:g_TraceBsPeriod	@ tmp256,
	movt	r2, #:upper16:g_TraceBsPeriod	@ tmp256,
	ldr	ip, [r2, #0]	@ g_TraceBsPeriod, g_TraceBsPeriod
	mov	r3, r0	@ D.52887,
	ldr	r0, [r9, #872]	@ tmp255, last_rec_pos_time
	rsb	r1, r0, r3	@ tmp254, tmp255, D.52887
	cmp	r1, ip	@ tmp254, g_TraceBsPeriod
	bls	.L766	@,
	mov	lr, r5, asl #24	@ tmp265, NextInstId,
	ldr	r0, .L777	@,
	add	r2, lr, #65536	@, tmp265,
	movw	r1, #5340	@,
	str	r3, [r9, #872]	@ D.52887, last_rec_pos_time
	bl	DBG_AddTrace	@
	mov	r0, #0	@ D.52797,
	b	.L751	@
.L762:
	mov	r0, r5	@, NextInstId
	mov	r1, #0	@,
	bl	CalcInstBlockTime	@
	cmp	r0, #1000	@ WaitSegTime,
	ble	.L763	@,
	ldr	r3, [fp, #-48]	@ SegBufTotalSize, SegBufTotalSize
	ldr	lr, [fp, #-104]	@, %sfp
	cmp	r3, #0	@ SegBufTotalSize,
	add	r2, r3, #3	@ tmp225, SegBufTotalSize,
	movlt	r3, r2	@ SegBufTotalSize, tmp225
	cmp	lr, r3, asr #2	@, SegBufTotalSize,
	bge	.L763	@,
	ldr	ip, [fp, #-84]	@, %sfp
	cmp	ip, #63	@,
	bgt	.L763	@,
	mov	r2, r0	@, WaitSegTime
	movw	r1, #:lower16:.LC131	@,
	mov	r0, #0	@,
	movt	r1, #:upper16:.LC131	@,
	bl	dprint_vfmw	@
	ldr	r0, [fp, #-80]	@, %sfp
	mvn	r1, #0	@,
	bl	ReleaseStreamSeg	@
	mov	r0, #0	@ tmp228,
	strb	r0, [r4, #0]	@ tmp228, <variable>.SegFullFlag
	strb	r0, [r4, #1]	@ tmp228, <variable>.IsCounting
	b	.L763	@
.L772:
	mov	r0, r5	@, NextInstId
	bl	SM_CopyYuvToDnr	@
	cmp	r0, #0	@,
	beq	.L754	@,
	movw	r1, #:lower16:.LC130	@,
	mov	r0, #26	@,
	movt	r1, #:upper16:.LC130	@,
	bl	dprint_vfmw	@
	b	.L754	@
.L770:
	mov	r2, r0	@, ScdId
	movw	r1, #:lower16:.LC129	@,
	mov	r0, #26	@,
	movt	r1, #:upper16:.LC129	@,
	bl	dprint_vfmw	@
	mvn	r0, #0	@ D.52797,
	b	.L751	@
.L778:
	.align	2
.L777:
	.word	.LANCHOR1+292
	.fnend
	.size	SM_DoNextInstance, .-SM_DoNextInstance
	.align	2
	.global	SCDDRV_ActivateSCD
	.type	SCDDRV_ActivateSCD, %function
SCDDRV_ActivateSCD:
	.fnstart
.LFB1611:
	@ args = 0, pretend = 0, frame = 8
	@ frame_needed = 1, uses_anonymous_args = 0
	.movsp ip
	mov	ip, sp	@,
	stmfd	sp!, {r4, fp, ip, lr, pc}	@,
	.pad #4
	.save {r4, fp, ip, lr}
	.setfp fp, ip, #-4
	sub	fp, ip, #4	@,,
	.pad #12
	sub	sp, sp, #12	@,,
	push	{lr}
	bl	__gnu_mcount_nc
	cmp	r0, #0	@ ScdId,
	beq	.L782	@,
.L781:
	sub	sp, fp, #16
	ldmfd	sp, {r4, fp, sp, pc}
.L782:
	sub	r1, fp, #24	@,,
	bl	SM_DoNextInstance	@
	cmp	r0, #0	@,
	bne	.L781	@,
	ldr	r0, [fp, #-24]	@ NextInstID, NextInstID
	movw	r4, #:lower16:.LANCHOR0	@ tmp137,
	movt	r4, #:upper16:.LANCHOR0	@ tmp137,
	mov	r3, #1	@ tmp140,
	str	r0, [r4, #852]	@ NextInstID, <variable>.ThisInstID
	str	r3, [r4, #856]	@ tmp140, <variable>.SCDState
	bl	OSAL_GetTimeInMs	@
	movw	r1, #:lower16:.LC132	@,
	ldr	r2, .L783	@,
	movt	r1, #:upper16:.LC132	@,
	movw	r3, #5684	@,
	str	r0, [r4, #860]	@, <variable>.LastProcessTime
	mov	r0, #26	@,
	bl	dprint_vfmw	@
	b	.L781	@
.L784:
	.align	2
.L783:
	.word	.LANCHOR1+312
	.fnend
	.size	SCDDRV_ActivateSCD, .-SCDDRV_ActivateSCD
	.align	2
	.global	ConfigStreamSegArray
	.type	ConfigStreamSegArray, %function
ConfigStreamSegArray:
	.fnstart
.LFB1549:
	@ args = 0, pretend = 0, frame = 8
	@ frame_needed = 1, uses_anonymous_args = 0
	.movsp ip
	mov	ip, sp	@,
	stmfd	sp!, {r4, r5, r6, r7, fp, ip, lr, pc}	@,
	.pad #4
	.save {r4, r5, r6, r7, fp, ip, lr}
	.setfp fp, ip, #-4
	sub	fp, ip, #4	@,,
	.pad #8
	sub	sp, sp, #8	@,,
	push	{lr}
	bl	__gnu_mcount_nc
	cmp	r0, #0	@ pStreamSegArray,
	cmpne	r1, #0	@, BufPhyAddr,
	mov	r4, r1	@ BufPhyAddr, BufPhyAddr
	mov	r5, r0	@ pStreamSegArray, pStreamSegArray
	bne	.L789	@,
.L786:
	mvn	r0, #0	@ D.50052,
.L787:
	sub	sp, fp, #28
	ldmfd	sp, {r4, r5, r6, r7, fp, sp, pc}
.L789:
	rsbs	r6, r2, #1	@ tmp151, pBufVirAddr
	movcc	r6, #0	@ tmp151
	cmp	r3, #262144	@ BufSize,
	orrcc	r6, r6, #1	@,, tmp154, tmp151
	cmp	r6, #0	@ tmp154,
	bne	.L786	@,
	movw	r1, #:lower16:92216	@,
	movt	r1, #:upper16:92216	@,
	str	r2, [fp, #-32]	@,
	movw	r7, #:lower16:92184	@ tmp156,
	str	r3, [fp, #-36]	@,
	movt	r7, #:upper16:92184	@ tmp156,
	bl	__memzero	@
	movw	r0, #:lower16:92196	@ tmp158,
	movt	r0, #:upper16:92196	@ tmp158,
	str	r4, [r5, r7]	@ BufPhyAddr, <variable>.SegBufPhyAddr
	movw	ip, #:lower16:92188	@ tmp159,
	movt	ip, #:upper16:92188	@ tmp159,
	str	r4, [r5, r0]	@ BufPhyAddr, <variable>.SegBufWriteAddr
	movw	r1, #:lower16:92192	@ tmp157,
	ldr	r3, [fp, #-36]	@,
	movt	r1, #:upper16:92192	@ tmp157,
	mov	r0, r6	@ D.50052, tmp154
	str	r3, [r5, ip]	@ BufSize, <variable>.SegBufSize
	ldr	r2, [fp, #-32]	@,
	str	r4, [r5, r1]	@ BufPhyAddr, <variable>.SegBufReadAddr
	str	r2, [r5, #0]	@ pBufVirAddr, <variable>.pSegBufVirAddr
	b	.L787	@
	.fnend
	.size	ConfigStreamSegArray, .-ConfigStreamSegArray
	.align	2
	.global	SM_Config
	.type	SM_Config, %function
SM_Config:
	.fnstart
.LFB1570:
	@ args = 0, pretend = 0, frame = 48
	@ frame_needed = 1, uses_anonymous_args = 0
	.movsp ip
	mov	ip, sp	@,
	stmfd	sp!, {r4, r5, r6, r7, r8, r9, sl, fp, ip, lr, pc}	@,
	.pad #4
	.save {r4, r5, r6, r7, r8, r9, sl, fp, ip, lr}
	.setfp fp, ip, #-4
	sub	fp, ip, #4	@,,
	.pad #60
	sub	sp, sp, #60	@,,
	push	{lr}
	bl	__gnu_mcount_nc
	cmp	r0, #15	@ SmID,
	movls	r3, #0	@, tmp151
	movhi	r3, #1	@, tmp151
	cmp	r1, #0	@ pSmCfg,
	orreq	r3, r3, #1	@,, tmp154, tmp151
	mov	r4, r0	@ SmID, SmID
	cmp	r3, #0	@ tmp154,
	mov	r6, r1	@ pSmCfg, pSmCfg
	bne	.L805	@,
	add	ip, r0, r0, asl #1	@, tmp160, SmID, SmID,
	movw	r3, #:lower16:.LANCHOR0	@ tmp156,
	movt	r3, #:upper16:.LANCHOR0	@ tmp156,
	add	r2, r3, ip, asl #4	@, tmp162, tmp156, tmp160,
	ldr	r5, [r2, #40]	@ pSmInstArray, <variable>.pSmInstArray
	cmp	r5, #0	@ pSmInstArray,
	beq	.L793	@,
	ldr	r7, [r5, #60]	@ <variable>.Config.BufPhyAddr, <variable>.Config.BufPhyAddr
	ldr	r8, [r1, #12]	@ D.50643, <variable>.BufPhyAddr
	cmp	r7, r8	@ <variable>.Config.BufPhyAddr, D.50643
	addeq	r7, r5, #48	@ tmp303, pSmInstArray,
	bne	.L806	@,
.L794:
	mov	r1, r6	@, pSmCfg
	mov	r2, #152	@,
	mov	r0, r7	@, tmp303
	bl	memcpy	@
	movw	r0, #:lower16:204748	@ tmp294,
	movt	r0, #:upper16:204748	@ tmp294,
	mov	r2, #2	@ tmp295,
	movw	r3, #:lower16:190856	@ tmp299,
	movt	r3, #:upper16:190856	@ tmp299,
	str	r2, [r5, r0]	@ tmp295, <variable>.UpMsgStepNum
	ldr	r1, [r6, #8]	@ <variable>.VidStd, <variable>.VidStd
	str	r4, [r5, r3]	@ SmID, <variable>.InstID
	cmp	r1, #2	@ <variable>.VidStd,
	moveq	r1, #3	@ tmp298,
	streq	r1, [r5, r0]	@ tmp298, <variable>.UpMsgStepNum
	mov	r0, #0	@ D.50635,
.L792:
	sub	sp, fp, #40
	ldmfd	sp, {r4, r5, r6, r7, r8, r9, sl, fp, sp, pc}
.L805:
	mov	r3, r0	@, SmID
	movw	r1, #:lower16:.LC133	@,
	mov	r0, #0	@,
	movt	r1, #:upper16:.LC133	@,
	mov	r2, #1936	@,
	str	r6, [sp, #0]	@ pSmCfg,
	bl	dprint_vfmw	@
	mvn	r0, #0	@ D.50635,
	b	.L792	@
.L806:
	cmp	r8, #0	@ D.50643,
	bne	.L807	@,
.L793:
	mvn	r0, #0	@ D.50635,
	b	.L792	@
.L807:
	ldr	r7, [r1, #0]	@ <variable>.pBufVirAddr, <variable>.pBufVirAddr
	cmp	r7, #0	@ <variable>.pBufVirAddr,
	beq	.L793	@,
	ldr	sl, [r3, #780]	@ <variable>.ScdDrvMem.DownMsgMemAddr, <variable>.ScdDrvMem.DownMsgMemAddr
	movw	r7, #:lower16:190760	@ tmp166,
	movt	r7, #:upper16:190760	@ tmp166,
	movw	r9, #:lower16:190780	@,
	movw	lr, #:lower16:190764	@ tmp169,
	movt	lr, #:upper16:190764	@ tmp169,
	str	sl, [r5, r7]	@ <variable>.ScdDrvMem.DownMsgMemAddr, <variable>.BufAddrCfg.DownMsgPhyAddr
	movw	r8, #:lower16:190768	@ tmp172,
	str	r9, [fp, #-88]	@, %sfp
	movt	r8, #:upper16:190768	@ tmp172,
	ldr	r9, [r3, #784]	@, <variable>.ScdDrvMem.pDownMsgMemVirAddr
	movw	r7, #:lower16:190772	@ tmp175,
	movt	r7, #:upper16:190772	@ tmp175,
	movw	sl, #:lower16:190776	@ tmp178,
	movt	sl, #:upper16:190776	@ tmp178,
	add	ip, ip, #1	@, tmp160,
	str	r9, [r5, lr]	@, <variable>.BufAddrCfg.pDownMsgVirAddr
	movw	r9, #:lower16:190812	@,
	ldr	lr, [fp, #-88]	@, %sfp
	movt	r9, #:upper16:190812	@,
	str	r9, [fp, #-48]	@, %sfp
	movt	lr, #:upper16:190780	@,
	str	lr, [fp, #-88]	@, %sfp
	ldr	r9, [r3, #788]	@, <variable>.ScdDrvMem.DownMsgMemSize
	movw	lr, #:lower16:190784	@ tmp184,
	movt	lr, #:upper16:190784	@ tmp184,
	str	r9, [r5, r8]	@, <variable>.BufAddrCfg.DownMsgSize
	movw	r8, #:lower16:190816	@,
	str	r8, [fp, #-52]	@, %sfp
	movw	r9, #:lower16:190816	@,
	ldr	r8, [r3, #792]	@ <variable>.ScdDrvMem.UpMsgMemAddr, <variable>.ScdDrvMem.UpMsgMemAddr
	movt	r9, #:upper16:190816	@,
	str	r9, [fp, #-52]	@, %sfp
	movw	r9, #:lower16:190820	@,
	movt	r9, #:upper16:190820	@,
	str	r9, [fp, #-56]	@, %sfp
	movw	r9, #:lower16:190824	@,
	movt	r9, #:upper16:190824	@,
	str	r9, [fp, #-60]	@, %sfp
	movw	r9, #:lower16:190832	@,
	str	r8, [r5, r7]	@ <variable>.ScdDrvMem.UpMsgMemAddr, <variable>.BufAddrCfg.UpMsgPhyAddr
	movw	r7, #:lower16:190828	@,
	str	r7, [fp, #-64]	@, %sfp
	movt	r9, #:upper16:190832	@,
	ldr	r7, [r3, #796]	@ <variable>.ScdDrvMem.pUpMsgMemVirAddr, <variable>.ScdDrvMem.pUpMsgMemVirAddr
	movw	r8, #:lower16:190828	@,
	str	ip, [fp, #-80]	@, %sfp
	movt	r8, #:upper16:190828	@,
	str	r9, [fp, #-68]	@, %sfp
	movw	ip, #:lower16:190788	@,
	str	r8, [fp, #-64]	@, %sfp
	movt	ip, #:upper16:190788	@,
	str	r7, [r5, sl]	@ <variable>.ScdDrvMem.pUpMsgMemVirAddr, <variable>.BufAddrCfg.pUpMsgVirAddr
	mov	sl, #1152	@ tmp185,
	ldr	r8, [fp, #-80]	@, %sfp
	movw	r9, #:lower16:190792	@,
	movt	r9, #:upper16:190792	@,
	add	r7, r3, r8, asl #4	@,, tmp156,,
	str	r7, [fp, #-84]	@, %sfp
	ldr	r7, [r3, #800]	@ <variable>.ScdDrvMem.UpMsgMemSize, <variable>.ScdDrvMem.UpMsgMemSize
	str	ip, [fp, #-72]	@, %sfp
	movw	ip, #:lower16:190800	@,
	str	sl, [r5, lr]	@ tmp185, <variable>.BufAddrCfg.UpMsgNum
	movw	lr, #:lower16:190796	@,
	ldr	r8, [fp, #-88]	@, %sfp
	movt	lr, #:upper16:190796	@,
	str	r9, [fp, #-92]	@, %sfp
	movt	ip, #:upper16:190800	@,
	str	r7, [r5, r8]	@ <variable>.ScdDrvMem.UpMsgMemSize, <variable>.BufAddrCfg.UpMsgSize
	ldr	r9, [fp, #-48]	@, %sfp
	str	lr, [fp, #-76]	@, %sfp
	movw	lr, #:lower16:190804	@ tmp242,
	ldr	sl, [r3, #804]	@ <variable>.ScdDrvMem.DvmMemAddr, <variable>.ScdDrvMem.DvmMemAddr
	movt	lr, #:upper16:190804	@ tmp242,
	str	ip, [fp, #-88]	@, %sfp
	movw	ip, #:lower16:190808	@ tmp252,
	movt	ip, #:upper16:190808	@ tmp252,
	str	sl, [r5, r9]	@ <variable>.ScdDrvMem.DvmMemAddr, <variable>.BufAddrCfg.DvmMemAddr
	movw	sl, #:lower16:190848	@ tmp265,
	ldr	r7, [r3, #808]	@, <variable>.ScdDrvMem.pDvmMemVirAddr
	movt	sl, #:upper16:190848	@ tmp265,
	ldr	r8, [fp, #-52]	@, %sfp
	movw	r9, #:lower16:190756	@ tmp267,
	movt	r9, #:upper16:190756	@ tmp267,
	str	r7, [r5, r8]	@, <variable>.BufAddrCfg.pDvmMemVirAddr
	ldr	r8, [fp, #-56]	@, %sfp
	ldr	r7, [r3, #812]	@, <variable>.ScdDrvMem.DvmMemSize
	str	r7, [r5, r8]	@, <variable>.BufAddrCfg.DvmMemSize
	ldr	r8, [fp, #-60]	@, %sfp
	ldr	r7, [r3, #816]	@, <variable>.ScdDrvMem.DspSedTopMemAddr
	str	r7, [r5, r8]	@, <variable>.BufAddrCfg.DspSedTopMemAddr
	ldr	r8, [fp, #-64]	@, %sfp
	ldr	r7, [r3, #820]	@, <variable>.ScdDrvMem.pDspSedTopMemVirAddr
	str	r7, [r5, r8]	@, <variable>.BufAddrCfg.pDspSedTopMemVirAddr
	ldr	r8, [fp, #-68]	@, %sfp
	ldr	r7, [r3, #824]	@, <variable>.ScdDrvMem.DspSedTopMemSize
	str	r7, [r5, r8]	@, <variable>.BufAddrCfg.DspSedTopMemSize
	ldr	r8, [fp, #-80]	@, %sfp
	ldr	r7, [fp, #-72]	@, %sfp
	ldr	r3, [r3, r8, asl #4]	@ <variable>.DspCtxMem.DspSpsMsgMemAddr, <variable>.DspCtxMem.DspSpsMsgMemAddr
	str	r3, [r5, r7]	@ <variable>.DspCtxMem.DspSpsMsgMemAddr, <variable>.BufAddrCfg.DspSpsMsgMemAddr
	ldr	r8, [fp, #-84]	@, %sfp
	ldr	r7, [fp, #-92]	@, %sfp
	ldr	r3, [r8, #4]	@ <variable>.DspCtxMem.pDspSpsMsgMemVirAddr, <variable>.DspCtxMem.pDspSpsMsgMemVirAddr
	str	r3, [r5, r7]	@ <variable>.DspCtxMem.pDspSpsMsgMemVirAddr, <variable>.BufAddrCfg.pDspSpsMsgMemVirAddr
	ldr	r8, [fp, #-76]	@, %sfp
	ldr	r3, [r2, #24]	@ <variable>.DspCtxMem.DspSpsMsgMemSize, <variable>.DspCtxMem.DspSpsMsgMemSize
	str	r3, [r5, r8]	@ <variable>.DspCtxMem.DspSpsMsgMemSize, <variable>.BufAddrCfg.DspSpsMsgMemSize
	ldr	r7, [fp, #-88]	@, %sfp
	ldr	r8, [r2, #28]	@ <variable>.DspCtxMem.DspPpsMsgMemAddr, <variable>.DspCtxMem.DspPpsMsgMemAddr
	str	r8, [r5, r7]	@ <variable>.DspCtxMem.DspPpsMsgMemAddr, <variable>.BufAddrCfg.DspPpsMsgMemAddr
	ldr	r3, [r2, #32]	@ <variable>.DspCtxMem.pDspPpsMsgMemVirAddr, <variable>.DspCtxMem.pDspPpsMsgMemVirAddr
	str	r3, [r5, lr]	@ <variable>.DspCtxMem.pDspPpsMsgMemVirAddr, <variable>.BufAddrCfg.pDspPpsMsgMemVirAddr
	ldr	r7, [r2, #36]	@ <variable>.DspCtxMem.DspPpsMsgMemSize, <variable>.DspCtxMem.DspPpsMsgMemSize
	str	r7, [r5, ip]	@ <variable>.DspCtxMem.DspPpsMsgMemSize, <variable>.BufAddrCfg.DspPpsMsgMemSize
	ldr	r8, [r1, #12]	@ temp.3041, <variable>.BufPhyAddr
	ldr	r7, [r1, #8]	@ <variable>.VidStd, <variable>.VidStd
	add	r2, r8, #3	@ tmp263, temp.3041,
	ldr	ip, [r1, #0]	@ <variable>.pBufVirAddr, <variable>.pBufVirAddr
	bic	r3, r2, #3	@ TmpPhyAddr, tmp263,
	cmp	r7, #6	@ <variable>.VidStd,
	rsb	r8, r8, r3	@ ByteOffsetInWord, temp.3041, TmpPhyAddr
	add	r2, r8, ip	@ pTmpVirAddr, ByteOffsetInWord, <variable>.pBufVirAddr
	moveq	r7, #1048576	@ prephitmp.3029,
	movne	r7, #131072	@ prephitmp.3029,
	add	lr, r7, r3	@ tmp266, prephitmp.3029, TmpPhyAddr
	add	ip, r2, r7	@ tmp268, pTmpVirAddr, prephitmp.3029
	str	lr, [r5, sl]	@ tmp266, <variable>.BufAddrCfg.SegBufPhyAddr
	str	ip, [r5, r9]	@ tmp268, <variable>.BufAddrCfg.pSegBufVirAddr
	bl	SetMaxSegSize	@
	ldr	r1, [r6, #16]	@ <variable>.BufSize, <variable>.BufSize
	rsb	r8, r8, r1	@ D.50683, ByteOffsetInWord, <variable>.BufSize
	cmn	r0, #1	@,
	moveq	r0, #2097152	@ SmMaxSegBufSize,
	cmp	r0, r8	@ SmMaxSegBufSize, D.50683
	bge	.L798	@,
	movw	r3, #:lower16:-1024	@ tmp270,
	movw	r1, #:lower16:190852	@ tmp272,
	movt	r3, #:upper16:-1024	@ tmp270,
	movt	r1, #:upper16:190852	@ tmp272,
	rsb	r2, r7, r3	@ tmp270, prephitmp.3029, tmp270
	add	r3, r2, r0	@ prephitmp.3030, tmp270, SmMaxSegBufSize
	str	r3, [r5, r1]	@ prephitmp.3030, <variable>.BufAddrCfg.SegBufSize
.L799:
	movw	ip, #:lower16:190848	@ tmp278,
	movw	r0, #:lower16:190756	@ tmp280,
	movt	ip, #:upper16:190848	@ tmp278,
	movt	r0, #:upper16:190756	@ tmp280,
	add	lr, r5, #98304	@, pSmInstArray,
	add	r7, r5, #48	@ tmp303, pSmInstArray,
	ldr	r1, [r5, ip]	@, <variable>.BufAddrCfg.SegBufPhyAddr
	ldr	r2, [r5, r0]	@, <variable>.BufAddrCfg.pSegBufVirAddr
	add	r0, lr, #224	@,,
	bl	ConfigStreamSegArray	@
	mov	r1, r6	@, pSmCfg
	mov	r2, #152	@,
	mov	r0, r7	@, tmp303
	bl	memcpy	@
	movw	r2, #:lower16:190860	@ tmp287,
	movt	r2, #:upper16:190860	@ tmp287,
	mov	r1, #0	@ tmp288,
	str	r1, [r5, r2]	@ tmp288, <variable>.ScdID
	b	.L794	@
.L798:
	sub	ip, r8, #1024	@ tmp273, D.50683,
	movw	r0, #:lower16:190852	@ tmp274,
	rsb	r3, r7, ip	@ prephitmp.3030, prephitmp.3029, tmp273
	movt	r0, #:upper16:190852	@ tmp274,
	cmp	r3, #262144	@ prephitmp.3030,
	str	r3, [r5, r0]	@ prephitmp.3030, <variable>.BufAddrCfg.SegBufSize
	bge	.L799	@,
	mvn	r0, #0	@ D.50635,
	b	.L792	@
	.fnend
	.size	SM_Config, .-SM_Config
	.align	2
	.global	SM_Reset
	.type	SM_Reset, %function
SM_Reset:
	.fnstart
.LFB1563:
	@ args = 0, pretend = 0, frame = 152
	@ frame_needed = 1, uses_anonymous_args = 0
	.movsp ip
	mov	ip, sp	@,
	stmfd	sp!, {r4, r5, r6, r7, r8, r9, sl, fp, ip, lr, pc}	@,
	.pad #4
	.save {r4, r5, r6, r7, r8, r9, sl, fp, ip, lr}
	.setfp fp, ip, #-4
	sub	fp, ip, #4	@,,
	.pad #156
	sub	sp, sp, #156	@,,
	push	{lr}
	bl	__gnu_mcount_nc
	cmp	r0, #15	@ SmID,
	mov	r5, r0	@ SmID, SmID
	bhi	.L820	@,
	mov	r7, r0, asl #1	@ tmp202, SmID,
	movw	r6, #:lower16:.LANCHOR0	@ tmp203,
	add	r1, r7, r0	@ tmp146, tmp202, SmID
	movt	r6, #:upper16:.LANCHOR0	@ tmp203,
	add	r3, r6, r1, asl #4	@, tmp148, tmp203, tmp146,
	ldr	r4, [r3, #40]	@ pSmInstArray, <variable>.pSmInstArray
	cmp	r4, #0	@ pSmInstArray,
	beq	.L822	@,
	ldr	r8, [r4, #84]	@ <variable>.Config.DisContinueRawPacketFlag, <variable>.Config.DisContinueRawPacketFlag
	sub	r2, r8, #1	@ tmp151, <variable>.Config.DisContinueRawPacketFlag,
	cmp	r2, #1	@ tmp151,
	bls	.L823	@,
.L812:
	add	r7, r7, r5	@ tmp165, tmp202, SmID
	sub	r8, fp, #196	@ tmp204,,
	mov	sl, #0	@ tmp154,
	mvn	r0, #0	@ tmp155,
	add	r6, r6, r7, asl #4	@, tmp167, tmp203, tmp165,
	str	r0, [r4, #80]	@ tmp155, <variable>.Config.LastRawDisContinueCount
	add	r1, r4, #48	@, pSmInstArray,
	mov	r2, #152	@,
	str	sl, [r4, #84]	@ tmp154, <variable>.Config.DisContinueRawPacketFlag
	mov	r0, r8	@, tmp204
	bl	memcpy	@
	ldr	r2, [r6, #40]	@ pSmInstArray, <variable>.pSmInstArray
	movw	r3, #:lower16:190872	@ tmp160,
	movt	r3, #:upper16:190872	@ tmp160,
	cmp	r2, sl	@ pSmInstArray,
	movw	r1, #:lower16:.LANCHOR0	@ tmp161,
	ldr	r9, [r4, r3]	@ TmpMode, <variable>.Mode
	movt	r1, #:upper16:.LANCHOR0	@ tmp161,
	beq	.L813	@,
	ldr	ip, [r2, r3]	@ <variable>.Mode, <variable>.Mode
	cmp	ip, sl	@ <variable>.Mode,
	bne	.L824	@,
.L813:
	movw	r1, #:lower16:98508	@ tmp185,
	movw	lr, #:lower16:98504	@ tmp186,
	movt	r1, #:upper16:98508	@ tmp185,
	movt	lr, #:upper16:98504	@ tmp186,
	mvn	r6, #0	@ tmp192,
	sub	r9, r9, #1	@ tmp196, TmpMode,
	ldr	r0, [r4, lr]	@ <variable>.RawPacketArray.Head, <variable>.RawPacketArray.Head
	ldr	r7, [r4, r1]	@ <variable>.RawPacketArray.Tail, <variable>.RawPacketArray.Tail
	subs	r1, r7, r0	@ RawNum, <variable>.RawPacketArray.Tail, <variable>.RawPacketArray.Head
	add	r0, r4, #200	@, pSmInstArray,
	addmi	r1, r1, #1024	@ RawNum, RawNum,
	mvn	r7, #0	@,
	bl	DeleteRawPacket	@
	mov	r1, #1	@,
	mov	r0, r5	@, SmID
	bl	DeleteRawPacketInBuffer	@
	mov	r0, r4	@, pSmInstArray
	movw	r1, #:lower16:204896	@,
	movt	r1, #:upper16:204896	@,
	bl	__memzero	@
	movw	r3, #:lower16:204712	@ tmp191,
	movw	ip, #:lower16:204748	@ tmp193,
	movt	r3, #:upper16:204712	@ tmp191,
	movt	ip, #:upper16:204748	@ tmp193,
	mov	r2, #2	@ tmp194,
	strd	r6, [r4, r3]	@ tmp192, pSmInstArray, tmp191
	mov	r0, r5	@, SmID
	str	r2, [r4, ip]	@ tmp194, <variable>.UpMsgStepNum
	mov	r1, r8	@, tmp204
	bl	SM_Config	@
	cmp	r9, #1	@ tmp196,
	movwls	r3, #:lower16:190872	@ tmp197,
	movhi	r2, #0	@ tmp200,
	movwhi	r3, #:lower16:190872	@ tmp199,
	movls	r0, #0	@ D.50340,
	movls	r2, #1	@ tmp198,
	movtls	r3, #:upper16:190872	@ tmp197,
	movthi	r3, #:upper16:190872	@ tmp199,
	movhi	r0, r2	@ D.50340, tmp200
	str	r2, [r4, r3]	@ tmp200, <variable>.Mode
.L810:
	sub	sp, fp, #40
	ldmfd	sp, {r4, r5, r6, r7, r8, r9, sl, fp, sp, pc}
.L824:
	movw	lr, #:lower16:190860	@ tmp171,
	movt	lr, #:upper16:190860	@ tmp171,
	ldr	r0, [r2, lr]	@ <variable>.ScdID, <variable>.ScdID
	cmp	r0, sl	@ <variable>.ScdID,
	bgt	.L813	@,
	add	r6, r0, r0, asl #1	@, tmp180, <variable>.ScdID, <variable>.ScdID,
	str	sl, [r2, r3]	@ tmp154, <variable>.Mode
	add	r1, r1, r6, asl #5	@, tmp182, tmp161, tmp180,
	ldr	r3, [r1, #856]	@ <variable>.SCDState, <variable>.SCDState
	cmp	r3, sl	@ <variable>.SCDState,
	beq	.L813	@,
.L814:
	add	sl, sl, #2	@ i, i,
	cmp	sl, #50	@ i,
	beq	.L813	@,
	add	sl, sl, #2	@ i, i,
	cmp	sl, #50	@ i,
	bne	.L814	@,
	b	.L813	@
.L822:
	movw	r1, #:lower16:.LC134	@,
	mov	r0, r4	@, pSmInstArray
	movt	r1, #:upper16:.LC134	@,
	movw	r2, #1463	@,
	bl	dprint_vfmw	@
.L820:
	mvn	r0, #0	@ D.50340,
	b	.L810	@
.L823:
	add	r1, r4, #96	@, pSmInstArray,
	bl	ReleaseRawStreamData	@
	b	.L812	@
	.fnend
	.size	SM_Reset, .-SM_Reset
	.align	2
	.global	ResetRawStreamArray
	.type	ResetRawStreamArray, %function
ResetRawStreamArray:
	.fnstart
.LFB1534:
	@ args = 0, pretend = 0, frame = 0
	@ frame_needed = 1, uses_anonymous_args = 0
	.movsp ip
	mov	ip, sp	@,
	stmfd	sp!, {fp, ip, lr, pc}	@,
	.pad #4
	.save {fp, ip, lr}
	.setfp fp, ip, #-4
	sub	fp, ip, #4	@,,
	push	{lr}
	bl	__gnu_mcount_nc
	cmp	r0, #0	@ pRawStreamArray,
	ldmeqfd	sp, {fp, sp, pc}	@
	movw	r1, #:lower16:98328	@,
	movt	r1, #:upper16:98328	@,
	bl	__memzero	@
	ldmfd	sp, {fp, sp, pc}	@
	.fnend
	.size	ResetRawStreamArray, .-ResetRawStreamArray
	.align	2
	.global	FillExtraData
	.type	FillExtraData, %function
FillExtraData:
	.fnstart
.LFB1602:
	@ args = 0, pretend = 0, frame = 0
	@ frame_needed = 1, uses_anonymous_args = 0
	.movsp ip
	mov	ip, sp	@,
	stmfd	sp!, {r4, r5, r6, r7, r8, fp, ip, lr, pc}	@,
	.pad #4
	.save {r4, r5, r6, r7, r8, fp, ip, lr}
	.setfp fp, ip, #-4
	sub	fp, ip, #4	@,,
	.pad #20
	sub	sp, sp, #20	@,,
	push	{lr}
	bl	__gnu_mcount_nc
	cmp	r0, #15	@ InstID,
	mov	r4, r1	@ pRawPacket, pRawPacket
	bls	.L850	@,
.L829:
	mvn	r0, #0	@ D.52356,
.L831:
	sub	sp, fp, #32
	ldmfd	sp, {r4, r5, r6, r7, r8, fp, sp, pc}
.L850:
	cmp	r1, #0	@ pRawPacket,
	beq	.L829	@,
	ldr	ip, [r1, #8]	@ D.52359, <variable>.Length
	cmp	ip, #0	@ D.52359,
	ble	.L851	@,
	add	r0, r0, r0, asl #1	@, tmp167, InstID, InstID,
	movw	r1, #:lower16:.LANCHOR0	@ tmp163,
	movt	r1, #:upper16:.LANCHOR0	@ tmp163,
	add	r3, r1, r0, asl #4	@, tmp169, tmp163, tmp167,
	ldr	r5, [r3, #40]	@ pSmInstArray, <variable>.pSmInstArray
	ldr	r3, [r5, #56]	@ <variable>.Config.VidStd, <variable>.Config.VidStd
	cmp	r3, #5	@ <variable>.Config.VidStd,
	beq	.L834	@,
	cmp	r3, #8	@ <variable>.Config.VidStd,
	beq	.L835	@,
	cmp	r3, #1	@ <variable>.Config.VidStd,
	beq	.L852	@,
.L832:
	mov	r0, #0	@ D.52356,
	b	.L831	@
.L852:
	ldr	r0, [r5, #72]	@ <variable>.Config.StdExt.Vc1Ext.IsAdvProfile, <variable>.Config.StdExt.Vc1Ext.IsAdvProfile
	cmp	r0, #1	@ <variable>.Config.StdExt.Vc1Ext.IsAdvProfile,
	beq	.L853	@,
	ldr	r7, [r4, #76]	@ <variable>.RawExt.Flags, <variable>.RawExt.Flags
	ands	r7, r7, #128	@ tmp205, <variable>.RawExt.Flags,
	beq	.L840	@,
	ldr	r6, [r4, #80]	@ temp.3135, <variable>.RawExt.BufLen
	add	lr, ip, #12	@ D.52395, D.52359,
	cmp	lr, r6	@ D.52395, temp.3135
	bhi	.L841	@,
	cmp	lr, #128	@ D.52395,
	bgt	.L841	@,
	ldr	r1, [r4, #4]	@ temp.3136, <variable>.VirAddr
	mov	r2, ip	@, D.52359
	add	r0, r1, #8	@, temp.3136,
	bl	memmove	@
	add	r1, r4, #84	@, pRawPacket,
	mov	r2, #4	@,
	ldr	r0, [r4, #4]	@, <variable>.VirAddr
	bl	memcpy	@
	ldr	r0, [r4, #4]	@ <variable>.VirAddr, <variable>.VirAddr
	mov	r2, #4	@,
	add	r1, r4, #88	@, pRawPacket,
	add	r0, r0, r2	@, <variable>.VirAddr,
	bl	memcpy	@
	ldr	r2, [r4, #4]	@ <variable>.VirAddr, <variable>.VirAddr
	mov	r1, #4	@,
	add	r0, r2, #12	@, <variable>.VirAddr,
	bl	__memzero	@
	movw	r3, #:lower16:204760	@ tmp228,
	movt	r3, #:upper16:204760	@ tmp228,
	add	r1, r5, #203776	@, pSmInstArray,
	mov	ip, #16	@ tmp227,
	add	r0, r1, #988	@,,
	str	ip, [r4, #8]	@ tmp227, <variable>.Length
	str	ip, [r5, r3]	@ tmp227, <variable>.HeaderLen
	ldmib	r4, {r1, r2}	@ phole ldm
	bl	memcpy	@
	mov	r0, #0	@ D.52356,
	b	.L831	@
.L835:
	ldr	r7, [r4, #76]	@ <variable>.RawExt.Flags, <variable>.RawExt.Flags
	ands	r7, r7, #128	@ tmp273, <variable>.RawExt.Flags,
	beq	.L845	@,
	cmp	ip, #128	@ D.52359,
	bgt	.L854	@,
.L846:
	movw	r2, #:lower16:204760	@ tmp279,
	movt	r2, #:upper16:204760	@ tmp279,
	add	r1, r5, #203776	@, pSmInstArray,
	str	ip, [r5, r2]	@ D.52359, <variable>.HeaderLen
	add	r0, r1, #988	@,,
	ldmib	r4, {r1, r2}	@ phole ldm
	bl	memcpy	@
	mov	r0, #0	@ D.52356,
	b	.L831	@
.L834:
	ldr	lr, [r4, #80]	@ temp.3160, <variable>.RawExt.BufLen
	add	r5, ip, #8	@ D.52411, D.52359,
	cmp	r5, lr	@ D.52411, temp.3160
	bhi	.L855	@,
	ldr	r1, [r4, #4]	@ temp.3161, <variable>.VirAddr
	mov	r2, ip	@, D.52359
	add	r0, r1, #8	@, temp.3161,
	bl	memmove	@
	add	r1, r4, #84	@, pRawPacket,
	mov	r2, #4	@,
	ldr	r0, [r4, #4]	@, <variable>.VirAddr
	bl	memcpy	@
	ldr	r0, [r4, #4]	@ <variable>.VirAddr, <variable>.VirAddr
	mov	r2, #4	@,
	add	r1, r4, #88	@, pRawPacket,
	add	r0, r0, r2	@, <variable>.VirAddr,
	bl	memcpy	@
	ldr	r3, [r4, #8]	@ <variable>.Length, <variable>.Length
	mov	r0, #0	@ D.52356,
	add	ip, r3, #8	@ tmp272, <variable>.Length,
	str	ip, [r4, #8]	@ tmp272, <variable>.Length
	b	.L831	@
.L845:
	movw	r6, #:lower16:204760	@ tmp287,
	movt	r6, #:upper16:204760	@ tmp287,
	ldr	r8, [r4, #80]	@ temp.3182, <variable>.RawExt.BufLen
	ldr	r0, [r5, r6]	@ temp.3180, <variable>.HeaderLen
	add	lr, ip, r0	@ temp.3181, D.52359, temp.3180
	cmp	lr, r8	@ temp.3181, temp.3182
	bhi	.L856	@,
.L847:
	ldr	r1, [r4, #4]	@ temp.3184, <variable>.VirAddr
	mov	r2, ip	@, D.52359
	add	r0, r1, r0	@, temp.3184, temp.3180
	bl	memmove	@
	add	r0, r5, #203776	@, pSmInstArray,
	add	r1, r0, #988	@,,
	ldr	r2, [r5, r6]	@, <variable>.HeaderLen
	ldr	r0, [r4, #4]	@, <variable>.VirAddr
	bl	memcpy	@
	ldr	r3, [r5, r6]	@ <variable>.HeaderLen, <variable>.HeaderLen
	ldr	r1, [r4, #8]	@ <variable>.Length, <variable>.Length
	mov	r0, r7	@ D.52356, tmp273
	add	ip, r1, r3	@ tmp303, <variable>.Length, <variable>.HeaderLen
	str	ip, [r4, #8]	@ tmp303, <variable>.Length
	b	.L831	@
.L840:
	movw	r6, #:lower16:204760	@ tmp237,
	movt	r6, #:upper16:204760	@ tmp237,
	ldr	r8, [r4, #80]	@ temp.3148, <variable>.RawExt.BufLen
	ldr	r0, [r5, r6]	@ temp.3146, <variable>.HeaderLen
	add	lr, ip, r0	@ temp.3147, D.52359, temp.3146
	cmp	lr, r8	@ temp.3147, temp.3148
	bls	.L847	@,
	mov	r0, r3	@, <variable>.Config.VidStd
	movw	r1, #:lower16:.LC137	@,
	ldr	r2, .L858	@,
	movt	r1, #:upper16:.LC137	@,
	str	lr, [sp, #0]	@ temp.3147,
	str	r8, [sp, #4]	@ temp.3148,
	bl	dprint_vfmw	@
	mvn	r0, #1	@ D.52356,
	b	.L831	@
.L853:
	ldr	r2, [r4, #76]	@ <variable>.RawExt.Flags, <variable>.RawExt.Flags
	tst	r2, #128	@ <variable>.RawExt.Flags,
	beq	.L837	@,
	cmp	ip, #128	@ D.52359,
	ble	.L846	@,
	ldr	r2, .L858	@,
	movw	r1, #:lower16:.LC136	@,
	movt	r1, #:upper16:.LC136	@,
	mov	r3, r0	@,
.L849:
	mov	lr, #128	@ tmp278,
	stmia	sp, {ip, lr}	@ phole stm
	bl	dprint_vfmw	@
	mvn	r0, #1	@ D.52356,
	b	.L831	@
.L837:
	ldrb	r3, [r4, #72]	@ zero_extendqisi2	@ <variable>.RawExt.IsSeekPending, <variable>.RawExt.IsSeekPending
	cmp	r3, #0	@ <variable>.RawExt.IsSeekPending,
	beq	.L832	@,
	movw	r6, #:lower16:204760	@ tmp188,
	movt	r6, #:upper16:204760	@ tmp188,
	ldr	lr, [r4, #80]	@ D.52384, <variable>.RawExt.BufLen
	ldr	r0, [r5, r6]	@ D.52382, <variable>.HeaderLen
	add	r6, ip, r0	@ D.52383, D.52359, D.52382
	cmp	r6, lr	@ D.52383, D.52384
	bhi	.L857	@,
	ldr	r1, [r4, #4]	@ temp.3125, <variable>.VirAddr
	mov	r2, ip	@, D.52359
	movw	r6, #:lower16:204760	@ tmp194,
	movt	r6, #:upper16:204760	@ tmp194,
	add	r0, r1, r0	@, temp.3125, D.52382
	bl	memmove	@
	add	r0, r5, #203776	@, pSmInstArray,
	add	r1, r0, #988	@,,
	ldr	r2, [r5, r6]	@, <variable>.HeaderLen
	ldr	r0, [r4, #4]	@, <variable>.VirAddr
	bl	memcpy	@
	ldr	r1, [r5, r6]	@ <variable>.HeaderLen, <variable>.HeaderLen
	ldr	r2, [r4, #8]	@ <variable>.Length, <variable>.Length
	mov	r0, #0	@ D.52356,
	add	ip, r2, r1	@ tmp204, <variable>.Length, <variable>.HeaderLen
	str	ip, [r4, #8]	@ tmp204, <variable>.Length
	b	.L831	@
.L855:
	mov	r0, #1	@,
	movw	r1, #:lower16:.LC139	@,
	ldr	r2, .L858	@,
	movt	r1, #:upper16:.LC139	@,
	stmia	sp, {r5, lr}	@ phole stm
	bl	dprint_vfmw	@
	mvn	r0, #1	@ D.52356,
	b	.L831	@
.L841:
	mov	r0, #1	@,
	movw	r1, #:lower16:.LC138	@,
	ldr	r2, .L858	@,
	movt	r1, #:upper16:.LC138	@,
	mov	r3, r0	@,
	str	lr, [sp, #0]	@ D.52395,
	str	r6, [sp, #4]	@ temp.3135,
	mov	lr, #128	@ tmp210,
	str	lr, [sp, #8]	@ tmp210,
	bl	dprint_vfmw	@
	mvn	r0, #1	@ D.52356,
	b	.L831	@
.L856:
	mov	r0, #1	@,
	movw	r1, #:lower16:.LC137	@,
	ldr	r2, .L858	@,
	movt	r1, #:upper16:.LC137	@,
	str	lr, [sp, #0]	@ temp.3181,
	str	r8, [sp, #4]	@ temp.3182,
	bl	dprint_vfmw	@
	mvn	r0, #1	@ D.52356,
	b	.L831	@
.L851:
	mov	r3, ip	@, D.52359
	mov	r0, #1	@,
	movw	r1, #:lower16:.LC135	@,
	ldr	r2, .L858	@,
	movt	r1, #:upper16:.LC135	@,
	bl	dprint_vfmw	@
	mvn	r0, #0	@ D.52356,
	b	.L831	@
.L854:
	movw	r1, #:lower16:.LC136	@,
	mov	r0, #1	@,
	movt	r1, #:upper16:.LC136	@,
	ldr	r2, .L858	@,
	b	.L849	@
.L857:
	mov	r0, #1	@,
	movw	r1, #:lower16:.LC137	@,
	ldr	r2, .L858	@,
	movt	r1, #:upper16:.LC137	@,
	mov	r3, r0	@,
	stmia	sp, {r6, lr}	@ phole stm
	bl	dprint_vfmw	@
	mvn	r0, #1	@ D.52356,
	b	.L831	@
.L859:
	.align	2
.L858:
	.word	.LANCHOR1+332
	.fnend
	.size	FillExtraData, .-FillExtraData
	.align	2
	.global	ReadRawStreamData
	.type	ReadRawStreamData, %function
ReadRawStreamData:
	.fnstart
.LFB1603:
	@ args = 0, pretend = 0, frame = 16
	@ frame_needed = 1, uses_anonymous_args = 0
	.movsp ip
	mov	ip, sp	@,
	stmfd	sp!, {r4, r5, r6, r7, r8, fp, ip, lr, pc}	@,
	.pad #4
	.save {r4, r5, r6, r7, r8, fp, ip, lr}
	.setfp fp, ip, #-4
	sub	fp, ip, #4	@,,
	.pad #20
	sub	sp, sp, #20	@,,
	push	{lr}
	bl	__gnu_mcount_nc
	add	r7, r0, r0, asl #1	@, tmp146, InstID, InstID,
	movw	r3, #:lower16:.LANCHOR0	@ tmp142,
	movt	r3, #:upper16:.LANCHOR0	@ tmp142,
	add	r7, r3, r7, asl #4	@, tmp148, tmp142, tmp146,
	sub	r4, fp, #48	@ tmp150,,
	mov	r5, r0	@ InstID, InstID
	mov	r8, r1	@ pRawPacket, pRawPacket
	ldr	r6, [r7, #40]	@ pSmInstArray, <variable>.pSmInstArray
	mov	r1, #12	@,
	mov	r0, r4	@, tmp150
	bl	__memzero	@
	cmp	r6, #0	@ pSmInstArray,
	beq	.L864	@,
	mov	r0, r5	@, InstID
	bl	VCTRL_GetStreamInterface	@
	subs	r3, r0, #0	@ pStreamIntf,
	beq	.L874	@,
	ldmia	r3, {r0, r1, r2}	@ pStreamIntf,,,
	stmia	r4, {r0, r1, r2}	@ tmp150,,,
	ldr	r0, [r3, #4]	@ <variable>.read_stream, <variable>.read_stream
	cmp	r0, #0	@ <variable>.read_stream,
	beq	.L864	@,
	ldr	r1, [r6, #92]	@ <variable>.Config.IsOmxPath, <variable>.Config.IsOmxPath
	cmp	r1, #1	@ <variable>.Config.IsOmxPath,
	beq	.L875	@,
	movw	r0, #:lower16:g_TaskLock	@,
	movt	r0, #:upper16:g_TaskLock	@,
	bl	OSAL_SpinUnLockIRQ	@
	mov	r1, r8	@, pRawPacket
	ldr	r4, [fp, #-44]	@ StreamIntf.read_stream, StreamIntf.read_stream
	ldr	r0, [fp, #-48]	@, StreamIntf.stream_provider_inst_id
	blx	r4	@ StreamIntf.read_stream
	mov	r4, r0	@ ret,
	movw	r0, #:lower16:g_TaskLock	@,
	movt	r0, #:upper16:g_TaskLock	@,
	bl	OSAL_SpinLockIRQ	@
	ldr	r0, [r7, #40]	@ <variable>.pSmInstArray, <variable>.pSmInstArray
	cmp	r0, #0	@ <variable>.pSmInstArray,
	beq	.L876	@,
.L866:
	cmp	r4, #0	@ ret,
	bne	.L864	@,
	ldrb	r7, [r8, #53]	@ zero_extendqisi2	@ <variable>.is_stream_end_flag, <variable>.is_stream_end_flag
	cmp	r7, #1	@ <variable>.is_stream_end_flag,
	beq	.L877	@,
	ldr	ip, [r6, #92]	@ <variable>.Config.IsOmxPath, <variable>.Config.IsOmxPath
	cmp	ip, #1	@ <variable>.Config.IsOmxPath,
	beq	.L878	@,
.L869:
	movw	r3, #:lower16:98524	@ tmp177,
	movt	r3, #:upper16:98524	@ tmp177,
	ldr	r1, [r8, #8]	@ <variable>.Length, <variable>.Length
	ldr	r0, [r6, r3]	@ <variable>.RawPacketArray.RawTotalSize, <variable>.RawPacketArray.RawTotalSize
	add	lr, r1, r0	@ tmp181, <variable>.Length, <variable>.RawPacketArray.RawTotalSize
	str	lr, [r6, r3]	@ tmp181, <variable>.RawPacketArray.RawTotalSize
	b	.L863	@
.L864:
	mvn	r4, #6	@ ret,
.L863:
	mov	r0, r4	@, ret
	sub	sp, fp, #32
	ldmfd	sp, {r4, r5, r6, r7, r8, fp, sp, pc}
.L875:
	mov	r1, r8	@, pRawPacket
	ldr	r0, [fp, #-48]	@, StreamIntf.stream_provider_inst_id
	ldr	r2, [fp, #-44]	@ StreamIntf.read_stream, StreamIntf.read_stream
	blx	r2	@ StreamIntf.read_stream
	mov	r4, r0	@ ret,
	b	.L866	@
.L877:
	mov	r0, r5	@, InstID
	mov	r1, r8	@, pRawPacket
	bl	FillEosRawStream	@
	cmp	r0, #0	@,
	bne	.L879	@,
	mov	r0, r5	@, InstID
	mov	r1, r7	@, <variable>.is_stream_end_flag
	bl	VCTRL_SetLastFrameState	@
	b	.L869	@
.L878:
	mov	r0, r5	@, InstID
	mov	r1, r8	@, pRawPacket
	bl	FillExtraData	@
	cmp	r0, #0	@,
	beq	.L869	@,
	mov	r2, r5	@, InstID
	mov	r0, r4	@, ret
	movw	r1, #:lower16:.LC143	@,
	movt	r1, #:upper16:.LC143	@,
	bl	dprint_vfmw	@
	mov	r1, r8	@, pRawPacket
	ldr	r0, [fp, #-48]	@, StreamIntf.stream_provider_inst_id
	bl	ReleaseRawStreamData	@
	cmp	r0, #0	@,
	beq	.L864	@,
	mov	r0, r4	@, ret
	movw	r1, #:lower16:.LC144	@,
	movt	r1, #:upper16:.LC144	@,
	mvn	r4, #6	@ ret,
	bl	dprint_vfmw	@
	b	.L863	@
.L879:
	mov	r0, r4	@, ret
	mov	r2, r5	@, InstID
	movw	r1, #:lower16:.LC142	@,
	movt	r1, #:upper16:.LC142	@,
	bl	dprint_vfmw	@
	mvn	r4, #6	@ ret,
	b	.L863	@
.L874:
	mov	r2, r5	@, InstID
	movw	r1, #:lower16:.LC140	@,
	movt	r1, #:upper16:.LC140	@,
	mvn	r4, #6	@ ret,
	bl	dprint_vfmw	@
	b	.L863	@
.L876:
	mov	r3, r5	@, InstID
	movw	r1, #:lower16:.LC141	@,
	movw	r2, #4683	@,
	movt	r1, #:upper16:.LC141	@,
	mvn	r4, #6	@ ret,
	bl	dprint_vfmw	@
	b	.L863	@
	.fnend
	.size	ReadRawStreamData, .-ReadRawStreamData
	.global	__aeabi_uidiv
	.align	2
	.global	FillRawData
	.type	FillRawData, %function
FillRawData:
	.fnstart
.LFB1600:
	@ args = 0, pretend = 0, frame = 120
	@ frame_needed = 1, uses_anonymous_args = 0
	.movsp ip
	mov	ip, sp	@,
	stmfd	sp!, {r4, r5, r6, r7, r8, r9, sl, fp, ip, lr, pc}	@,
	.pad #4
	.save {r4, r5, r6, r7, r8, r9, sl, fp, ip, lr}
	.setfp fp, ip, #-4
	sub	fp, ip, #4	@,,
	.pad #124
	sub	sp, sp, #124	@,,
	push	{lr}
	bl	__gnu_mcount_nc
	mov	r5, r0	@ InstID, InstID
	add	r0, r0, r0, asl #1	@, tmp160, InstID, InstID,
	movw	r6, #:lower16:.LANCHOR0	@ tmp368,
	movt	r6, #:upper16:.LANCHOR0	@ tmp368,
	mov	r1, #96	@,
	add	r3, r6, r0, asl #4	@, tmp162, tmp368, tmp160,
	sub	r0, fp, #140	@,,
	ldr	r4, [r3, #40]	@ pSmInstArray, <variable>.pSmInstArray
	bl	__memzero	@
	cmp	r4, #0	@ pSmInstArray,
	beq	.L903	@,
	ldr	r1, [r4, #56]	@ <variable>.Config.VidStd, <variable>.Config.VidStd
	cmp	r1, #18	@ <variable>.Config.VidStd,
	beq	.L903	@,
	ldr	r3, [r4, #84]	@ D.52141, <variable>.Config.DisContinueRawPacketFlag
	cmp	r3, #1	@ D.52141,
	beq	.L903	@,
	cmp	r3, #2	@ D.52141,
	movne	r0, r5, asl #24	@, InstID,
	strne	r0, [fp, #-156]	@, %sfp
	beq	.L915	@,
.L911:
	add	r2, r6, r5, asl #2	@, tmp375, tmp368, InstID,
	movw	r7, #:lower16:204756	@ tmp372,
	movw	r6, #:lower16:204728	@ tmp371,
	movw	sl, #:lower16:204752	@ tmp373,
	movt	r6, #:upper16:204728	@ tmp371,
	movt	r7, #:upper16:204756	@ tmp372,
	movt	sl, #:upper16:204752	@ tmp373,
	add	lr, r2, #936	@, tmp375,
	movw	r1, #:lower16:g_TraceBsPeriod	@,
	movw	ip, #:lower16:vfmw_save_str_file	@,
	movt	r1, #:upper16:g_TraceBsPeriod	@,
	movt	ip, #:upper16:vfmw_save_str_file	@,
	str	lr, [fp, #-152]	@, %sfp
	str	r1, [fp, #-148]	@, %sfp
	str	ip, [fp, #-144]	@, %sfp
.L909:
	ldr	r3, [r4, #92]	@ <variable>.Config.IsOmxPath, <variable>.Config.IsOmxPath
	cmp	r3, #1	@ <variable>.Config.IsOmxPath,
	beq	.L916	@,
.L891:
	mov	r0, r5	@, InstID
	bl	GetRawState	@
	cmp	r0, #0	@,
	bne	.L892	@,
	mov	r0, r5	@, InstID
	sub	r1, fp, #140	@,,
	bl	ReadRawStreamData	@
	cmp	r0, #0	@,
	bne	.L903	@,
	ldr	ip, [r4, #80]	@ prephitmp.3249, <variable>.Config.LastRawDisContinueCount
	cmn	ip, #1	@ prephitmp.3249,
