	.arch armv7-a
	.fpu softvfp
	.eabi_attribute 20, 1
	.eabi_attribute 21, 1
	.eabi_attribute 23, 3
	.eabi_attribute 24, 1
	.eabi_attribute 25, 1
	.eabi_attribute 26, 2
	.eabi_attribute 30, 2
	.eabi_attribute 18, 4
	.file	"vfmw_ctrl.c"
@ GNU C (Hisilicon_v200(gcc4.4-290+glibc-2.11+eabi+nptl)) version 4.4.1 (arm-hisiv200-linux-gnueabi)
@	compiled by GNU C version 4.1.1 20061011 (Red Hat 4.1.1-30), GMP version 4.3.1, MPFR version 2.4.2.
@ GGC heuristics: --param ggc-min-expand=100 --param ggc-min-heapsize=131072
@ options passed:  -nostdinc
@ -I/hihome/HiSTBAndroidV5/images_and_tools/release/hi3798mv100/master_4.4/HiSTBAndroidV5_release/HiSTBAndroidV600R001C00SPC060/device/hisilicon/bigfish/sdk/source/kernel/linux-3.10.y/arch/arm/include
@ -Iarch/arm/include/generated
@ -I/hihome/HiSTBAndroidV5/images_and_tools/release/hi3798mv100/master_4.4/HiSTBAndroidV5_release/HiSTBAndroidV600R001C00SPC060/device/hisilicon/bigfish/sdk/source/kernel/linux-3.10.y/include
@ -Iinclude
@ -I/hihome/HiSTBAndroidV5/images_and_tools/release/hi3798mv100/master_4.4/HiSTBAndroidV5_release/HiSTBAndroidV600R001C00SPC060/device/hisilicon/bigfish/sdk/source/kernel/linux-3.10.y/arch/arm/include/uapi
@ -Iarch/arm/include/generated/uapi
@ -I/hihome/HiSTBAndroidV5/images_and_tools/release/hi3798mv100/master_4.4/HiSTBAndroidV5_release/HiSTBAndroidV600R001C00SPC060/device/hisilicon/bigfish/sdk/source/kernel/linux-3.10.y/include/uapi
@ -Iinclude/generated/uapi
@ -I/hihome/HiSTBAndroidV5/images_and_tools/release/hi3798mv100/master_4.4/HiSTBAndroidV5_release/HiSTBAndroidV600R001C00SPC060/device/hisilicon/bigfish/sdk/source/kernel/linux-3.10.y/drivers/msp/vfmw/vfmw_v4.0
@ -Idrivers/msp/vfmw/vfmw_v4.0
@ -I/hihome/HiSTBAndroidV5/images_and_tools/release/hi3798mv100/master_4.4/HiSTBAndroidV5_release/HiSTBAndroidV600R001C00SPC060/device/hisilicon/bigfish/sdk/source/kernel/linux-3.10.y/arch/arm/mach-hi3798mx/include
@ -I/hihome/HiSTBAndroidV5/images_and_tools/release/hi3798mv100/master_4.4/HiSTBAndroidV5_release/HiSTBAndroidV600R001C00SPC060/device/hisilicon/bigfish/sdk/source/kernel/linux-3.10.y/../../../source/common/include
@ -I/hihome/HiSTBAndroidV5/images_and_tools/release/hi3798mv100/master_4.4/HiSTBAndroidV5_release/HiSTBAndroidV600R001C00SPC060/device/hisilicon/bigfish/sdk/source/kernel/linux-3.10.y/../../../source/common/drv/include
@ -I/hihome/HiSTBAndroidV5/images_and_tools/release/hi3798mv100/master_4.4/HiSTBAndroidV5_release/HiSTBAndroidV600R001C00SPC060/device/hisilicon/bigfish/sdk/source/kernel/linux-3.10.y/../../../source/msp/drv/vfmw/vfmw_v4.0
@ -I/hihome/HiSTBAndroidV5/images_and_tools/release/hi3798mv100/master_4.4/HiSTBAndroidV5_release/HiSTBAndroidV600R001C00SPC060/device/hisilicon/bigfish/sdk/source/kernel/linux-3.10.y/../../../source/msp/drv/vfmw/vfmw_v4.0/scene/stb
@ -I/hihome/HiSTBAndroidV5/images_and_tools/release/hi3798mv100/master_4.4/HiSTBAndroidV5_release/HiSTBAndroidV600R001C00SPC060/device/hisilicon/bigfish/sdk/source/kernel/linux-3.10.y/../../../source/msp/drv/vfmw/vfmw_v4.0/firmware/common
@ -I/hihome/HiSTBAndroidV5/images_and_tools/release/hi3798mv100/master_4.4/HiSTBAndroidV5_release/HiSTBAndroidV600R001C00SPC060/device/hisilicon/bigfish/sdk/source/kernel/linux-3.10.y/../../../source/msp/drv/vfmw/vfmw_v4.0/firmware/osal/linux_kernel
@ -I/hihome/HiSTBAndroidV5/images_and_tools/release/hi3798mv100/master_4.4/HiSTBAndroidV5_release/HiSTBAndroidV600R001C00SPC060/device/hisilicon/bigfish/sdk/source/kernel/linux-3.10.y/../../../source/msp/drv/vfmw/vfmw_v4.0/firmware/common/softlib
@ -I/hihome/HiSTBAndroidV5/images_and_tools/release/hi3798mv100/master_4.4/HiSTBAndroidV5_release/HiSTBAndroidV600R001C00SPC060/device/hisilicon/bigfish/sdk/source/kernel/linux-3.10.y/../../../source/msp/drv/vfmw/vfmw_v4.0/firmware/common/syntax
@ -I/hihome/HiSTBAndroidV5/images_and_tools/release/hi3798mv100/master_4.4/HiSTBAndroidV5_release/HiSTBAndroidV600R001C00SPC060/device/hisilicon/bigfish/sdk/source/kernel/linux-3.10.y/../../../source/msp/drv/vfmw/vfmw_v4.0/firmware/driver/HiSCDV200
@ -I/hihome/HiSTBAndroidV5/images_and_tools/release/hi3798mv100/master_4.4/HiSTBAndroidV5_release/HiSTBAndroidV600R001C00SPC060/device/hisilicon/bigfish/sdk/source/kernel/linux-3.10.y/../../../source/msp/drv/vfmw/vfmw_v4.0/firmware/driver/HiVDHV300R001
@ -I/hihome/HiSTBAndroidV5/images_and_tools/release/hi3798mv100/master_4.4/HiSTBAndroidV5_release/HiSTBAndroidV600R001C00SPC060/device/hisilicon/bigfish/sdk/source/kernel/linux-3.10.y/../../../source/msp/drv/vfmw/vfmw_v4.0/firmware/product/Hi3798MV100
@ -I/hihome/HiSTBAndroidV5/images_and_tools/release/hi3798mv100/master_4.4/HiSTBAndroidV5_release/HiSTBAndroidV600R001C00SPC060/device/hisilicon/bigfish/sdk/source/kernel/linux-3.10.y/../../../source/msp/drv/vfmw/vfmw_v4.0/firmware/common_test/vdecko
@ -imultilib armv7a_soft -iprefix
@ /opt/hisi-linux/x86-arm/arm-hisiv200-linux/bin/../lib/gcc/arm-hisiv200-linux-gnueabi/4.4.1/
@ -isysroot /opt/hisi-linux/x86-arm/arm-hisiv200-linux/bin/../target
@ -D__KERNEL__ -D__LINUX_ARM_ARCH__=7 -Uarm -DCHIP_TYPE_hi3796mv100
@ -DSDK_VERSION=HiSTBAndroidV600R001C00SPC060_v2015040918 -DHI_MCE_SUPPORT
@ -DHI_GPIOI2C_SUPPORT -DHI_LOG_SUPPORT=1 -DHI_LOG_LEVEL=4
@ -DHI_PROC_SUPPORT=1 -DHI_HDMI_SUPPORT_1_4 -DHI_KEYLED_SUPPORT
@ -DHI_HDCP_SUPPORT -DHI_SCI_SUPPORT -DHI_PVR_SUPPORT -DHI_VI_SUPPORT
@ -DHI_VENC_SUPPORT -DHI_AENC_SUPPORT -DHI_PQ_V3_0 -DENV_ARMLINUX_KERNEL
@ -DDNR_DISABLE -DSCD_MP4_SLICE_ENABLE -DSUPPORT_JPEG_444
@ -DVFMW_EXTRA_TYPE_DEFINE -DPRODUCT_STB -D__VFMW_REGISTER_ISR__
@ -DQ_MATRIX_FIXED -DVFMW_VDH_V300R001_SUPPORT -DCFG_SCD_TIME_OUT=2000
@ -DCFG_VDH_TIME_OUT=500 -DVFMW_H264_SUPPORT -DVFMW_HEVC_SUPPORT
@ -DVFMW_MVC_SUPPORT -DVFMW_MPEG2_SUPPORT -DVFMW_MPEG4_SUPPORT
@ -DVFMW_AVS_SUPPORT -DVFMW_VC1_SUPPORT -DVFMW_BPD_H_SUPPORT
@ -DVFMW_REAL8_SUPPORT -DVFMW_REAL9_SUPPORT -DVFMW_VP6_SUPPORT
@ -DVFMW_VP8_SUPPORT -DVFMW_DIVX3_SUPPORT -DVFMW_H263_SUPPORT
@ -DVFMW_JPEG_SUPPORT -DVFMW_RAW_SUPPORT -DVFMW_USER_SUPPORT
@ -DCFG_MAX_CHAN_NUM=16 -DVFMW_DPRINT_SUPPORT -DVFMW_SCD_LOWDLY_SUPPORT
@ -DVFMW_AVSPLUS_SUPPORT -DVFMW_MODULE_LOWDLY_SUPPORT
@ -DVFMW_SYSTEM_REG_DISABLE -DHI_VDEC_SVDEC_BUILTIN -DKBUILD_STR(s)=#s
@ -DKBUILD_BASENAME=KBUILD_STR(vfmw_ctrl)
@ -DKBUILD_MODNAME=KBUILD_STR(hi_vfmw) -isystem
@ /opt/hisi-linux/x86-arm/arm-hisiv200-linux/bin/../lib/gcc/arm-hisiv200-linux-gnueabi/4.4.1/include
@ -include
@ /hihome/HiSTBAndroidV5/images_and_tools/release/hi3798mv100/master_4.4/HiSTBAndroidV5_release/HiSTBAndroidV600R001C00SPC060/device/hisilicon/bigfish/sdk/source/kernel/linux-3.10.y/include/linux/kconfig.h
@ -MD drivers/msp/vfmw/vfmw_v4.0/firmware/common/.vfmw_ctrl.o.d
@ /hihome/HiSTBAndroidV5/images_and_tools/release/hi3798mv100/master_4.4/HiSTBAndroidV5_release/HiSTBAndroidV600R001C00SPC060/device/hisilicon/bigfish/sdk/source/kernel/linux-3.10.y/drivers/msp/vfmw/vfmw_v4.0/firmware/common/vfmw_ctrl.c
@ -mlittle-endian -mapcs -mno-sched-prolog -mabi=aapcs-linux
@ -mno-thumb-interwork -marm -march=armv7-a -msoft-float -auxbase-strip
@ drivers/msp/vfmw/vfmw_v4.0/firmware/common/vfmw_ctrl.o -O2 -Wall -Wundef
@ -Wstrict-prototypes -Wno-trigraphs -Werror-implicit-function-declaration
@ -Wno-format-security -Wframe-larger-than=1024
@ -Wdeclaration-after-statement -Wno-pointer-sign -p -fno-strict-aliasing
@ -fno-common -fno-delete-null-pointer-checks -fno-dwarf2-cfi-asm
@ -funwind-tables -fno-stack-protector -fno-omit-frame-pointer
@ -fno-optimize-sibling-calls -fno-strict-overflow -fconserve-stack
@ -fno-pic -fverbose-asm
@ options enabled:  -falign-loops -fargument-alias -fauto-inc-dec
@ -fbranch-count-reg -fcaller-saves -fcprop-registers -fcrossjumping
@ -fcse-follow-jumps -fdefer-pop -fearly-inlining
@ -feliminate-unused-debug-types -fexpensive-optimizations
@ -fforward-propagate -ffunction-cse -fgcse -fgcse-lm
@ -fguess-branch-probability -fident -fif-conversion -fif-conversion2
@ -findirect-inlining -finline -finline-functions-called-once
@ -finline-small-functions -fipa-cp -fipa-pure-const -fipa-reference
@ -fira-share-save-slots -fira-share-spill-slots -fivopts
@ -fkeep-static-consts -fleading-underscore -fmath-errno -fmerge-constants
@ -fmerge-debug-strings -fmove-loop-invariants -foptimize-register-move
@ -fpeephole -fpeephole2 -fprofile -fpromote-loop-indices
@ -freg-struct-return -fregmove -frename-registers -freorder-blocks
@ -freorder-functions -frerun-cse-after-loop -fsched-interblock
@ -fsched-spec -fsched-stalled-insns-dep -fschedule-insns -fschedule-insns2
@ -fsection-anchors -fsigned-zeros -fsplit-ivs-in-unroller
@ -fsplit-wide-types -fthread-jumps -ftoplevel-reorder -ftrapping-math
@ -ftree-builtin-call-dce -ftree-ccp -ftree-ch -ftree-copy-prop
@ -ftree-copyrename -ftree-cselim -ftree-dce -ftree-dominator-opts
@ -ftree-dse -ftree-fre -ftree-loop-im -ftree-loop-ivcanon
@ -ftree-loop-optimize -ftree-parallelize-loops= -ftree-pre -ftree-reassoc
@ -ftree-scev-cprop -ftree-sink -ftree-sra -ftree-switch-conversion
@ -ftree-ter -ftree-vect-loop-version -ftree-vrp -funit-at-a-time
@ -funroll-loops -funwind-tables -fverbose-asm -fweb
@ -fzero-initialized-in-bss -mapcs-frame -mglibc -mlittle-endian

@ Compiler executable checksum: fa59e0bd179ef45b3a3c3e6f3383fdac

	.text
	.align	2
	.global	VCTRL_GetFrameInterface
	.type	VCTRL_GetFrameInterface, %function
VCTRL_GetFrameInterface:
	.fnstart
.LFB1555:
	@ args = 0, pretend = 0, frame = 0
	@ frame_needed = 1, uses_anonymous_args = 0
	.movsp ip
	mov	ip, sp	@,
	stmfd	sp!, {fp, ip, lr, pc}	@,
	.pad #4
	.save {fp, ip, lr}
	.setfp fp, ip, #-4
	sub	fp, ip, #4	@,,
	push	{lr}
	bl	__gnu_mcount_nc
	movw	r3, #:lower16:.LANCHOR0	@ tmp137,
	movt	r3, #:upper16:.LANCHOR0	@ tmp137,
	ldr	r0, [r3, r0, asl #2]	@ D.39224, s_pstVfmwChan
	cmp	r0, #0	@ D.39224,
	addne	r0, r0, #164	@ D.39227, D.39224,
	ldmfd	sp, {fp, sp, pc}	@
	.fnend
	.size	VCTRL_GetFrameInterface, .-VCTRL_GetFrameInterface
	.align	2
	.global	VCTRL_GetSyntaxCtx
	.type	VCTRL_GetSyntaxCtx, %function
VCTRL_GetSyntaxCtx:
	.fnstart
.LFB1558:
	@ args = 0, pretend = 0, frame = 0
	@ frame_needed = 1, uses_anonymous_args = 0
	.movsp ip
	mov	ip, sp	@,
	stmfd	sp!, {fp, ip, lr, pc}	@,
	.pad #4
	.save {fp, ip, lr}
	.setfp fp, ip, #-4
	sub	fp, ip, #4	@,,
	push	{lr}
	bl	__gnu_mcount_nc
	movw	r3, #:lower16:.LANCHOR0	@ tmp137,
	movt	r3, #:upper16:.LANCHOR0	@ tmp137,
	ldr	r0, [r3, r0, asl #2]	@ D.39273, s_pstVfmwChan
	cmp	r0, #0	@ D.39273,
	addne	r0, r0, #250880	@ D.39276, D.39273,
	addne	r0, r0, #608	@ D.39276, D.39276,
	ldmfd	sp, {fp, sp, pc}	@
	.fnend
	.size	VCTRL_GetSyntaxCtx, .-VCTRL_GetSyntaxCtx
	.align	2
	.global	VCTRL_GetImageInterface
	.type	VCTRL_GetImageInterface, %function
VCTRL_GetImageInterface:
	.fnstart
.LFB1560:
	@ args = 0, pretend = 0, frame = 0
	@ frame_needed = 1, uses_anonymous_args = 0
	.movsp ip
	mov	ip, sp	@,
	stmfd	sp!, {fp, ip, lr, pc}	@,
	.pad #4
	.save {fp, ip, lr}
	.setfp fp, ip, #-4
	sub	fp, ip, #4	@,,
	push	{lr}
	bl	__gnu_mcount_nc
	movw	r3, #:lower16:.LANCHOR0	@ tmp137,
	movt	r3, #:upper16:.LANCHOR0	@ tmp137,
	ldr	r0, [r3, r0, asl #2]	@ D.39334, s_pstVfmwChan
	cmp	r0, #0	@ D.39334,
	addne	r0, r0, #152	@ D.39337, D.39334,
	ldmfd	sp, {fp, sp, pc}	@
	.fnend
	.size	VCTRL_GetImageInterface, .-VCTRL_GetImageInterface
	.align	2
	.global	VCTRL_GetChanCtxSize
	.type	VCTRL_GetChanCtxSize, %function
VCTRL_GetChanCtxSize:
	.fnstart
.LFB1565:
	@ args = 0, pretend = 0, frame = 0
	@ frame_needed = 1, uses_anonymous_args = 0
	.movsp ip
	mov	ip, sp	@,
	stmfd	sp!, {fp, ip, lr, pc}	@,
	.pad #4
	.save {fp, ip, lr}
	.setfp fp, ip, #-4
	sub	fp, ip, #4	@,,
	push	{lr}
	bl	__gnu_mcount_nc
	cmp	r0, #26	@ eCapLevel,
	movweq	r3, #:lower16:11613104	@ tmp135,
	movwne	r3, #:lower16:4780440	@ tmp136,
	movteq	r3, #:upper16:11613104	@ tmp135,
	movtne	r3, #:upper16:4780440	@ tmp136,
	str	r3, [r1, #0]	@ tmp136,* s32ChanCtxSize
	ldmfd	sp, {fp, sp, pc}	@
	.fnend
	.size	VCTRL_GetChanCtxSize, .-VCTRL_GetChanCtxSize
	.align	2
	.global	VCTRL_CmpConfigParameter
	.type	VCTRL_CmpConfigParameter, %function
VCTRL_CmpConfigParameter:
	.fnstart
.LFB1576:
	@ args = 0, pretend = 0, frame = 0
	@ frame_needed = 1, uses_anonymous_args = 0
	.movsp ip
	mov	ip, sp	@,
	stmfd	sp!, {fp, ip, lr, pc}	@,
	.pad #4
	.save {fp, ip, lr}
	.setfp fp, ip, #-4
	sub	fp, ip, #4	@,,
	push	{lr}
	bl	__gnu_mcount_nc
	movw	r3, #:lower16:.LANCHOR0	@ tmp139,
	movt	r3, #:upper16:.LANCHOR0	@ tmp139,
	ldr	r3, [r3, r0, asl #2]	@ D.40196, s_pstVfmwChan
	ldr	r2, [r3, #1032]	@ <variable>.eVidStd, <variable>.eVidStd
	cmp	r2, #19	@ <variable>.eVidStd,
	bne	.L24	@,
.L18:
	mvn	r0, #0	@ D.40249,
	ldmfd	sp, {fp, sp, pc}	@
.L24:
	ldr	r2, [r3, #48]	@ D.40201, <variable>.stChanCfg.eVidStd
	ldr	r0, [r1, #0]	@ <variable>.eVidStd, <variable>.eVidStd
	cmp	r2, r0	@ D.40201, <variable>.eVidStd
	bne	.L18	@,
	ldr	ip, [r3, #64]	@ <variable>.stChanCfg.s32ChanErrThr, <variable>.stChanCfg.s32ChanErrThr
	ldr	r0, [r1, #16]	@ <variable>.s32ChanErrThr, <variable>.s32ChanErrThr
	cmp	ip, r0	@ <variable>.stChanCfg.s32ChanErrThr, <variable>.s32ChanErrThr
	bne	.L18	@,
	ldr	ip, [r3, #60]	@ <variable>.stChanCfg.s32ChanPriority, <variable>.stChanCfg.s32ChanPriority
	ldr	r0, [r1, #12]	@ <variable>.s32ChanPriority, <variable>.s32ChanPriority
	cmp	ip, r0	@ <variable>.stChanCfg.s32ChanPriority, <variable>.s32ChanPriority
	bne	.L18	@,
	ldr	ip, [r3, #68]	@ <variable>.stChanCfg.s32ChanStrmOFThr, <variable>.stChanCfg.s32ChanStrmOFThr
	ldr	r0, [r1, #20]	@ <variable>.s32ChanStrmOFThr, <variable>.s32ChanStrmOFThr
	cmp	ip, r0	@ <variable>.stChanCfg.s32ChanStrmOFThr, <variable>.s32ChanStrmOFThr
	bne	.L18	@,
	ldr	ip, [r3, #72]	@ <variable>.stChanCfg.s32DecMode, <variable>.stChanCfg.s32DecMode
	ldr	r0, [r1, #24]	@ <variable>.s32DecMode, <variable>.s32DecMode
	cmp	ip, r0	@ <variable>.stChanCfg.s32DecMode, <variable>.s32DecMode
	bne	.L18	@,
	ldr	ip, [r3, #76]	@ <variable>.stChanCfg.s32DecOrderOutput, <variable>.stChanCfg.s32DecOrderOutput
	ldr	r0, [r1, #28]	@ <variable>.s32DecOrderOutput, <variable>.s32DecOrderOutput
	cmp	ip, r0	@ <variable>.stChanCfg.s32DecOrderOutput, <variable>.s32DecOrderOutput
	bne	.L18	@,
	ldr	ip, [r3, #84]	@ <variable>.stChanCfg.s32DnrDispOutEnable, <variable>.stChanCfg.s32DnrDispOutEnable
	ldr	r0, [r1, #36]	@ <variable>.s32DnrDispOutEnable, <variable>.s32DnrDispOutEnable
	cmp	ip, r0	@ <variable>.stChanCfg.s32DnrDispOutEnable, <variable>.s32DnrDispOutEnable
	bne	.L18	@,
	ldr	ip, [r3, #80]	@ <variable>.stChanCfg.s32DnrTfEnable, <variable>.stChanCfg.s32DnrTfEnable
	ldr	r0, [r1, #32]	@ <variable>.s32DnrTfEnable, <variable>.s32DnrTfEnable
	cmp	ip, r0	@ <variable>.stChanCfg.s32DnrTfEnable, <variable>.s32DnrTfEnable
	bne	.L18	@,
	ldr	ip, [r3, #100]	@ <variable>.stChanCfg.s32VcmpEn, <variable>.stChanCfg.s32VcmpEn
	ldr	r0, [r1, #52]	@ <variable>.s32VcmpEn, <variable>.s32VcmpEn
	cmp	ip, r0	@ <variable>.stChanCfg.s32VcmpEn, <variable>.s32VcmpEn
	bne	.L18	@,
	ldr	ip, [r3, #112]	@ <variable>.stChanCfg.s32VcmpWmEndLine, <variable>.stChanCfg.s32VcmpWmEndLine
	ldr	r0, [r1, #64]	@ <variable>.s32VcmpWmEndLine, <variable>.s32VcmpWmEndLine
	cmp	ip, r0	@ <variable>.stChanCfg.s32VcmpWmEndLine, <variable>.s32VcmpWmEndLine
	bne	.L18	@,
	ldr	ip, [r3, #108]	@ <variable>.stChanCfg.s32VcmpWmStartLine, <variable>.stChanCfg.s32VcmpWmStartLine
	ldr	r0, [r1, #60]	@ <variable>.s32VcmpWmStartLine, <variable>.s32VcmpWmStartLine
	cmp	ip, r0	@ <variable>.stChanCfg.s32VcmpWmStartLine, <variable>.s32VcmpWmStartLine
	bne	.L18	@,
	ldr	ip, [r3, #104]	@ <variable>.stChanCfg.s32WmEn, <variable>.stChanCfg.s32WmEn
	ldr	r0, [r1, #56]	@ <variable>.s32WmEn, <variable>.s32WmEn
	cmp	ip, r0	@ <variable>.stChanCfg.s32WmEn, <variable>.s32WmEn
	bne	.L18	@,
	ldr	ip, [r3, #116]	@ <variable>.stChanCfg.s32SupportAllP, <variable>.stChanCfg.s32SupportAllP
	ldr	r0, [r1, #68]	@ <variable>.s32SupportAllP, <variable>.s32SupportAllP
	cmp	ip, r0	@ <variable>.stChanCfg.s32SupportAllP, <variable>.s32SupportAllP
	bne	.L18	@,
	cmp	r2, #1	@ D.40201,
	beq	.L25	@,
	sub	r0, r2, #10	@ tmp170, D.40201,
	cmp	r0, #2	@ tmp170,
	bhi	.L20	@,
	ldr	r2, [r3, #52]	@ <variable>.stChanCfg.StdExt.Vp6Ext.bReversed, <variable>.stChanCfg.StdExt.Vp6Ext.bReversed
	ldr	ip, [r1, #4]	@ <variable>.StdExt.Vp6Ext.bReversed, <variable>.StdExt.Vp6Ext.bReversed
	cmp	r2, ip	@ <variable>.stChanCfg.StdExt.Vp6Ext.bReversed, <variable>.StdExt.Vp6Ext.bReversed
	bne	.L18	@,
.L20:
	mov	r0, #0	@ D.40249,
	ldmfd	sp, {fp, sp, pc}	@
.L25:
	ldr	r0, [r3, #52]	@ <variable>.stChanCfg.StdExt.Vc1Ext.IsAdvProfile, <variable>.stChanCfg.StdExt.Vc1Ext.IsAdvProfile
	ldr	r2, [r1, #4]	@ <variable>.StdExt.Vc1Ext.IsAdvProfile, <variable>.StdExt.Vc1Ext.IsAdvProfile
	cmp	r0, r2	@ <variable>.stChanCfg.StdExt.Vc1Ext.IsAdvProfile, <variable>.StdExt.Vc1Ext.IsAdvProfile
	bne	.L18	@,
	ldr	ip, [r3, #56]	@ <variable>.stChanCfg.StdExt.Vc1Ext.CodecVersion, <variable>.stChanCfg.StdExt.Vc1Ext.CodecVersion
	ldr	r3, [r1, #8]	@ <variable>.StdExt.Vc1Ext.CodecVersion, <variable>.StdExt.Vc1Ext.CodecVersion
	cmp	ip, r3	@ <variable>.stChanCfg.StdExt.Vc1Ext.CodecVersion, <variable>.StdExt.Vc1Ext.CodecVersion
	beq	.L20	@,
	b	.L18	@
	.fnend
	.size	VCTRL_CmpConfigParameter, .-VCTRL_CmpConfigParameter
	.align	2
	.global	VCTRL_IsChanSegEnough
	.type	VCTRL_IsChanSegEnough, %function
VCTRL_IsChanSegEnough:
	.fnstart
.LFB1597:
	@ args = 0, pretend = 0, frame = 0
	@ frame_needed = 1, uses_anonymous_args = 0
	.movsp ip
	mov	ip, sp	@,
	stmfd	sp!, {fp, ip, lr, pc}	@,
	.pad #4
	.save {fp, ip, lr}
	.setfp fp, ip, #-4
	sub	fp, ip, #4	@,,
	push	{lr}
	bl	__gnu_mcount_nc
	movw	r1, #:lower16:.LANCHOR0	@ tmp136,
	movt	r1, #:upper16:.LANCHOR0	@ tmp136,
	ldr	r3, [r1, r0, asl #2]	@ tmp137, s_pstVfmwChan
	ldr	r0, [r3, #816]	@ <variable>.s32NoStreamFlag, <variable>.s32NoStreamFlag
	subs	r0, r0, #1	@, <variable>.s32NoStreamFlag,
	movne	r0, #1	@
	ldmfd	sp, {fp, sp, pc}	@
	.fnend
	.size	VCTRL_IsChanSegEnough, .-VCTRL_IsChanSegEnough
	.align	2
	.global	VCTRL_IsChanActive
	.type	VCTRL_IsChanActive, %function
VCTRL_IsChanActive:
	.fnstart
.LFB1598:
	@ args = 0, pretend = 0, frame = 0
	@ frame_needed = 1, uses_anonymous_args = 0
	.movsp ip
	mov	ip, sp	@,
	stmfd	sp!, {fp, ip, lr, pc}	@,
	.pad #4
	.save {fp, ip, lr}
	.setfp fp, ip, #-4
	sub	fp, ip, #4	@,,
	push	{lr}
	bl	__gnu_mcount_nc
	cmp	r0, #15	@ ChanID,
	bls	.L32	@,
.L29:
	mvn	r0, #0	@ D.41415,
	ldmfd	sp, {fp, sp, pc}	@
.L32:
	movw	r3, #:lower16:.LANCHOR0	@ tmp137,
	movt	r3, #:upper16:.LANCHOR0	@ tmp137,
	ldr	r3, [r3, r0, asl #2]	@ D.41414, s_pstVfmwChan
	cmp	r3, #0	@ D.41414,
	beq	.L29	@,
	ldr	r2, [r3, #12]	@ <variable>.s32IsOpen, <variable>.s32IsOpen
	cmp	r2, #0	@ <variable>.s32IsOpen,
	beq	.L29	@,
	ldr	r1, [r3, #16]	@ <variable>.s32IsRun, <variable>.s32IsRun
	cmp	r1, #0	@ <variable>.s32IsRun,
	beq	.L29	@,
	ldr	ip, [r3, #24]	@ <variable>.s32Priority, <variable>.s32Priority
	cmp	ip, #0	@ <variable>.s32Priority,
	beq	.L29	@,
	ldr	r3, [r3, #1032]	@ <variable>.eVidStd, <variable>.eVidStd
	cmp	r3, #19	@ <variable>.eVidStd,
	movne	r0, #0	@ D.41415,
	ldmnefd	sp, {fp, sp, pc}	@
	b	.L29	@
	.fnend
	.size	VCTRL_IsChanActive, .-VCTRL_IsChanActive
	.align	2
	.global	VCTRL_GetChanMemSizeByResolution
	.type	VCTRL_GetChanMemSizeByResolution, %function
VCTRL_GetChanMemSizeByResolution:
	.fnstart
.LFB1606:
	@ args = 0, pretend = 0, frame = 944
	@ frame_needed = 1, uses_anonymous_args = 0
	.movsp ip
	mov	ip, sp	@,
	stmfd	sp!, {r4, r5, fp, ip, lr, pc}	@,
	.pad #4
	.save {r4, r5, fp, ip, lr}
	.setfp fp, ip, #-4
	sub	fp, ip, #4	@,,
	.pad #968
	sub	sp, sp, #968	@,,
	push	{lr}
	bl	__gnu_mcount_nc
	movw	ip, #:lower16:g_vdm_hal_fun_ptr	@ tmp141,
	movt	ip, #:upper16:g_vdm_hal_fun_ptr	@ tmp141,
	mov	r5, r2	@ VdmMemSize, VdmMemSize
	mov	r4, r3	@ ScdMemSize, ScdMemSize
	ldr	ip, [ip, #36]	@ D.41796, g_vdm_hal_fun_ptr.pfun_VDMHAL_ArrangeMem
	cmp	ip, #0	@ D.41796,
	beq	.L34	@,
	mov	r2, r0	@, MaxWidth
	mov	r3, r1	@, MaxHeight
	mov	r0, #6	@ tmp142,
	mov	r1, #16	@ tmp143,
	str	r0, [sp, #0]	@ tmp142,
	mov	lr, #0	@ tmp144,
	str	r1, [sp, #4]	@ tmp143,
	mvn	r0, #0	@ tmp145,
	sub	r1, fp, #960	@ tmp147,,
	str	r0, [sp, #12]	@ tmp145,
	str	r1, [sp, #16]	@ tmp147,
	mov	r0, #1	@,
	str	lr, [sp, #8]	@ tmp144,
	mvn	r1, #-2147483648	@,
	blx	ip	@ D.41796
	cmp	r0, #0	@ ret
	bne	.L34	@,
	ldr	r2, [fp, #-956]	@ MemArrange.TotalMemUsed, MemArrange.TotalMemUsed
	mov	r3, #2129920	@ tmp149,
	str	r2, [r5, #0]	@ MemArrange.TotalMemUsed,* VdmMemSize
	str	r3, [r4, #0]	@ tmp149,* ScdMemSize
	str	r2, [r5, #4]	@ MemArrange.TotalMemUsed,
	str	r3, [r4, #4]	@ tmp149,
	str	r2, [r5, #8]	@ MemArrange.TotalMemUsed,
	str	r3, [r4, #8]	@ tmp149,
.L35:
	sub	sp, fp, #20
	ldmfd	sp, {r4, r5, fp, sp, pc}
.L34:
	mvn	r0, #0	@ D.41809,
	b	.L35	@
	.fnend
	.size	VCTRL_GetChanMemSizeByResolution, .-VCTRL_GetChanMemSizeByResolution
	.align	2
	.global	VCTRL_GetChanIDByCtx
	.type	VCTRL_GetChanIDByCtx, %function
VCTRL_GetChanIDByCtx:
	.fnstart
.LFB1612:
	@ args = 0, pretend = 0, frame = 0
	@ frame_needed = 1, uses_anonymous_args = 0
	.movsp ip
	mov	ip, sp	@,
	stmfd	sp!, {fp, ip, lr, pc}	@,
	.pad #4
	.save {fp, ip, lr}
	.setfp fp, ip, #-4
	sub	fp, ip, #4	@,,
	push	{lr}
	bl	__gnu_mcount_nc
	movw	r3, #:lower16:.LANCHOR0	@ tmp201,
	movt	r3, #:upper16:.LANCHOR0	@ tmp201,
	ldr	r2, [r3, #0]	@ temp.1134, s_pstVfmwChan
	cmp	r2, #0	@ temp.1134,
	beq	.L38	@,
	add	r1, r2, #250880	@ tmp153, temp.1134,
	add	r2, r1, #616	@ tmp153, tmp153,
	cmp	r2, r0	@ tmp153, pCtx
	moveq	r0, #0	@ i,
	ldmeqfd	sp, {fp, sp, pc}	@
.L38:
	ldr	r2, [r3, #4]	@ temp.1136, s_pstVfmwChan
	cmp	r2, #0	@ temp.1136,
	beq	.L40	@,
	add	r2, r2, #250880	@ tmp156, temp.1136,
	add	ip, r2, #616	@ tmp156, tmp156,
	cmp	ip, r0	@ tmp156, pCtx
	moveq	r0, #1	@ i,
	ldmeqfd	sp, {fp, sp, pc}	@
.L40:
	ldr	r2, [r3, #8]	@ temp.1138, s_pstVfmwChan
	cmp	r2, #0	@ temp.1138,
	beq	.L41	@,
	add	ip, r2, #250880	@ tmp159, temp.1138,
	add	r1, ip, #616	@ tmp159, tmp159,
	cmp	r1, r0	@ tmp159, pCtx
	moveq	r0, #2	@ i,
	ldmeqfd	sp, {fp, sp, pc}	@
.L41:
	ldr	r2, [r3, #12]	@ temp.1140, s_pstVfmwChan
	cmp	r2, #0	@ temp.1140,
	beq	.L42	@,
	add	r1, r2, #250880	@ tmp162, temp.1140,
	add	r2, r1, #616	@ tmp162, tmp162,
	cmp	r2, r0	@ tmp162, pCtx
	moveq	r0, #3	@ i,
	ldmeqfd	sp, {fp, sp, pc}	@
.L42:
	ldr	r2, [r3, #16]	@ temp.1142, s_pstVfmwChan
	cmp	r2, #0	@ temp.1142,
	beq	.L43	@,
	add	r2, r2, #250880	@ tmp165, temp.1142,
	add	ip, r2, #616	@ tmp165, tmp165,
	cmp	ip, r0	@ tmp165, pCtx
	moveq	r0, #4	@ i,
	ldmeqfd	sp, {fp, sp, pc}	@
.L43:
	ldr	r2, [r3, #20]	@ temp.1144, s_pstVfmwChan
	cmp	r2, #0	@ temp.1144,
	beq	.L44	@,
	add	ip, r2, #250880	@ tmp168, temp.1144,
	add	r1, ip, #616	@ tmp168, tmp168,
	cmp	r1, r0	@ tmp168, pCtx
	moveq	r0, #5	@ i,
	ldmeqfd	sp, {fp, sp, pc}	@
.L44:
	ldr	r2, [r3, #24]	@ temp.1146, s_pstVfmwChan
	cmp	r2, #0	@ temp.1146,
	beq	.L45	@,
	add	r1, r2, #250880	@ tmp171, temp.1146,
	add	r2, r1, #616	@ tmp171, tmp171,
	cmp	r2, r0	@ tmp171, pCtx
	moveq	r0, #6	@ i,
	ldmeqfd	sp, {fp, sp, pc}	@
.L45:
	ldr	r2, [r3, #28]	@ temp.1148, s_pstVfmwChan
	cmp	r2, #0	@ temp.1148,
	beq	.L46	@,
	add	r2, r2, #250880	@ tmp174, temp.1148,
	add	ip, r2, #616	@ tmp174, tmp174,
	cmp	ip, r0	@ tmp174, pCtx
	moveq	r0, #7	@ i,
	ldmeqfd	sp, {fp, sp, pc}	@
.L46:
	ldr	r2, [r3, #32]	@ temp.1150, s_pstVfmwChan
	cmp	r2, #0	@ temp.1150,
	beq	.L47	@,
	add	ip, r2, #250880	@ tmp177, temp.1150,
	add	r1, ip, #616	@ tmp177, tmp177,
	cmp	r1, r0	@ tmp177, pCtx
	moveq	r0, #8	@ i,
	ldmeqfd	sp, {fp, sp, pc}	@
.L47:
	ldr	r2, [r3, #36]	@ temp.1152, s_pstVfmwChan
	cmp	r2, #0	@ temp.1152,
	beq	.L48	@,
	add	r1, r2, #250880	@ tmp180, temp.1152,
	add	r2, r1, #616	@ tmp180, tmp180,
	cmp	r2, r0	@ tmp180, pCtx
	moveq	r0, #9	@ i,
	ldmeqfd	sp, {fp, sp, pc}	@
.L48:
	ldr	r2, [r3, #40]	@ temp.1154, s_pstVfmwChan
	cmp	r2, #0	@ temp.1154,
	beq	.L49	@,
	add	r2, r2, #250880	@ tmp183, temp.1154,
	add	ip, r2, #616	@ tmp183, tmp183,
	cmp	ip, r0	@ tmp183, pCtx
	moveq	r0, #10	@ i,
	ldmeqfd	sp, {fp, sp, pc}	@
.L49:
	ldr	r2, [r3, #44]	@ temp.1156, s_pstVfmwChan
	cmp	r2, #0	@ temp.1156,
	beq	.L50	@,
	add	ip, r2, #250880	@ tmp186, temp.1156,
	add	r1, ip, #616	@ tmp186, tmp186,
	cmp	r1, r0	@ tmp186, pCtx
	moveq	r0, #11	@ i,
	ldmeqfd	sp, {fp, sp, pc}	@
.L50:
	ldr	r2, [r3, #48]	@ temp.1158, s_pstVfmwChan
	cmp	r2, #0	@ temp.1158,
	beq	.L51	@,
	add	r1, r2, #250880	@ tmp189, temp.1158,
	add	r2, r1, #616	@ tmp189, tmp189,
	cmp	r2, r0	@ tmp189, pCtx
	moveq	r0, #12	@ i,
	ldmeqfd	sp, {fp, sp, pc}	@
.L51:
	ldr	r2, [r3, #52]	@ temp.1160, s_pstVfmwChan
	cmp	r2, #0	@ temp.1160,
	beq	.L52	@,
	add	r2, r2, #250880	@ tmp192, temp.1160,
	add	ip, r2, #616	@ tmp192, tmp192,
	cmp	ip, r0	@ tmp192, pCtx
	moveq	r0, #13	@ i,
	ldmeqfd	sp, {fp, sp, pc}	@
.L52:
	ldr	r2, [r3, #56]	@ temp.1162, s_pstVfmwChan
	cmp	r2, #0	@ temp.1162,
	beq	.L53	@,
	add	ip, r2, #250880	@ tmp195, temp.1162,
	add	r1, ip, #616	@ tmp195, tmp195,
	cmp	r1, r0	@ tmp195, pCtx
	moveq	r0, #14	@ i,
	ldmeqfd	sp, {fp, sp, pc}	@
.L53:
	ldr	r3, [r3, #60]	@ D.42352, s_pstVfmwChan
	cmp	r3, #0	@ D.42352,
	beq	.L54	@,
	add	r2, r3, #250880	@ tmp198, D.42352,
	add	r3, r2, #616	@ tmp198, tmp198,
	cmp	r3, r0	@ tmp198, pCtx
	moveq	r0, #15	@ i,
	ldmeqfd	sp, {fp, sp, pc}	@
.L54:
	mvn	r0, #0	@ i,
	ldmfd	sp, {fp, sp, pc}	@
	.fnend
	.size	VCTRL_GetChanIDByCtx, .-VCTRL_GetChanIDByCtx
	.align	2
	.global	VCTRL_GetChanIDByMemAddr
	.type	VCTRL_GetChanIDByMemAddr, %function
VCTRL_GetChanIDByMemAddr:
	.fnstart
.LFB1613:
	@ args = 0, pretend = 0, frame = 0
	@ frame_needed = 1, uses_anonymous_args = 0
	.movsp ip
	mov	ip, sp	@,
	stmfd	sp!, {fp, ip, lr, pc}	@,
	.pad #4
	.save {fp, ip, lr}
	.setfp fp, ip, #-4
	sub	fp, ip, #4	@,,
	push	{lr}
	bl	__gnu_mcount_nc
	movw	r3, #:lower16:.LANCHOR0	@ tmp265,
	movt	r3, #:upper16:.LANCHOR0	@ tmp265,
	ldr	r2, [r3, #0]	@ temp.1188, s_pstVfmwChan
	cmp	r2, #0	@ temp.1188,
	beq	.L57	@,
	ldr	r1, [r2, #216]	@ temp.1190, <variable>.stChanMem_vdh.PhyAddr
	cmp	r0, r1	@ PhyAddr, temp.1190
	bge	.L58	@,
.L60:
	ldr	r1, [r2, #232]	@ temp.1189, <variable>.stChanMem_scd.PhyAddr
	cmp	r0, r1	@ PhyAddr, temp.1189
	blt	.L57	@,
	ldr	r2, [r2, #236]	@ <variable>.stChanMem_scd.Length, <variable>.stChanMem_scd.Length
	add	r1, r1, r2	@ tmp185, temp.1189, <variable>.stChanMem_scd.Length
	cmp	r0, r1	@ PhyAddr, tmp185
	blt	.L106	@,
.L57:
	ldr	r2, [r3, #4]	@ temp.1195, s_pstVfmwChan
	cmp	r2, #0	@ temp.1195,
	beq	.L61	@,
	ldr	r1, [r2, #216]	@ temp.1196, <variable>.stChanMem_vdh.PhyAddr
	cmp	r0, r1	@ PhyAddr, temp.1196
	bge	.L62	@,
.L63:
	ldr	r1, [r2, #232]	@ temp.1197, <variable>.stChanMem_scd.PhyAddr
	cmp	r0, r1	@ PhyAddr, temp.1197
	blt	.L61	@,
	ldr	r2, [r2, #236]	@ <variable>.stChanMem_scd.Length, <variable>.stChanMem_scd.Length
	add	r1, r1, r2	@ tmp190, temp.1197, <variable>.stChanMem_scd.Length
	cmp	r0, r1	@ PhyAddr, tmp190
	blt	.L108	@,
.L61:
	ldr	r2, [r3, #8]	@ temp.1202, s_pstVfmwChan
	cmp	r2, #0	@ temp.1202,
	beq	.L64	@,
	ldr	r1, [r2, #216]	@ temp.1203, <variable>.stChanMem_vdh.PhyAddr
	cmp	r0, r1	@ PhyAddr, temp.1203
	bge	.L65	@,
.L66:
	ldr	r1, [r2, #232]	@ temp.1204, <variable>.stChanMem_scd.PhyAddr
	cmp	r0, r1	@ PhyAddr, temp.1204
	blt	.L64	@,
	ldr	r2, [r2, #236]	@ <variable>.stChanMem_scd.Length, <variable>.stChanMem_scd.Length
	add	r1, r1, r2	@ tmp195, temp.1204, <variable>.stChanMem_scd.Length
	cmp	r0, r1	@ PhyAddr, tmp195
	blt	.L121	@,
.L64:
	ldr	r2, [r3, #12]	@ temp.1209, s_pstVfmwChan
	cmp	r2, #0	@ temp.1209,
	beq	.L67	@,
	ldr	r1, [r2, #216]	@ temp.1210, <variable>.stChanMem_vdh.PhyAddr
	cmp	r0, r1	@ PhyAddr, temp.1210
	bge	.L68	@,
.L69:
	ldr	r1, [r2, #232]	@ temp.1211, <variable>.stChanMem_scd.PhyAddr
	cmp	r0, r1	@ PhyAddr, temp.1211
	blt	.L67	@,
	ldr	r2, [r2, #236]	@ <variable>.stChanMem_scd.Length, <variable>.stChanMem_scd.Length
	add	r1, r1, r2	@ tmp200, temp.1211, <variable>.stChanMem_scd.Length
	cmp	r0, r1	@ PhyAddr, tmp200
	blt	.L120	@,
.L67:
	ldr	r2, [r3, #16]	@ temp.1216, s_pstVfmwChan
	cmp	r2, #0	@ temp.1216,
	beq	.L70	@,
	ldr	r1, [r2, #216]	@ temp.1217, <variable>.stChanMem_vdh.PhyAddr
	cmp	r0, r1	@ PhyAddr, temp.1217
	bge	.L71	@,
.L72:
	ldr	r1, [r2, #232]	@ temp.1218, <variable>.stChanMem_scd.PhyAddr
	cmp	r0, r1	@ PhyAddr, temp.1218
	blt	.L70	@,
	ldr	r2, [r2, #236]	@ <variable>.stChanMem_scd.Length, <variable>.stChanMem_scd.Length
	add	r1, r1, r2	@ tmp205, temp.1218, <variable>.stChanMem_scd.Length
	cmp	r0, r1	@ PhyAddr, tmp205
	blt	.L119	@,
.L70:
	ldr	r2, [r3, #20]	@ temp.1223, s_pstVfmwChan
	cmp	r2, #0	@ temp.1223,
	beq	.L73	@,
	ldr	r1, [r2, #216]	@ temp.1224, <variable>.stChanMem_vdh.PhyAddr
	cmp	r0, r1	@ PhyAddr, temp.1224
	bge	.L74	@,
.L75:
	ldr	r1, [r2, #232]	@ temp.1225, <variable>.stChanMem_scd.PhyAddr
	cmp	r0, r1	@ PhyAddr, temp.1225
	blt	.L73	@,
	ldr	r2, [r2, #236]	@ <variable>.stChanMem_scd.Length, <variable>.stChanMem_scd.Length
	add	r1, r1, r2	@ tmp210, temp.1225, <variable>.stChanMem_scd.Length
	cmp	r0, r1	@ PhyAddr, tmp210
	blt	.L118	@,
.L73:
	ldr	r2, [r3, #24]	@ temp.1230, s_pstVfmwChan
	cmp	r2, #0	@ temp.1230,
	beq	.L76	@,
	ldr	r1, [r2, #216]	@ temp.1231, <variable>.stChanMem_vdh.PhyAddr
	cmp	r0, r1	@ PhyAddr, temp.1231
	bge	.L77	@,
.L78:
	ldr	r1, [r2, #232]	@ temp.1232, <variable>.stChanMem_scd.PhyAddr
	cmp	r0, r1	@ PhyAddr, temp.1232
	blt	.L76	@,
	ldr	r2, [r2, #236]	@ <variable>.stChanMem_scd.Length, <variable>.stChanMem_scd.Length
	add	r1, r1, r2	@ tmp215, temp.1232, <variable>.stChanMem_scd.Length
	cmp	r0, r1	@ PhyAddr, tmp215
	blt	.L117	@,
.L76:
	ldr	r2, [r3, #28]	@ temp.1237, s_pstVfmwChan
	cmp	r2, #0	@ temp.1237,
	beq	.L79	@,
	ldr	r1, [r2, #216]	@ temp.1238, <variable>.stChanMem_vdh.PhyAddr
	cmp	r0, r1	@ PhyAddr, temp.1238
	bge	.L80	@,
.L81:
	ldr	r1, [r2, #232]	@ temp.1239, <variable>.stChanMem_scd.PhyAddr
	cmp	r0, r1	@ PhyAddr, temp.1239
	blt	.L79	@,
	ldr	r2, [r2, #236]	@ <variable>.stChanMem_scd.Length, <variable>.stChanMem_scd.Length
	add	r1, r1, r2	@ tmp220, temp.1239, <variable>.stChanMem_scd.Length
	cmp	r0, r1	@ PhyAddr, tmp220
	blt	.L116	@,
.L79:
	ldr	r2, [r3, #32]	@ temp.1244, s_pstVfmwChan
	cmp	r2, #0	@ temp.1244,
	beq	.L82	@,
	ldr	r1, [r2, #216]	@ temp.1245, <variable>.stChanMem_vdh.PhyAddr
	cmp	r0, r1	@ PhyAddr, temp.1245
	bge	.L83	@,
.L84:
	ldr	r1, [r2, #232]	@ temp.1246, <variable>.stChanMem_scd.PhyAddr
	cmp	r0, r1	@ PhyAddr, temp.1246
	blt	.L82	@,
	ldr	r2, [r2, #236]	@ <variable>.stChanMem_scd.Length, <variable>.stChanMem_scd.Length
	add	r1, r1, r2	@ tmp225, temp.1246, <variable>.stChanMem_scd.Length
	cmp	r0, r1	@ PhyAddr, tmp225
	blt	.L115	@,
.L82:
	ldr	r2, [r3, #36]	@ temp.1251, s_pstVfmwChan
	cmp	r2, #0	@ temp.1251,
	beq	.L85	@,
	ldr	r1, [r2, #216]	@ temp.1252, <variable>.stChanMem_vdh.PhyAddr
	cmp	r0, r1	@ PhyAddr, temp.1252
	bge	.L86	@,
.L87:
	ldr	r1, [r2, #232]	@ temp.1253, <variable>.stChanMem_scd.PhyAddr
	cmp	r0, r1	@ PhyAddr, temp.1253
	blt	.L85	@,
	ldr	r2, [r2, #236]	@ <variable>.stChanMem_scd.Length, <variable>.stChanMem_scd.Length
	add	r1, r1, r2	@ tmp230, temp.1253, <variable>.stChanMem_scd.Length
	cmp	r0, r1	@ PhyAddr, tmp230
	blt	.L114	@,
.L85:
	ldr	r2, [r3, #40]	@ temp.1258, s_pstVfmwChan
	cmp	r2, #0	@ temp.1258,
	beq	.L88	@,
	ldr	r1, [r2, #216]	@ temp.1259, <variable>.stChanMem_vdh.PhyAddr
	cmp	r0, r1	@ PhyAddr, temp.1259
	bge	.L89	@,
.L90:
	ldr	r1, [r2, #232]	@ temp.1260, <variable>.stChanMem_scd.PhyAddr
	cmp	r0, r1	@ PhyAddr, temp.1260
	blt	.L88	@,
	ldr	r2, [r2, #236]	@ <variable>.stChanMem_scd.Length, <variable>.stChanMem_scd.Length
	add	r1, r1, r2	@ tmp235, temp.1260, <variable>.stChanMem_scd.Length
	cmp	r0, r1	@ PhyAddr, tmp235
	blt	.L113	@,
.L88:
	ldr	r2, [r3, #44]	@ temp.1265, s_pstVfmwChan
	cmp	r2, #0	@ temp.1265,
	beq	.L91	@,
	ldr	r1, [r2, #216]	@ temp.1266, <variable>.stChanMem_vdh.PhyAddr
	cmp	r0, r1	@ PhyAddr, temp.1266
	bge	.L92	@,
.L93:
	ldr	r1, [r2, #232]	@ temp.1267, <variable>.stChanMem_scd.PhyAddr
	cmp	r0, r1	@ PhyAddr, temp.1267
	blt	.L91	@,
	ldr	r2, [r2, #236]	@ <variable>.stChanMem_scd.Length, <variable>.stChanMem_scd.Length
	add	r1, r1, r2	@ tmp240, temp.1267, <variable>.stChanMem_scd.Length
	cmp	r0, r1	@ PhyAddr, tmp240
	blt	.L112	@,
.L91:
	ldr	r2, [r3, #48]	@ temp.1272, s_pstVfmwChan
	cmp	r2, #0	@ temp.1272,
	beq	.L94	@,
	ldr	r1, [r2, #216]	@ temp.1273, <variable>.stChanMem_vdh.PhyAddr
	cmp	r0, r1	@ PhyAddr, temp.1273
	bge	.L95	@,
.L96:
	ldr	r1, [r2, #232]	@ temp.1274, <variable>.stChanMem_scd.PhyAddr
	cmp	r0, r1	@ PhyAddr, temp.1274
	blt	.L94	@,
	ldr	r2, [r2, #236]	@ <variable>.stChanMem_scd.Length, <variable>.stChanMem_scd.Length
	add	r1, r1, r2	@ tmp245, temp.1274, <variable>.stChanMem_scd.Length
	cmp	r0, r1	@ PhyAddr, tmp245
	blt	.L111	@,
.L94:
	ldr	r2, [r3, #52]	@ temp.1279, s_pstVfmwChan
	cmp	r2, #0	@ temp.1279,
	beq	.L97	@,
	ldr	r1, [r2, #216]	@ temp.1280, <variable>.stChanMem_vdh.PhyAddr
	cmp	r0, r1	@ PhyAddr, temp.1280
	bge	.L98	@,
.L99:
	ldr	r1, [r2, #232]	@ temp.1281, <variable>.stChanMem_scd.PhyAddr
	cmp	r0, r1	@ PhyAddr, temp.1281
	blt	.L97	@,
	ldr	r2, [r2, #236]	@ <variable>.stChanMem_scd.Length, <variable>.stChanMem_scd.Length
	add	r1, r1, r2	@ tmp250, temp.1281, <variable>.stChanMem_scd.Length
	cmp	r0, r1	@ PhyAddr, tmp250
	blt	.L110	@,
.L97:
	ldr	r2, [r3, #56]	@ temp.1286, s_pstVfmwChan
	cmp	r2, #0	@ temp.1286,
	beq	.L100	@,
	ldr	r1, [r2, #216]	@ temp.1287, <variable>.stChanMem_vdh.PhyAddr
	cmp	r0, r1	@ PhyAddr, temp.1287
	bge	.L101	@,
.L102:
	ldr	r1, [r2, #232]	@ temp.1288, <variable>.stChanMem_scd.PhyAddr
	cmp	r0, r1	@ PhyAddr, temp.1288
	blt	.L100	@,
	ldr	r2, [r2, #236]	@ <variable>.stChanMem_scd.Length, <variable>.stChanMem_scd.Length
	add	r1, r1, r2	@ tmp255, temp.1288, <variable>.stChanMem_scd.Length
	cmp	r0, r1	@ PhyAddr, tmp255
	blt	.L109	@,
.L100:
	ldr	r3, [r3, #60]	@ D.42368, s_pstVfmwChan
	cmp	r3, #0	@ D.42368,
	beq	.L103	@,
	ldr	r2, [r3, #216]	@ D.42371, <variable>.stChanMem_vdh.PhyAddr
	cmp	r2, r0	@ D.42371, PhyAddr
	bgt	.L104	@,
	ldr	r1, [r3, #220]	@ <variable>.stChanMem_vdh.Length, <variable>.stChanMem_vdh.Length
	add	r2, r2, r1	@ tmp260, D.42371, <variable>.stChanMem_vdh.Length
	cmp	r0, r2	@ PhyAddr, tmp260
	blt	.L107	@,
.L104:
	ldr	r2, [r3, #232]	@ D.42379, <variable>.stChanMem_scd.PhyAddr
	cmp	r0, r2	@ PhyAddr, D.42379
	blt	.L103	@,
	ldr	r3, [r3, #236]	@ <variable>.stChanMem_scd.Length, <variable>.stChanMem_scd.Length
	add	ip, r2, r3	@ tmp262, D.42379, <variable>.stChanMem_scd.Length
	cmp	r0, ip	@ PhyAddr, tmp262
	blt	.L107	@,
.L103:
	mvn	r0, #0	@ i,
	ldmfd	sp, {fp, sp, pc}	@
.L58:
	ldr	ip, [r2, #220]	@ <variable>.stChanMem_vdh.Length, <variable>.stChanMem_vdh.Length
	add	r1, r1, ip	@ tmp187, temp.1190, <variable>.stChanMem_vdh.Length
	cmp	r0, r1	@ PhyAddr, tmp187
	bge	.L60	@,
.L106:
	mov	r0, #0	@ i,
	ldmfd	sp, {fp, sp, pc}	@
.L62:
	ldr	ip, [r2, #220]	@ <variable>.stChanMem_vdh.Length, <variable>.stChanMem_vdh.Length
	add	r1, r1, ip	@ tmp192, temp.1196, <variable>.stChanMem_vdh.Length
	cmp	r0, r1	@ PhyAddr, tmp192
	bge	.L63	@,
.L108:
	mov	r0, #1	@ i,
	ldmfd	sp, {fp, sp, pc}	@
.L65:
	ldr	ip, [r2, #220]	@ <variable>.stChanMem_vdh.Length, <variable>.stChanMem_vdh.Length
	add	r1, r1, ip	@ tmp197, temp.1203, <variable>.stChanMem_vdh.Length
	cmp	r0, r1	@ PhyAddr, tmp197
	bge	.L66	@,
.L121:
	mov	r0, #2	@ i,
	ldmfd	sp, {fp, sp, pc}	@
.L68:
	ldr	ip, [r2, #220]	@ <variable>.stChanMem_vdh.Length, <variable>.stChanMem_vdh.Length
	add	r1, r1, ip	@ tmp202, temp.1210, <variable>.stChanMem_vdh.Length
	cmp	r0, r1	@ PhyAddr, tmp202
	bge	.L69	@,
.L120:
	mov	r0, #3	@ i,
	ldmfd	sp, {fp, sp, pc}	@
.L71:
	ldr	ip, [r2, #220]	@ <variable>.stChanMem_vdh.Length, <variable>.stChanMem_vdh.Length
	add	r1, r1, ip	@ tmp207, temp.1217, <variable>.stChanMem_vdh.Length
	cmp	r0, r1	@ PhyAddr, tmp207
	bge	.L72	@,
.L119:
	mov	r0, #4	@ i,
	ldmfd	sp, {fp, sp, pc}	@
.L74:
	ldr	ip, [r2, #220]	@ <variable>.stChanMem_vdh.Length, <variable>.stChanMem_vdh.Length
	add	r1, r1, ip	@ tmp212, temp.1224, <variable>.stChanMem_vdh.Length
	cmp	r0, r1	@ PhyAddr, tmp212
	bge	.L75	@,
.L118:
	mov	r0, #5	@ i,
	ldmfd	sp, {fp, sp, pc}	@
.L77:
	ldr	ip, [r2, #220]	@ <variable>.stChanMem_vdh.Length, <variable>.stChanMem_vdh.Length
	add	r1, r1, ip	@ tmp217, temp.1231, <variable>.stChanMem_vdh.Length
	cmp	r0, r1	@ PhyAddr, tmp217
	bge	.L78	@,
.L117:
	mov	r0, #6	@ i,
	ldmfd	sp, {fp, sp, pc}	@
.L80:
	ldr	ip, [r2, #220]	@ <variable>.stChanMem_vdh.Length, <variable>.stChanMem_vdh.Length
	add	r1, r1, ip	@ tmp222, temp.1238, <variable>.stChanMem_vdh.Length
	cmp	r0, r1	@ PhyAddr, tmp222
	bge	.L81	@,
.L116:
	mov	r0, #7	@ i,
	ldmfd	sp, {fp, sp, pc}	@
.L83:
	ldr	ip, [r2, #220]	@ <variable>.stChanMem_vdh.Length, <variable>.stChanMem_vdh.Length
	add	r1, r1, ip	@ tmp227, temp.1245, <variable>.stChanMem_vdh.Length
	cmp	r0, r1	@ PhyAddr, tmp227
	bge	.L84	@,
.L115:
	mov	r0, #8	@ i,
	ldmfd	sp, {fp, sp, pc}	@
.L86:
	ldr	ip, [r2, #220]	@ <variable>.stChanMem_vdh.Length, <variable>.stChanMem_vdh.Length
	add	r1, r1, ip	@ tmp232, temp.1252, <variable>.stChanMem_vdh.Length
	cmp	r0, r1	@ PhyAddr, tmp232
	bge	.L87	@,
.L114:
	mov	r0, #9	@ i,
	ldmfd	sp, {fp, sp, pc}	@
.L89:
	ldr	ip, [r2, #220]	@ <variable>.stChanMem_vdh.Length, <variable>.stChanMem_vdh.Length
	add	r1, r1, ip	@ tmp237, temp.1259, <variable>.stChanMem_vdh.Length
	cmp	r0, r1	@ PhyAddr, tmp237
	bge	.L90	@,
.L113:
	mov	r0, #10	@ i,
	ldmfd	sp, {fp, sp, pc}	@
.L92:
	ldr	ip, [r2, #220]	@ <variable>.stChanMem_vdh.Length, <variable>.stChanMem_vdh.Length
	add	r1, r1, ip	@ tmp242, temp.1266, <variable>.stChanMem_vdh.Length
	cmp	r0, r1	@ PhyAddr, tmp242
	bge	.L93	@,
.L112:
	mov	r0, #11	@ i,
	ldmfd	sp, {fp, sp, pc}	@
.L95:
	ldr	ip, [r2, #220]	@ <variable>.stChanMem_vdh.Length, <variable>.stChanMem_vdh.Length
	add	r1, r1, ip	@ tmp247, temp.1273, <variable>.stChanMem_vdh.Length
	cmp	r0, r1	@ PhyAddr, tmp247
	bge	.L96	@,
.L111:
	mov	r0, #12	@ i,
	ldmfd	sp, {fp, sp, pc}	@
.L98:
	ldr	ip, [r2, #220]	@ <variable>.stChanMem_vdh.Length, <variable>.stChanMem_vdh.Length
	add	r1, r1, ip	@ tmp252, temp.1280, <variable>.stChanMem_vdh.Length
	cmp	r0, r1	@ PhyAddr, tmp252
	bge	.L99	@,
.L110:
	mov	r0, #13	@ i,
	ldmfd	sp, {fp, sp, pc}	@
.L101:
	ldr	ip, [r2, #220]	@ <variable>.stChanMem_vdh.Length, <variable>.stChanMem_vdh.Length
	add	r1, r1, ip	@ tmp257, temp.1287, <variable>.stChanMem_vdh.Length
	cmp	r0, r1	@ PhyAddr, tmp257
	bge	.L102	@,
.L109:
	mov	r0, #14	@ i,
	ldmfd	sp, {fp, sp, pc}	@
.L107:
	mov	r0, #15	@ i,
	ldmfd	sp, {fp, sp, pc}	@
	.fnend
	.size	VCTRL_GetChanIDByMemAddr, .-VCTRL_GetChanIDByMemAddr
	.align	2
	.global	VCTRL_GetChanVoQue
	.type	VCTRL_GetChanVoQue, %function
VCTRL_GetChanVoQue:
	.fnstart
.LFB1615:
	@ args = 0, pretend = 0, frame = 0
	@ frame_needed = 1, uses_anonymous_args = 0
	.movsp ip
	mov	ip, sp	@,
	stmfd	sp!, {fp, ip, lr, pc}	@,
	.pad #4
	.save {fp, ip, lr}
	.setfp fp, ip, #-4
	sub	fp, ip, #4	@,,
	push	{lr}
	bl	__gnu_mcount_nc
	movw	r3, #:lower16:.LANCHOR0	@ tmp137,
	movt	r3, #:upper16:.LANCHOR0	@ tmp137,
	ldr	r3, [r3, r0, asl #2]	@ D.42591, s_pstVfmwChan
	cmp	r3, #0	@ D.42591,
	beq	.L123	@,
	ldr	r2, [r3, #1032]	@ <variable>.eVidStd, <variable>.eVidStd
	cmp	r2, #18	@ <variable>.eVidStd,
	ldrls	pc, [pc, r2, asl #2]	@ <variable>.eVidStd
	b	.L123	@
.L138:
	.word	.L137
	.word	.L125
	.word	.L126
	.word	.L127
	.word	.L128
	.word	.L129
	.word	.L130
	.word	.L123
	.word	.L131
	.word	.L132
	.word	.L133
	.word	.L133
	.word	.L133
	.word	.L134
	.word	.L128
	.word	.L135
	.word	.L136
	.word	.L123
	.word	.L137
.L137:
	add	r0, r3, #250880	@ pstVoQue, D.42591,
	add	r0, r0, #624	@ pstVoQue, pstVoQue,
	ldmfd	sp, {fp, sp, pc}	@
.L123:
	mov	r0, #0	@ pstVoQue,
	ldmfd	sp, {fp, sp, pc}	@
.L126:
	movw	ip, #:lower16:274104	@ pstVoQue,
	movt	ip, #:upper16:274104	@ pstVoQue,
	add	r0, r3, ip	@ pstVoQue, D.42591, pstVoQue
	ldmfd	sp, {fp, sp, pc}	@
.L127:
	movw	r1, #:lower16:331496	@ pstVoQue,
	movt	r1, #:upper16:331496	@ pstVoQue,
	add	r0, r3, r1	@ pstVoQue, D.42591, pstVoQue
	ldmfd	sp, {fp, sp, pc}	@
.L128:
	add	r1, r3, #274432	@ pstVoQue, D.42591,
	add	r0, r1, #2544	@ pstVoQue, pstVoQue,
	ldmfd	sp, {fp, sp, pc}	@
.L129:
	movw	ip, #:lower16:284792	@ pstVoQue,
	movt	ip, #:upper16:284792	@ pstVoQue,
	add	r0, r3, ip	@ pstVoQue, D.42591, pstVoQue
	ldmfd	sp, {fp, sp, pc}	@
.L125:
	add	r2, r3, #364544	@ pstVoQue, D.42591,
	add	r0, r2, #920	@ pstVoQue, pstVoQue,
	ldmfd	sp, {fp, sp, pc}	@
.L136:
	movw	r0, #:lower16:2384224	@ pstVoQue,
	movt	r0, #:upper16:2384224	@ pstVoQue,
	add	r0, r3, r0	@ pstVoQue, D.42591, pstVoQue
	ldmfd	sp, {fp, sp, pc}	@
.L134:
	add	ip, r3, #259072	@ pstVoQue, D.42591,
	add	r0, ip, #592	@ pstVoQue, pstVoQue,
	ldmfd	sp, {fp, sp, pc}	@
.L135:
	add	r2, r3, #251904	@ pstVoQue, D.42591,
	add	r0, r2, #176	@ pstVoQue, pstVoQue,
	ldmfd	sp, {fp, sp, pc}	@
.L130:
	movw	r2, #:lower16:267576	@ pstVoQue,
	movt	r2, #:upper16:267576	@ pstVoQue,
	add	r0, r3, r2	@ pstVoQue, D.42591, pstVoQue
	ldmfd	sp, {fp, sp, pc}	@
.L131:
	add	r0, r3, #294912	@ pstVoQue, D.42591,
	add	r0, r0, #2208	@ pstVoQue, pstVoQue,
	ldmfd	sp, {fp, sp, pc}	@
.L132:
	add	r1, r3, #294912	@ pstVoQue, D.42591,
	add	r0, r1, #2192	@ pstVoQue, pstVoQue,
	ldmfd	sp, {fp, sp, pc}	@
.L133:
	add	r0, r3, #262144	@ pstVoQue, D.42591,
	add	r0, r0, #2000	@ pstVoQue, pstVoQue,
	ldmfd	sp, {fp, sp, pc}	@
	.fnend
	.size	VCTRL_GetChanVoQue, .-VCTRL_GetChanVoQue
	.align	2
	.global	str2val
	.type	str2val, %function
str2val:
	.fnstart
.LFB1649:
	@ args = 0, pretend = 0, frame = 0
	@ frame_needed = 1, uses_anonymous_args = 0
	.movsp ip
	mov	ip, sp	@,
	stmfd	sp!, {r4, r5, fp, ip, lr, pc}	@,
	.pad #4
	.save {r4, r5, fp, ip, lr}
	.setfp fp, ip, #-4
	sub	fp, ip, #4	@,,
	push	{lr}
	bl	__gnu_mcount_nc
	ldrb	r3, [r0, #0]	@ zero_extendqisi2	@ tmp173,* str
	cmp	r3, #48	@ tmp173,
	beq	.L184	@,
.L142:
	mov	r4, #10	@ weight,
	mov	r5, #0	@ i,
.L143:
	add	r0, r0, r5	@ ivtmp.1343, str, i
	mov	ip, #0	@ dat,
	ldrb	r3, [r0, #0]	@ zero_extendqisi2	@ D.43935,* ivtmp.1343
	cmp	r3, #31	@ D.43935,
	bls	.L144	@,
	cmp	r4, #16	@ weight,
	beq	.L173	@,
.L154:
	sub	ip, r3, #48	@ tmp194, D.43935,
	uxtb	r3, ip	@ tmp195, tmp194
	cmp	r3, #9	@ tmp195,
	bhi	.L174	@,
.L175:
	mov	r2, #1	@ tmp185,
	cmp	r2, #0	@ tmp185,
	add	r0, r0, r2	@ ivtmp.1343, ivtmp.1343,
	add	r5, r5, r2	@ i, i,
	beq	.L151	@,
	ldrb	r3, [r0, #0]	@ zero_extendqisi2	@ D.43935,* ivtmp.1343
	cmp	r3, #31	@ D.43935,
	bls	.L144	@,
	cmp	r4, #16	@ weight,
	beq	.L177	@,
.L159:
	sub	r3, r3, #48	@ tmp199, D.43935,
	uxtb	r2, r3	@ tmp200, tmp199
	cmp	r2, #9	@ tmp200,
	bhi	.L174	@,
.L178:
	add	r5, r5, #1	@ i, i,
	add	r0, r0, #1	@ ivtmp.1343, ivtmp.1343,
	cmp	r5, #9	@ i,
	mla	ip, r4, ip, r3	@ dat, weight, dat, d
	bls	.L151	@,
.L144:
	mov	r0, #0	@ D.43955,
	str	ip, [r1, #0]	@ dat,* data
	ldmfd	sp, {r4, r5, fp, sp, pc}	@
.L146:
	cmp	r3, #64	@ D.43935,
	bhi	.L147	@,
.L145:
	sub	r3, r3, #48	@ tmp181, D.43935,
	uxtb	r2, r3	@ tmp182, tmp181
	cmp	r2, #9	@ tmp182,
	bhi	.L174	@,
.L148:
	ldrb	r2, [r0, #1]	@ zero_extendqisi2	@ D.43935,
	add	r5, r5, #1	@ tmp186, i,
	mla	ip, r4, ip, r3	@ dat, weight, dat, d
	cmp	r2, #31	@ D.43935,
	add	r0, r0, #1	@ tmp187, ivtmp.1343,
	bls	.L144	@,
	cmp	r4, #16	@ weight,
	beq	.L180	@,
.L165:
	sub	r2, r2, #48	@ tmp203, D.43935,
	uxtb	r3, r2	@ tmp204, tmp203
	cmp	r3, #9	@ tmp204,
	bhi	.L174	@,
.L181:
	add	r5, r5, #1	@ i, tmp186,
	add	r0, r0, #1	@ ivtmp.1343, tmp187,
	cmp	r5, #9	@ i,
	mla	ip, r4, ip, r2	@ dat, weight, dat, d
	bhi	.L144	@,
.L151:
	ldrb	r3, [r0, #0]	@ zero_extendqisi2	@ D.43935,* ivtmp.1343
	cmp	r3, #31	@ D.43935,
	bls	.L144	@,
	cmp	r4, #16	@ weight,
	bne	.L145	@,
	cmp	r3, #96	@ D.43935,
	bls	.L146	@,
	cmp	r3, #102	@ D.43935,
	subls	r3, r3, #87	@ d, D.43935,
	bls	.L148	@,
.L147:
	cmp	r3, #70	@ D.43935,
	subls	r3, r3, #55	@ d, D.43935,
	bls	.L148	@,
	b	.L145	@
.L180:
	cmp	r2, #96	@ D.43935,
	bls	.L167	@,
	cmp	r2, #102	@ D.43935,
	bhi	.L168	@,
	sub	r2, r2, #87	@ d, D.43935,
	b	.L181	@
.L167:
	cmp	r2, #64	@ D.43935,
	bls	.L165	@,
.L168:
	cmp	r2, #70	@ D.43935,
	subls	r2, r2, #55	@ d, D.43935,
	bls	.L181	@,
	b	.L165	@
.L184:
	ldrb	r2, [r0, #1]	@ zero_extendqisi2	@ D.43929,
	cmp	r2, #120	@ D.43929,
	cmpne	r2, #88	@, D.43929,
	moveq	r4, #16	@ weight,
	moveq	r5, #2	@ i,
	beq	.L143	@,
	b	.L142	@
.L173:
	cmp	r3, #96	@ D.43935,
	bls	.L156	@,
	cmp	r3, #102	@ D.43935,
	bhi	.L157	@,
	sub	ip, r3, #87	@ d, D.43935,
	b	.L175	@
.L156:
	cmp	r3, #64	@ D.43935,
	bls	.L154	@,
.L157:
	cmp	r3, #70	@ D.43935,
	subls	ip, r3, #55	@ d, D.43935,
	bls	.L175	@,
	b	.L154	@
.L177:
	cmp	r3, #96	@ D.43935,
	bls	.L161	@,
	cmp	r3, #102	@ D.43935,
	bhi	.L162	@,
	sub	r3, r3, #87	@ d, D.43935,
	b	.L178	@
.L161:
	cmp	r3, #64	@ D.43935,
	bls	.L159	@,
.L162:
	cmp	r3, #70	@ D.43935,
	subls	r3, r3, #55	@ d, D.43935,
	bhi	.L159	@,
	add	r5, r5, #1	@ i, i,
	add	r0, r0, #1	@ ivtmp.1343, ivtmp.1343,
	cmp	r5, #9	@ i,
	mla	ip, r4, ip, r3	@ dat, weight, dat, d
	bls	.L151	@,
	b	.L144	@
.L174:
	mvn	r0, #0	@ D.43955,
	ldmfd	sp, {r4, r5, fp, sp, pc}	@
	.fnend
	.size	str2val, .-str2val
	.align	2
	.type	vfmw_proc_write, %function
vfmw_proc_write:
	.fnstart
.LFB1652:
	@ args = 0, pretend = 0, frame = 0
	@ frame_needed = 1, uses_anonymous_args = 0
	.movsp ip
	mov	ip, sp	@,
	stmfd	sp!, {fp, ip, lr, pc}	@,
	.pad #4
	.save {fp, ip, lr}
	.setfp fp, ip, #-4
	sub	fp, ip, #4	@,,
	push	{lr}
	bl	__gnu_mcount_nc
	ldr	ip, [r0, #128]	@ <variable>.private_data, <variable>.private_data
	ldr	ip, [ip, #72]	@ <variable>.private, <variable>.private
	ldr	ip, [ip, #20]	@ D.44132, <variable>.write
	cmp	ip, #0	@ D.44132,
	mvneq	r0, #37	@ D.44135,
	ldmeqfd	sp, {fp, sp, pc}	@
	blx	ip	@ D.44132
	ldmfd	sp, {fp, sp, pc}	@
	.fnend
	.size	vfmw_proc_write, .-vfmw_proc_write
	.align	2
	.global	VCTRL_SetChanFsPartitionState
	.type	VCTRL_SetChanFsPartitionState, %function
VCTRL_SetChanFsPartitionState:
	.fnstart
.LFB1660:
	@ args = 0, pretend = 0, frame = 0
	@ frame_needed = 1, uses_anonymous_args = 0
	.movsp ip
	mov	ip, sp	@,
	stmfd	sp!, {fp, ip, lr, pc}	@,
	.pad #4
	.save {fp, ip, lr}
	.setfp fp, ip, #-4
	sub	fp, ip, #4	@,,
	push	{lr}
	bl	__gnu_mcount_nc
	movw	ip, #:lower16:.LANCHOR0	@ tmp135,
	movt	ip, #:upper16:.LANCHOR0	@ tmp135,
	movw	r3, #:lower16:249192	@ tmp138,
	movt	r3, #:upper16:249192	@ tmp138,
	ldr	r2, [ip, r0, asl #2]	@ tmp136, s_pstVfmwChan
	str	r1, [r2, r3]	@ state, <variable>.FspInst.eFspPartitionState
	ldmfd	sp, {fp, sp, pc}	@
	.fnend
	.size	VCTRL_SetChanFsPartitionState, .-VCTRL_SetChanFsPartitionState
	.align	2
	.global	VCTRL_GetCurChanFsSize
	.type	VCTRL_GetCurChanFsSize, %function
VCTRL_GetCurChanFsSize:
	.fnstart
.LFB1661:
	@ args = 0, pretend = 0, frame = 0
	@ frame_needed = 1, uses_anonymous_args = 0
	.movsp ip
	mov	ip, sp	@,
	stmfd	sp!, {fp, ip, lr, pc}	@,
	.pad #4
	.save {fp, ip, lr}
	.setfp fp, ip, #-4
	sub	fp, ip, #4	@,,
	push	{lr}
	bl	__gnu_mcount_nc
	movw	r1, #:lower16:.LANCHOR0	@ tmp136,
	movt	r1, #:upper16:.LANCHOR0	@ tmp136,
	movw	r3, #:lower16:249200	@ tmp140,
	movt	r3, #:upper16:249200	@ tmp140,
	ldr	r2, [r1, r0, asl #2]	@ tmp137, s_pstVfmwChan
	ldr	r0, [r2, r3]	@, <variable>.s32CurFsSize
	ldmfd	sp, {fp, sp, pc}	@
	.fnend
	.size	VCTRL_GetCurChanFsSize, .-VCTRL_GetCurChanFsSize
	.align	2
	.global	VCTRL_SetFsParamToChan
	.type	VCTRL_SetFsParamToChan, %function
VCTRL_SetFsParamToChan:
	.fnstart
.LFB1666:
	@ args = 0, pretend = 0, frame = 0
	@ frame_needed = 1, uses_anonymous_args = 0
	.movsp ip
	mov	ip, sp	@,
	stmfd	sp!, {r4, r5, fp, ip, lr, pc}	@,
	.pad #4
	.save {r4, r5, fp, ip, lr}
	.setfp fp, ip, #-4
	sub	fp, ip, #4	@,,
	push	{lr}
	bl	__gnu_mcount_nc
	movw	r3, #:lower16:.LANCHOR0	@ tmp135,
	movt	r3, #:upper16:.LANCHOR0	@ tmp135,
	ldr	r5, [r1, #8]	@ <variable>.Length, <variable>.Length
	movw	ip, #:lower16:249208	@ tmp158,
	movt	ip, #:upper16:249208	@ tmp158,
	ldr	r4, [r3, r0, asl #2]	@ tmp136, s_pstVfmwChan
	movw	r2, #:lower16:249220	@ tmp159,
	movt	r2, #:upper16:249220	@ tmp159,
	str	r5, [r4, #272]	@ <variable>.Length, <variable>.s32VdmChanMemSize
	ldr	r4, [r3, r0, asl #2]	@ tmp139, s_pstVfmwChan
	ldr	r5, [r1, #0]	@ <variable>.PhyAddr, <variable>.PhyAddr
	str	r5, [r4, #268]	@ <variable>.PhyAddr, <variable>.s32VdmChanMemAddr
	ldr	r4, [r3, r0, asl #2]	@ tmp142, s_pstVfmwChan
	ldr	r5, [r1, #0]	@ <variable>.PhyAddr, <variable>.PhyAddr
	str	r5, [r4, #216]	@ <variable>.PhyAddr, <variable>.stChanMem_vdh.PhyAddr
	ldr	r4, [r3, r0, asl #2]	@ tmp145, s_pstVfmwChan
	ldr	r5, [r1, #4]	@ <variable>.VirAddr, <variable>.VirAddr
	str	r5, [r4, #212]	@ <variable>.VirAddr, <variable>.stChanMem_vdh.VirAddr
	ldr	r4, [r3, r0, asl #2]	@ tmp148, s_pstVfmwChan
	ldr	r5, [r1, #8]	@ <variable>.Length, <variable>.Length
	str	r5, [r4, #220]	@ <variable>.Length, <variable>.stChanMem_vdh.Length
	ldr	r4, [r3, r0, asl #2]	@ tmp151, s_pstVfmwChan
	ldr	r5, [r1, #12]	@ <variable>.FrameNum, <variable>.FrameNum
	str	r5, [r4, ip]	@ <variable>.FrameNum, <variable>.s32NeededFrameNum
	ldr	r3, [r3, r0, asl #2]	@ tmp155, s_pstVfmwChan
	ldr	r1, [r1, #16]	@ <variable>.NeedMMZ, <variable>.NeedMMZ
	str	r1, [r3, r2]	@ <variable>.NeedMMZ, <variable>.s32NeedMMZ
	ldmfd	sp, {r4, r5, fp, sp, pc}	@
	.fnend
	.size	VCTRL_SetFsParamToChan, .-VCTRL_SetFsParamToChan
	.align	2
	.global	VCTRL_GetImageHeight
	.type	VCTRL_GetImageHeight, %function
VCTRL_GetImageHeight:
	.fnstart
.LFB1669:
	@ args = 0, pretend = 0, frame = 0
	@ frame_needed = 1, uses_anonymous_args = 0
	.movsp ip
	mov	ip, sp	@,
	stmfd	sp!, {fp, ip, lr, pc}	@,
	.pad #4
	.save {fp, ip, lr}
	.setfp fp, ip, #-4
	sub	fp, ip, #4	@,,
	push	{lr}
	bl	__gnu_mcount_nc
	movw	r2, #:lower16:.LANCHOR0	@ tmp139,
	movt	r2, #:upper16:.LANCHOR0	@ tmp139,
	movw	r3, #:lower16:251488	@ tmp140,
	movt	r3, #:upper16:251488	@ tmp140,
	ldr	r0, [r2, r0, asl #2]	@ D.44807, s_pstVfmwChan
	ldr	r3, [r0, r3]	@ <variable>.stSynCtx.eVidStd, <variable>.stSynCtx.eVidStd
	cmp	r3, #2	@ <variable>.stSynCtx.eVidStd,
	beq	.L198	@,
	cmp	r3, #16	@ <variable>.stSynCtx.eVidStd,
	beq	.L199	@,
	cmp	r3, #0	@ <variable>.stSynCtx.eVidStd,
	movne	r0, #0	@ uImageHeight,
	ldmnefd	sp, {fp, sp, pc}	@
	add	r1, r0, #250880	@, D.44807,
	add	r0, r1, #616	@,,
	bl	H264DEC_GetImageHeight	@
	ldmfd	sp, {fp, sp, pc}	@
.L199:
	add	ip, r0, #250880	@, D.44807,
	add	r0, ip, #616	@,,
	bl	HEVCDEC_GetImageHeight	@
	ldmfd	sp, {fp, sp, pc}	@
.L198:
	add	r0, r0, #250880	@, D.44807,
	add	r0, r0, #616	@,,
	bl	MPEG4DEC_GetImageHeight	@
	ldmfd	sp, {fp, sp, pc}	@
	.fnend
	.size	VCTRL_GetImageHeight, .-VCTRL_GetImageHeight
	.align	2
	.global	VCTRL_GetImageWidth
	.type	VCTRL_GetImageWidth, %function
VCTRL_GetImageWidth:
	.fnstart
.LFB1668:
	@ args = 0, pretend = 0, frame = 0
	@ frame_needed = 1, uses_anonymous_args = 0
	.movsp ip
	mov	ip, sp	@,
	stmfd	sp!, {fp, ip, lr, pc}	@,
	.pad #4
	.save {fp, ip, lr}
	.setfp fp, ip, #-4
	sub	fp, ip, #4	@,,
	push	{lr}
	bl	__gnu_mcount_nc
	movw	r2, #:lower16:.LANCHOR0	@ tmp139,
	movt	r2, #:upper16:.LANCHOR0	@ tmp139,
	movw	r3, #:lower16:251488	@ tmp140,
	movt	r3, #:upper16:251488	@ tmp140,
	ldr	r0, [r2, r0, asl #2]	@ D.44788, s_pstVfmwChan
	ldr	r3, [r0, r3]	@ <variable>.stSynCtx.eVidStd, <variable>.stSynCtx.eVidStd
	cmp	r3, #2	@ <variable>.stSynCtx.eVidStd,
	beq	.L205	@,
	cmp	r3, #16	@ <variable>.stSynCtx.eVidStd,
	beq	.L206	@,
	cmp	r3, #0	@ <variable>.stSynCtx.eVidStd,
	movne	r0, #0	@ uImageWidth,
	ldmnefd	sp, {fp, sp, pc}	@
	add	r1, r0, #250880	@, D.44788,
	add	r0, r1, #616	@,,
	bl	H264DEC_GetImageWidth	@
	ldmfd	sp, {fp, sp, pc}	@
.L206:
	add	ip, r0, #250880	@, D.44788,
	add	r0, ip, #616	@,,
	bl	HEVCDEC_GetImageWidth	@
	ldmfd	sp, {fp, sp, pc}	@
.L205:
	add	r0, r0, #250880	@, D.44788,
	add	r0, r0, #616	@,,
	bl	MPEG4DEC_GetImageWidth	@
	ldmfd	sp, {fp, sp, pc}	@
	.fnend
	.size	VCTRL_GetImageWidth, .-VCTRL_GetImageWidth
	.align	2
	.global	VCTRL_CloseHardware
	.type	VCTRL_CloseHardware, %function
VCTRL_CloseHardware:
	.fnstart
.LFB1659:
	@ args = 0, pretend = 0, frame = 0
	@ frame_needed = 1, uses_anonymous_args = 0
	.movsp ip
	mov	ip, sp	@,
	stmfd	sp!, {fp, ip, lr, pc}	@,
	.pad #4
	.save {fp, ip, lr}
	.setfp fp, ip, #-4
	sub	fp, ip, #4	@,,
	push	{lr}
	bl	__gnu_mcount_nc
	movw	r3, #:lower16:.LANCHOR0	@ tmp776,
	movt	r3, #:upper16:.LANCHOR0	@ tmp776,
	ldr	r2, [r3, #0]	@ temp.1521, s_pstVfmwChan
	cmp	r2, #0	@ temp.1521,
	beq	.L210	@,
	ldr	r1, [r2, #12]	@ <variable>.s32IsOpen, <variable>.s32IsOpen
	ldr	r0, [r2, #1032]	@ eVidStd.1522, <variable>.eVidStd
	cmp	r1, #1	@ <variable>.s32IsOpen,
	beq	.L229	@,
.L210:
	ldr	r2, [r3, #4]	@ temp.1538, s_pstVfmwChan
	cmp	r2, #0	@ temp.1538,
	beq	.L212	@,
	ldr	ip, [r2, #12]	@ <variable>.s32IsOpen, <variable>.s32IsOpen
	ldr	r0, [r2, #1032]	@ eVidStd.1539, <variable>.eVidStd
	cmp	ip, #1	@ <variable>.s32IsOpen,
	beq	.L230	@,
.L212:
	ldr	r2, [r3, #8]	@ temp.1557, s_pstVfmwChan
	cmp	r2, #0	@ temp.1557,
	beq	.L213	@,
	ldr	ip, [r2, #12]	@ <variable>.s32IsOpen, <variable>.s32IsOpen
	ldr	r0, [r2, #1032]	@ eVidStd.1558, <variable>.eVidStd
	cmp	ip, #1	@ <variable>.s32IsOpen,
	beq	.L231	@,
.L213:
	ldr	r2, [r3, #12]	@ temp.1576, s_pstVfmwChan
	cmp	r2, #0	@ temp.1576,
	beq	.L214	@,
	ldr	r1, [r2, #12]	@ <variable>.s32IsOpen, <variable>.s32IsOpen
	ldr	r0, [r2, #1032]	@ eVidStd.1577, <variable>.eVidStd
	cmp	r1, #1	@ <variable>.s32IsOpen,
	beq	.L232	@,
.L214:
	ldr	r2, [r3, #16]	@ temp.1595, s_pstVfmwChan
	cmp	r2, #0	@ temp.1595,
	beq	.L215	@,
	ldr	r1, [r2, #12]	@ <variable>.s32IsOpen, <variable>.s32IsOpen
	ldr	r0, [r2, #1032]	@ eVidStd.1596, <variable>.eVidStd
	cmp	r1, #1	@ <variable>.s32IsOpen,
	beq	.L233	@,
.L215:
	ldr	r2, [r3, #20]	@ temp.1614, s_pstVfmwChan
	cmp	r2, #0	@ temp.1614,
	beq	.L216	@,
	ldr	ip, [r2, #12]	@ <variable>.s32IsOpen, <variable>.s32IsOpen
	ldr	r0, [r2, #1032]	@ eVidStd.1615, <variable>.eVidStd
	cmp	ip, #1	@ <variable>.s32IsOpen,
	beq	.L234	@,
.L216:
	ldr	r2, [r3, #24]	@ temp.1633, s_pstVfmwChan
	cmp	r2, #0	@ temp.1633,
	beq	.L217	@,
	ldr	ip, [r2, #12]	@ <variable>.s32IsOpen, <variable>.s32IsOpen
	ldr	r0, [r2, #1032]	@ eVidStd.1634, <variable>.eVidStd
	cmp	ip, #1	@ <variable>.s32IsOpen,
	beq	.L235	@,
.L217:
	ldr	r2, [r3, #28]	@ temp.1652, s_pstVfmwChan
	cmp	r2, #0	@ temp.1652,
	beq	.L218	@,
	ldr	r1, [r2, #12]	@ <variable>.s32IsOpen, <variable>.s32IsOpen
	ldr	r0, [r2, #1032]	@ eVidStd.1653, <variable>.eVidStd
	cmp	r1, #1	@ <variable>.s32IsOpen,
	beq	.L236	@,
.L218:
	ldr	r2, [r3, #32]	@ temp.1671, s_pstVfmwChan
	cmp	r2, #0	@ temp.1671,
	beq	.L219	@,
	ldr	r1, [r2, #12]	@ <variable>.s32IsOpen, <variable>.s32IsOpen
	ldr	r0, [r2, #1032]	@ eVidStd.1672, <variable>.eVidStd
	cmp	r1, #1	@ <variable>.s32IsOpen,
	beq	.L237	@,
.L219:
	ldr	r2, [r3, #36]	@ temp.1690, s_pstVfmwChan
	cmp	r2, #0	@ temp.1690,
	beq	.L220	@,
	ldr	ip, [r2, #12]	@ <variable>.s32IsOpen, <variable>.s32IsOpen
	ldr	r0, [r2, #1032]	@ eVidStd.1691, <variable>.eVidStd
	cmp	ip, #1	@ <variable>.s32IsOpen,
	beq	.L238	@,
.L220:
	ldr	r2, [r3, #40]	@ temp.1709, s_pstVfmwChan
	cmp	r2, #0	@ temp.1709,
	beq	.L221	@,
	ldr	ip, [r2, #12]	@ <variable>.s32IsOpen, <variable>.s32IsOpen
	ldr	r0, [r2, #1032]	@ eVidStd.1710, <variable>.eVidStd
	cmp	ip, #1	@ <variable>.s32IsOpen,
	beq	.L239	@,
.L221:
	ldr	r2, [r3, #44]	@ temp.1728, s_pstVfmwChan
	cmp	r2, #0	@ temp.1728,
	beq	.L222	@,
	ldr	r1, [r2, #12]	@ <variable>.s32IsOpen, <variable>.s32IsOpen
	ldr	r0, [r2, #1032]	@ eVidStd.1729, <variable>.eVidStd
	cmp	r1, #1	@ <variable>.s32IsOpen,
	beq	.L240	@,
.L222:
	ldr	r2, [r3, #48]	@ temp.1747, s_pstVfmwChan
	cmp	r2, #0	@ temp.1747,
	beq	.L223	@,
	ldr	r1, [r2, #12]	@ <variable>.s32IsOpen, <variable>.s32IsOpen
	ldr	r0, [r2, #1032]	@ eVidStd.1748, <variable>.eVidStd
	cmp	r1, #1	@ <variable>.s32IsOpen,
	beq	.L241	@,
.L223:
	ldr	r2, [r3, #52]	@ temp.1766, s_pstVfmwChan
	cmp	r2, #0	@ temp.1766,
	beq	.L224	@,
	ldr	ip, [r2, #12]	@ <variable>.s32IsOpen, <variable>.s32IsOpen
	ldr	r0, [r2, #1032]	@ eVidStd.1767, <variable>.eVidStd
	cmp	ip, #1	@ <variable>.s32IsOpen,
	beq	.L242	@,
.L224:
	ldr	r2, [r3, #56]	@ temp.1785, s_pstVfmwChan
	cmp	r2, #0	@ temp.1785,
	beq	.L225	@,
	ldr	ip, [r2, #12]	@ <variable>.s32IsOpen, <variable>.s32IsOpen
	ldr	r0, [r2, #1032]	@ eVidStd.1786, <variable>.eVidStd
	cmp	ip, #1	@ <variable>.s32IsOpen,
	beq	.L243	@,
.L225:
	ldr	r3, [r3, #60]	@ D.44333, s_pstVfmwChan
	cmp	r3, #0	@ D.44333,
	beq	.L226	@,
	ldr	r0, [r3, #12]	@ <variable>.s32IsOpen, <variable>.s32IsOpen
	ldr	r1, [r3, #1032]	@ eVidStd, <variable>.eVidStd
	cmp	r0, #1	@ <variable>.s32IsOpen,
	beq	.L244	@,
.L226:
	movw	lr, #:lower16:g_vdm_hal_fun_ptr	@ tmp774,
	movt	lr, #:upper16:g_vdm_hal_fun_ptr	@ tmp774,
	ldr	r3, [lr, #4]	@ D.44365, g_vdm_hal_fun_ptr.pfun_VDMDRV_CloseHardware
	cmp	r3, #0	@ D.44365,
	beq	.L245	@,
	mov	r0, #0	@,
	blx	r3	@ D.44365
	ldmfd	sp, {fp, sp, pc}	@
.L229:
	ldr	r2, [r2, #16]	@ <variable>.s32IsRun, <variable>.s32IsRun
	cmp	r2, #1	@ <variable>.s32IsRun,
	bne	.L210	@,
	cmp	r0, #5	@ eVidStd.1522,
	cmpne	r0, #3	@, eVidStd.1522,
	ldmlsfd	sp, {fp, sp, pc}	@
	cmp	r0, #6	@ eVidStd.1522,
	cmpne	r0, #8	@, eVidStd.1522,
	ldmeqfd	sp, {fp, sp, pc}	@
	cmp	r0, #9	@ eVidStd.1522,
	cmpne	r0, #10	@, eVidStd.1522,
	ldmeqfd	sp, {fp, sp, pc}	@
	cmp	r0, #11	@ eVidStd.1522,
	cmpne	r0, #12	@, eVidStd.1522,
	ldmeqfd	sp, {fp, sp, pc}	@
	cmp	r0, #13	@ eVidStd.1522,
	cmpne	r0, #15	@, eVidStd.1522,
	ldmeqfd	sp, {fp, sp, pc}	@
	cmp	r0, #16	@ eVidStd.1522,
	bne	.L210	@,
	ldmfd	sp, {fp, sp, pc}	@
.L230:
	ldr	r1, [r2, #16]	@ <variable>.s32IsRun, <variable>.s32IsRun
	cmp	r1, #1	@ <variable>.s32IsRun,
	bne	.L212	@,
	cmp	r0, #5	@ eVidStd.1539,
	cmpne	r0, #3	@, eVidStd.1539,
	ldmlsfd	sp, {fp, sp, pc}	@
	cmp	r0, #6	@ eVidStd.1539,
	cmpne	r0, #8	@, eVidStd.1539,
	ldmeqfd	sp, {fp, sp, pc}	@
	cmp	r0, #9	@ eVidStd.1539,
	cmpne	r0, #10	@, eVidStd.1539,
	ldmeqfd	sp, {fp, sp, pc}	@
	cmp	r0, #11	@ eVidStd.1539,
	cmpne	r0, #12	@, eVidStd.1539,
	ldmeqfd	sp, {fp, sp, pc}	@
	cmp	r0, #13	@ eVidStd.1539,
	cmpne	r0, #15	@, eVidStd.1539,
	ldmeqfd	sp, {fp, sp, pc}	@
	cmp	r0, #16	@ eVidStd.1539,
	bne	.L212	@,
	ldmfd	sp, {fp, sp, pc}	@
.L231:
	ldr	r2, [r2, #16]	@ <variable>.s32IsRun, <variable>.s32IsRun
	cmp	r2, #1	@ <variable>.s32IsRun,
	bne	.L213	@,
	cmp	r0, #5	@ eVidStd.1558,
	cmpne	r0, #3	@, eVidStd.1558,
	ldmlsfd	sp, {fp, sp, pc}	@
	cmp	r0, #6	@ eVidStd.1558,
	cmpne	r0, #8	@, eVidStd.1558,
	ldmeqfd	sp, {fp, sp, pc}	@
	cmp	r0, #9	@ eVidStd.1558,
	cmpne	r0, #10	@, eVidStd.1558,
	ldmeqfd	sp, {fp, sp, pc}	@
	cmp	r0, #11	@ eVidStd.1558,
	cmpne	r0, #12	@, eVidStd.1558,
	ldmeqfd	sp, {fp, sp, pc}	@
	cmp	r0, #13	@ eVidStd.1558,
	cmpne	r0, #15	@, eVidStd.1558,
	ldmeqfd	sp, {fp, sp, pc}	@
	cmp	r0, #16	@ eVidStd.1558,
	bne	.L213	@,
	ldmfd	sp, {fp, sp, pc}	@
.L232:
	ldr	ip, [r2, #16]	@ <variable>.s32IsRun, <variable>.s32IsRun
	cmp	ip, #1	@ <variable>.s32IsRun,
	bne	.L214	@,
	cmp	r0, #5	@ eVidStd.1577,
	cmpne	r0, #3	@, eVidStd.1577,
	ldmlsfd	sp, {fp, sp, pc}	@
	cmp	r0, #6	@ eVidStd.1577,
	cmpne	r0, #8	@, eVidStd.1577,
	ldmeqfd	sp, {fp, sp, pc}	@
	cmp	r0, #9	@ eVidStd.1577,
	cmpne	r0, #10	@, eVidStd.1577,
	ldmeqfd	sp, {fp, sp, pc}	@
	cmp	r0, #11	@ eVidStd.1577,
	cmpne	r0, #12	@, eVidStd.1577,
	ldmeqfd	sp, {fp, sp, pc}	@
	cmp	r0, #13	@ eVidStd.1577,
	cmpne	r0, #15	@, eVidStd.1577,
	ldmeqfd	sp, {fp, sp, pc}	@
	cmp	r0, #16	@ eVidStd.1577,
	bne	.L214	@,
	ldmfd	sp, {fp, sp, pc}	@
.L233:
	ldr	r2, [r2, #16]	@ <variable>.s32IsRun, <variable>.s32IsRun
	cmp	r2, #1	@ <variable>.s32IsRun,
	bne	.L215	@,
	cmp	r0, #5	@ eVidStd.1596,
	cmpne	r0, #3	@, eVidStd.1596,
	ldmlsfd	sp, {fp, sp, pc}	@
	cmp	r0, #6	@ eVidStd.1596,
	cmpne	r0, #8	@, eVidStd.1596,
	ldmeqfd	sp, {fp, sp, pc}	@
	cmp	r0, #9	@ eVidStd.1596,
	cmpne	r0, #10	@, eVidStd.1596,
	ldmeqfd	sp, {fp, sp, pc}	@
	cmp	r0, #11	@ eVidStd.1596,
	cmpne	r0, #12	@, eVidStd.1596,
	ldmeqfd	sp, {fp, sp, pc}	@
	cmp	r0, #13	@ eVidStd.1596,
	cmpne	r0, #15	@, eVidStd.1596,
	ldmeqfd	sp, {fp, sp, pc}	@
	cmp	r0, #16	@ eVidStd.1596,
	bne	.L215	@,
	ldmfd	sp, {fp, sp, pc}	@
.L234:
	ldr	r1, [r2, #16]	@ <variable>.s32IsRun, <variable>.s32IsRun
	cmp	r1, #1	@ <variable>.s32IsRun,
	bne	.L216	@,
	cmp	r0, #5	@ eVidStd.1615,
	cmpne	r0, #3	@, eVidStd.1615,
	ldmlsfd	sp, {fp, sp, pc}	@
	cmp	r0, #6	@ eVidStd.1615,
	cmpne	r0, #8	@, eVidStd.1615,
	ldmeqfd	sp, {fp, sp, pc}	@
	cmp	r0, #9	@ eVidStd.1615,
	cmpne	r0, #10	@, eVidStd.1615,
	ldmeqfd	sp, {fp, sp, pc}	@
	cmp	r0, #11	@ eVidStd.1615,
	cmpne	r0, #12	@, eVidStd.1615,
	ldmeqfd	sp, {fp, sp, pc}	@
	cmp	r0, #13	@ eVidStd.1615,
	cmpne	r0, #15	@, eVidStd.1615,
	ldmeqfd	sp, {fp, sp, pc}	@
	cmp	r0, #16	@ eVidStd.1615,
	bne	.L216	@,
	ldmfd	sp, {fp, sp, pc}	@
.L235:
	ldr	r2, [r2, #16]	@ <variable>.s32IsRun, <variable>.s32IsRun
	cmp	r2, #1	@ <variable>.s32IsRun,
	bne	.L217	@,
	cmp	r0, #5	@ eVidStd.1634,
	cmpne	r0, #3	@, eVidStd.1634,
	ldmlsfd	sp, {fp, sp, pc}	@
	cmp	r0, #6	@ eVidStd.1634,
	cmpne	r0, #8	@, eVidStd.1634,
	ldmeqfd	sp, {fp, sp, pc}	@
	cmp	r0, #9	@ eVidStd.1634,
	cmpne	r0, #10	@, eVidStd.1634,
	ldmeqfd	sp, {fp, sp, pc}	@
	cmp	r0, #11	@ eVidStd.1634,
	cmpne	r0, #12	@, eVidStd.1634,
	ldmeqfd	sp, {fp, sp, pc}	@
	cmp	r0, #13	@ eVidStd.1634,
	cmpne	r0, #15	@, eVidStd.1634,
	ldmeqfd	sp, {fp, sp, pc}	@
	cmp	r0, #16	@ eVidStd.1634,
	bne	.L217	@,
	ldmfd	sp, {fp, sp, pc}	@
.L236:
	ldr	ip, [r2, #16]	@ <variable>.s32IsRun, <variable>.s32IsRun
	cmp	ip, #1	@ <variable>.s32IsRun,
	bne	.L218	@,
	cmp	r0, #5	@ eVidStd.1653,
	cmpne	r0, #3	@, eVidStd.1653,
	ldmlsfd	sp, {fp, sp, pc}	@
	cmp	r0, #6	@ eVidStd.1653,
	cmpne	r0, #8	@, eVidStd.1653,
	ldmeqfd	sp, {fp, sp, pc}	@
	cmp	r0, #9	@ eVidStd.1653,
	cmpne	r0, #10	@, eVidStd.1653,
	ldmeqfd	sp, {fp, sp, pc}	@
	cmp	r0, #11	@ eVidStd.1653,
	cmpne	r0, #12	@, eVidStd.1653,
	ldmeqfd	sp, {fp, sp, pc}	@
	cmp	r0, #13	@ eVidStd.1653,
	cmpne	r0, #15	@, eVidStd.1653,
	ldmeqfd	sp, {fp, sp, pc}	@
	cmp	r0, #16	@ eVidStd.1653,
	bne	.L218	@,
	ldmfd	sp, {fp, sp, pc}	@
.L237:
	ldr	r2, [r2, #16]	@ <variable>.s32IsRun, <variable>.s32IsRun
	cmp	r2, #1	@ <variable>.s32IsRun,
	bne	.L219	@,
	cmp	r0, #5	@ eVidStd.1672,
	cmpne	r0, #3	@, eVidStd.1672,
	ldmlsfd	sp, {fp, sp, pc}	@
	cmp	r0, #6	@ eVidStd.1672,
	cmpne	r0, #8	@, eVidStd.1672,
	ldmeqfd	sp, {fp, sp, pc}	@
	cmp	r0, #9	@ eVidStd.1672,
	cmpne	r0, #10	@, eVidStd.1672,
	ldmeqfd	sp, {fp, sp, pc}	@
	cmp	r0, #11	@ eVidStd.1672,
	cmpne	r0, #12	@, eVidStd.1672,
	ldmeqfd	sp, {fp, sp, pc}	@
	cmp	r0, #13	@ eVidStd.1672,
	cmpne	r0, #15	@, eVidStd.1672,
	ldmeqfd	sp, {fp, sp, pc}	@
	cmp	r0, #16	@ eVidStd.1672,
	bne	.L219	@,
	ldmfd	sp, {fp, sp, pc}	@
.L238:
	ldr	r1, [r2, #16]	@ <variable>.s32IsRun, <variable>.s32IsRun
	cmp	r1, #1	@ <variable>.s32IsRun,
	bne	.L220	@,
	cmp	r0, #5	@ eVidStd.1691,
	cmpne	r0, #3	@, eVidStd.1691,
	ldmlsfd	sp, {fp, sp, pc}	@
	cmp	r0, #6	@ eVidStd.1691,
	cmpne	r0, #8	@, eVidStd.1691,
	ldmeqfd	sp, {fp, sp, pc}	@
	cmp	r0, #9	@ eVidStd.1691,
	cmpne	r0, #10	@, eVidStd.1691,
	ldmeqfd	sp, {fp, sp, pc}	@
	cmp	r0, #11	@ eVidStd.1691,
	cmpne	r0, #12	@, eVidStd.1691,
	ldmeqfd	sp, {fp, sp, pc}	@
	cmp	r0, #13	@ eVidStd.1691,
	cmpne	r0, #15	@, eVidStd.1691,
	ldmeqfd	sp, {fp, sp, pc}	@
	cmp	r0, #16	@ eVidStd.1691,
	bne	.L220	@,
	ldmfd	sp, {fp, sp, pc}	@
.L239:
	ldr	r2, [r2, #16]	@ <variable>.s32IsRun, <variable>.s32IsRun
	cmp	r2, #1	@ <variable>.s32IsRun,
	bne	.L221	@,
	cmp	r0, #5	@ eVidStd.1710,
	cmpne	r0, #3	@, eVidStd.1710,
	ldmlsfd	sp, {fp, sp, pc}	@
	cmp	r0, #6	@ eVidStd.1710,
	cmpne	r0, #8	@, eVidStd.1710,
	ldmeqfd	sp, {fp, sp, pc}	@
	cmp	r0, #9	@ eVidStd.1710,
	cmpne	r0, #10	@, eVidStd.1710,
	ldmeqfd	sp, {fp, sp, pc}	@
	cmp	r0, #11	@ eVidStd.1710,
	cmpne	r0, #12	@, eVidStd.1710,
	ldmeqfd	sp, {fp, sp, pc}	@
	cmp	r0, #13	@ eVidStd.1710,
	cmpne	r0, #15	@, eVidStd.1710,
	ldmeqfd	sp, {fp, sp, pc}	@
	cmp	r0, #16	@ eVidStd.1710,
	bne	.L221	@,
	ldmfd	sp, {fp, sp, pc}	@
.L240:
	ldr	ip, [r2, #16]	@ <variable>.s32IsRun, <variable>.s32IsRun
	cmp	ip, #1	@ <variable>.s32IsRun,
	bne	.L222	@,
	cmp	r0, #5	@ eVidStd.1729,
	cmpne	r0, #3	@, eVidStd.1729,
	ldmlsfd	sp, {fp, sp, pc}	@
	cmp	r0, #6	@ eVidStd.1729,
	cmpne	r0, #8	@, eVidStd.1729,
	ldmeqfd	sp, {fp, sp, pc}	@
	cmp	r0, #9	@ eVidStd.1729,
	cmpne	r0, #10	@, eVidStd.1729,
	ldmeqfd	sp, {fp, sp, pc}	@
	cmp	r0, #11	@ eVidStd.1729,
	cmpne	r0, #12	@, eVidStd.1729,
	ldmeqfd	sp, {fp, sp, pc}	@
	cmp	r0, #13	@ eVidStd.1729,
	cmpne	r0, #15	@, eVidStd.1729,
	ldmeqfd	sp, {fp, sp, pc}	@
	cmp	r0, #16	@ eVidStd.1729,
	bne	.L222	@,
	ldmfd	sp, {fp, sp, pc}	@
.L241:
	ldr	r2, [r2, #16]	@ <variable>.s32IsRun, <variable>.s32IsRun
	cmp	r2, #1	@ <variable>.s32IsRun,
	bne	.L223	@,
	cmp	r0, #5	@ eVidStd.1748,
	cmpne	r0, #3	@, eVidStd.1748,
	ldmlsfd	sp, {fp, sp, pc}	@
	cmp	r0, #6	@ eVidStd.1748,
	cmpne	r0, #8	@, eVidStd.1748,
	ldmeqfd	sp, {fp, sp, pc}	@
	cmp	r0, #9	@ eVidStd.1748,
	cmpne	r0, #10	@, eVidStd.1748,
	ldmeqfd	sp, {fp, sp, pc}	@
	cmp	r0, #11	@ eVidStd.1748,
	cmpne	r0, #12	@, eVidStd.1748,
	ldmeqfd	sp, {fp, sp, pc}	@
	cmp	r0, #13	@ eVidStd.1748,
	cmpne	r0, #15	@, eVidStd.1748,
	ldmeqfd	sp, {fp, sp, pc}	@
	cmp	r0, #16	@ eVidStd.1748,
	bne	.L223	@,
	ldmfd	sp, {fp, sp, pc}	@
.L242:
	ldr	r1, [r2, #16]	@ <variable>.s32IsRun, <variable>.s32IsRun
	cmp	r1, #1	@ <variable>.s32IsRun,
	bne	.L224	@,
	cmp	r0, #5	@ eVidStd.1767,
	cmpne	r0, #3	@, eVidStd.1767,
	ldmlsfd	sp, {fp, sp, pc}	@
	cmp	r0, #6	@ eVidStd.1767,
	cmpne	r0, #8	@, eVidStd.1767,
	ldmeqfd	sp, {fp, sp, pc}	@
	cmp	r0, #9	@ eVidStd.1767,
	cmpne	r0, #10	@, eVidStd.1767,
	ldmeqfd	sp, {fp, sp, pc}	@
	cmp	r0, #11	@ eVidStd.1767,
	cmpne	r0, #12	@, eVidStd.1767,
	ldmeqfd	sp, {fp, sp, pc}	@
	cmp	r0, #13	@ eVidStd.1767,
	cmpne	r0, #15	@, eVidStd.1767,
	ldmeqfd	sp, {fp, sp, pc}	@
	cmp	r0, #16	@ eVidStd.1767,
	bne	.L224	@,
	ldmfd	sp, {fp, sp, pc}	@
.L243:
	ldr	r2, [r2, #16]	@ <variable>.s32IsRun, <variable>.s32IsRun
	cmp	r2, #1	@ <variable>.s32IsRun,
	bne	.L225	@,
	cmp	r0, #5	@ eVidStd.1786,
	cmpne	r0, #3	@, eVidStd.1786,
	ldmlsfd	sp, {fp, sp, pc}	@
	cmp	r0, #6	@ eVidStd.1786,
	cmpne	r0, #8	@, eVidStd.1786,
	ldmeqfd	sp, {fp, sp, pc}	@
	cmp	r0, #9	@ eVidStd.1786,
	cmpne	r0, #10	@, eVidStd.1786,
	ldmeqfd	sp, {fp, sp, pc}	@
	cmp	r0, #11	@ eVidStd.1786,
	cmpne	r0, #12	@, eVidStd.1786,
	ldmeqfd	sp, {fp, sp, pc}	@
	cmp	r0, #13	@ eVidStd.1786,
	cmpne	r0, #15	@, eVidStd.1786,
	ldmeqfd	sp, {fp, sp, pc}	@
	cmp	r0, #16	@ eVidStd.1786,
	bne	.L225	@,
	ldmfd	sp, {fp, sp, pc}	@
.L244:
	ldr	r3, [r3, #16]	@ <variable>.s32IsRun, <variable>.s32IsRun
	cmp	r3, #1	@ <variable>.s32IsRun,
	bne	.L226	@,
	cmp	r1, #5	@ eVidStd,
	cmpne	r1, #3	@, eVidStd,
	ldmlsfd	sp, {fp, sp, pc}	@
	cmp	r1, #6	@ eVidStd,
	cmpne	r1, #8	@, eVidStd,
	ldmeqfd	sp, {fp, sp, pc}	@
	cmp	r1, #9	@ eVidStd,
	cmpne	r1, #10	@, eVidStd,
	ldmeqfd	sp, {fp, sp, pc}	@
	cmp	r1, #11	@ eVidStd,
	cmpne	r1, #12	@, eVidStd,
	ldmeqfd	sp, {fp, sp, pc}	@
	cmp	r1, #13	@ eVidStd,
	cmpne	r1, #15	@, eVidStd,
	ldmeqfd	sp, {fp, sp, pc}	@
	cmp	r1, #16	@ eVidStd,
	bne	.L226	@,
	ldmfd	sp, {fp, sp, pc}	@
.L245:
	mov	r0, r3	@, D.44365
	movw	r1, #:lower16:.LC0	@,
	movw	r2, #10015	@,
	movt	r1, #:upper16:.LC0	@,
	bl	dprint_vfmw	@
	ldmfd	sp, {fp, sp, pc}	@
	.fnend
	.size	VCTRL_CloseHardware, .-VCTRL_CloseHardware
	.align	2
	.global	VCTRL_OpenHardware
	.type	VCTRL_OpenHardware, %function
VCTRL_OpenHardware:
	.fnstart
.LFB1658:
	@ args = 0, pretend = 0, frame = 0
	@ frame_needed = 1, uses_anonymous_args = 0
	.movsp ip
	mov	ip, sp	@,
	stmfd	sp!, {fp, ip, lr, pc}	@,
	.pad #4
	.save {fp, ip, lr}
	.setfp fp, ip, #-4
	sub	fp, ip, #4	@,,
	push	{lr}
	bl	__gnu_mcount_nc
	cmp	r0, #15	@ ChanID,
	bhi	.L254	@,
	movw	r3, #:lower16:.LANCHOR0	@ tmp138,
	movt	r3, #:upper16:.LANCHOR0	@ tmp138,
	ldr	r0, [r3, r0, asl #2]	@ D.44295, s_pstVfmwChan
	cmp	r0, #0	@ D.44295,
	beq	.L255	@,
	ldr	r1, [r0, #12]	@ <variable>.s32IsOpen, <variable>.s32IsOpen
	cmp	r1, #1	@ <variable>.s32IsOpen,
	bne	.L250	@,
	ldr	r0, [r0, #1032]	@ D.44303, <variable>.eVidStd
	cmp	r0, #19	@ D.44303,
	beq	.L250	@,
	cmp	r0, #7	@ D.44303,
	cmpne	r0, #4	@, D.44303,
	ldmeqfd	sp, {fp, sp, pc}	@
	cmp	r0, #14	@ D.44303,
	cmpne	r0, #18	@, D.44303,
	movne	r0, #0	@, tmp155
	moveq	r0, #1	@, tmp155
	ldmeqfd	sp, {fp, sp, pc}	@
	movw	r2, #:lower16:g_vdm_hal_fun_ptr	@ tmp156,
	movt	r2, #:upper16:g_vdm_hal_fun_ptr	@ tmp156,
	ldr	r3, [r2, #0]	@ D.44314, g_vdm_hal_fun_ptr.pfun_VDMDRV_OpenHardware
	cmp	r3, #0	@ D.44314,
	beq	.L256	@,
	blx	r3	@ D.44314
	ldmfd	sp, {fp, sp, pc}	@
.L250:
	movw	r1, #:lower16:.LC3	@,
	movw	r2, #9959	@,
	movt	r1, #:upper16:.LC3	@,
	mov	r0, #0	@,
	bl	dprint_vfmw	@
	ldmfd	sp, {fp, sp, pc}	@
.L254:
	movw	r1, #:lower16:.LC1	@,
	movw	r2, #9947	@,
	movt	r1, #:upper16:.LC1	@,
	mov	r0, #0	@,
	bl	dprint_vfmw	@
	ldmfd	sp, {fp, sp, pc}	@
.L255:
	movw	r1, #:lower16:.LC2	@,
	movw	r2, #9953	@,
	movt	r1, #:upper16:.LC2	@,
	bl	dprint_vfmw	@
	ldmfd	sp, {fp, sp, pc}	@
.L256:
	mov	r0, r3	@, D.44314
	movw	r1, #:lower16:.LC0	@,
	movw	r2, #9975	@,
	movt	r1, #:upper16:.LC0	@,
	bl	dprint_vfmw	@
	ldmfd	sp, {fp, sp, pc}	@
	.fnend
	.size	VCTRL_OpenHardware, .-VCTRL_OpenHardware
	.align	2
	.global	Get_YuvFormat
	.type	Get_YuvFormat, %function
Get_YuvFormat:
	.fnstart
.LFB1657:
	@ args = 0, pretend = 0, frame = 0
	@ frame_needed = 1, uses_anonymous_args = 0
	.movsp ip
	mov	ip, sp	@,
	stmfd	sp!, {fp, ip, lr, pc}	@,
	.pad #4
	.save {fp, ip, lr}
	.setfp fp, ip, #-4
	sub	fp, ip, #4	@,,
	push	{lr}
	bl	__gnu_mcount_nc
	cmp	r1, #6	@ enFmt,
	ldrls	pc, [pc, r1, asl #2]	@ enFmt
	b	.L258	@
.L266:
	.word	.L259
	.word	.L260
	.word	.L261
	.word	.L262
	.word	.L263
	.word	.L264
	.word	.L265
.L265:
	cmp	r0, #1	@ SemiPlanarFlag,
	movne	r0, #7	@, eYuvFormat,
	ldmfd	sp, {fp, sp, pc}	@
.L258:
	mov	r3, r1	@, enFmt
	movw	r2, #9929	@,
	mov	r0, #1	@,
	movw	r1, #:lower16:.LC4	@,
	movt	r1, #:upper16:.LC4	@,
	bl	dprint_vfmw	@
	mov	r0, #13	@ eYuvFormat,
	ldmfd	sp, {fp, sp, pc}	@
.L259:
	cmp	r0, #1	@ SemiPlanarFlag,
	movne	r0, #6	@ eYuvFormat,
	moveq	r0, #0	@ eYuvFormat,
	ldmfd	sp, {fp, sp, pc}	@
.L260:
	cmp	r0, #1	@ SemiPlanarFlag,
	moveq	r0, #2	@ eYuvFormat,
	movne	r0, #8	@ eYuvFormat,
	ldmfd	sp, {fp, sp, pc}	@
.L261:
	cmp	r0, #1	@ SemiPlanarFlag,
	moveq	r0, #4	@ eYuvFormat,
	movne	r0, #10	@ eYuvFormat,
	ldmfd	sp, {fp, sp, pc}	@
.L262:
	cmp	r0, #1	@ SemiPlanarFlag,
	moveq	r0, #3	@ eYuvFormat,
	movne	r0, #9	@ eYuvFormat,
	ldmfd	sp, {fp, sp, pc}	@
.L263:
	cmp	r0, #1	@ SemiPlanarFlag,
	moveq	r0, #5	@ eYuvFormat,
	movne	r0, #11	@ eYuvFormat,
	ldmfd	sp, {fp, sp, pc}	@
.L264:
	cmp	r0, #1	@ SemiPlanarFlag,
	moveq	r0, #13	@ eYuvFormat,
	movne	r0, #12	@ eYuvFormat,
	ldmfd	sp, {fp, sp, pc}	@
	.fnend
	.size	Get_YuvFormat, .-Get_YuvFormat
	.align	2
	.global	VCTRL_SetLastFrameState
	.type	VCTRL_SetLastFrameState, %function
VCTRL_SetLastFrameState:
	.fnstart
.LFB1631:
	@ args = 0, pretend = 0, frame = 0
	@ frame_needed = 1, uses_anonymous_args = 0
	.movsp ip
	mov	ip, sp	@,
	stmfd	sp!, {fp, ip, lr, pc}	@,
	.pad #4
	.save {fp, ip, lr}
	.setfp fp, ip, #-4
	sub	fp, ip, #4	@,,
	push	{lr}
	bl	__gnu_mcount_nc
	cmp	r0, #15	@ ChanID,
	bhi	.L280	@,
	movw	r2, #:lower16:.LANCHOR0	@ tmp138,
	movt	r2, #:upper16:.LANCHOR0	@ tmp138,
	ldr	r3, [r2, r0, asl #2]	@ D.43227, s_pstVfmwChan
	cmp	r3, #0	@ D.43227,
	strne	r1, [r3, #824]	@ eState, <variable>.eLastFrameState
	ldmfd	sp, {fp, sp, pc}	@
.L280:
	movw	r1, #:lower16:.LC5	@,
	movw	r2, #8278	@,
	movt	r1, #:upper16:.LC5	@,
	movw	r3, #:lower16:.LC6	@,
	mov	r0, #0	@,
	movt	r3, #:upper16:.LC6	@,
	bl	dprint_vfmw	@
	ldmfd	sp, {fp, sp, pc}	@
	.fnend
	.size	VCTRL_SetLastFrameState, .-VCTRL_SetLastFrameState
	.align	2
	.global	VCTRL_ReportLastFrame
	.type	VCTRL_ReportLastFrame, %function
VCTRL_ReportLastFrame:
	.fnstart
.LFB1632:
	@ args = 0, pretend = 0, frame = 8
	@ frame_needed = 1, uses_anonymous_args = 0
	.movsp ip
	mov	ip, sp	@,
	stmfd	sp!, {r4, r5, r6, fp, ip, lr, pc}	@,
	.pad #4
	.save {r4, r5, r6, fp, ip, lr}
	.setfp fp, ip, #-4
	sub	fp, ip, #4	@,,
	.pad #12
	sub	sp, sp, #12	@,,
	push	{lr}
	bl	__gnu_mcount_nc
	cmp	r1, #1	@ Value,
	mov	r5, r1	@ Value, Value
	movw	r4, #:lower16:.LANCHOR0	@ tmp145,
	movwls	r3, #:lower16:.LANCHOR1	@ tmp138,
	movtls	r3, #:upper16:.LANCHOR1	@ tmp138,
	movt	r4, #:upper16:.LANCHOR0	@ tmp145,
	movhi	r1, #4	@ eState,
	ldrls	r1, [r3, r5, asl #2]	@ eState, CSWTCH.916
	mov	r6, r0	@ ChanID, ChanID
	bl	VCTRL_SetLastFrameState	@
	ldr	ip, [r4, #64]	@ g_event_report.789, g_event_report
	cmp	ip, #0	@ g_event_report.789,
	beq	.L284	@,
	sub	r2, fp, #28	@ tmp140,,
	mov	r0, r6	@, ChanID
	mov	r1, #115	@,
	mov	r3, #4	@,
	str	r5, [r2, #-4]!	@ Value, para
	blx	ip	@ g_event_report.789
.L284:
	ldr	r3, [r4, r6, asl #2]	@ tmp143, s_pstVfmwChan
	mov	r2, r5	@, Value
	movw	r1, #:lower16:.LC7	@,
	mov	r0, #1	@,
	movt	r1, #:upper16:.LC7	@,
	ldr	r3, [r3, #824]	@, <variable>.eLastFrameState
	bl	dprint_vfmw	@
	sub	sp, fp, #24
	ldmfd	sp, {r4, r5, r6, fp, sp, pc}
	.fnend
	.size	VCTRL_ReportLastFrame, .-VCTRL_ReportLastFrame
	.align	2
	.global	VCTRL_SvdecLastFrame
	.type	VCTRL_SvdecLastFrame, %function
VCTRL_SvdecLastFrame:
	.fnstart
.LFB1634:
	@ args = 0, pretend = 0, frame = 0
	@ frame_needed = 1, uses_anonymous_args = 0
	.movsp ip
	mov	ip, sp	@,
	stmfd	sp!, {fp, ip, lr, pc}	@,
	.pad #4
	.save {fp, ip, lr}
	.setfp fp, ip, #-4
	sub	fp, ip, #4	@,,
	push	{lr}
	bl	__gnu_mcount_nc
	add	r1, r1, #2	@, LastFrameID,
	bl	VCTRL_ReportLastFrame	@
	ldmfd	sp, {fp, sp, pc}	@
	.fnend
	.size	VCTRL_SvdecLastFrame, .-VCTRL_SvdecLastFrame
	.align	2
	.global	VCTRL_SetLastFrameIdPlus2
	.type	VCTRL_SetLastFrameIdPlus2, %function
VCTRL_SetLastFrameIdPlus2:
	.fnstart
.LFB1630:
	@ args = 0, pretend = 0, frame = 0
	@ frame_needed = 1, uses_anonymous_args = 0
	.movsp ip
	mov	ip, sp	@,
	stmfd	sp!, {fp, ip, lr, pc}	@,
	.pad #4
	.save {fp, ip, lr}
	.setfp fp, ip, #-4
	sub	fp, ip, #4	@,,
	push	{lr}
	bl	__gnu_mcount_nc
	cmp	r0, #15	@ ChanID,
	bhi	.L292	@,
	movw	r2, #:lower16:.LANCHOR0	@ tmp138,
	movt	r2, #:upper16:.LANCHOR0	@ tmp138,
	ldr	r3, [r2, r0, asl #2]	@ D.43215, s_pstVfmwChan
	cmp	r3, #0	@ D.43215,
	strne	r1, [r3, #820]	@ Value, <variable>.s32LastFrameIdPlus2
	ldmfd	sp, {fp, sp, pc}	@
.L292:
	movw	r1, #:lower16:.LC5	@,
	movw	r2, #8266	@,
	movt	r1, #:upper16:.LC5	@,
	movw	r3, #:lower16:.LC6	@,
	mov	r0, #0	@,
	movt	r3, #:upper16:.LC6	@,
	bl	dprint_vfmw	@
	ldmfd	sp, {fp, sp, pc}	@
	.fnend
	.size	VCTRL_SetLastFrameIdPlus2, .-VCTRL_SetLastFrameIdPlus2
	.align	2
	.global	VCTRL_GetLastFrameIdPlus2
	.type	VCTRL_GetLastFrameIdPlus2, %function
VCTRL_GetLastFrameIdPlus2:
	.fnstart
.LFB1629:
	@ args = 0, pretend = 0, frame = 0
	@ frame_needed = 1, uses_anonymous_args = 0
	.movsp ip
	mov	ip, sp	@,
	stmfd	sp!, {fp, ip, lr, pc}	@,
	.pad #4
	.save {fp, ip, lr}
	.setfp fp, ip, #-4
	sub	fp, ip, #4	@,,
	push	{lr}
	bl	__gnu_mcount_nc
	cmp	r0, #15	@ ChanID,
	bhi	.L298	@,
	movw	r1, #:lower16:.LANCHOR0	@ tmp139,
	movt	r1, #:upper16:.LANCHOR0	@ tmp139,
	ldr	r3, [r1, r0, asl #2]	@ D.43203, s_pstVfmwChan
	cmp	r3, #0	@ D.43203,
	mvneq	r0, #0	@ D.43201,
	ldrne	r0, [r3, #820]	@ D.43201, <variable>.s32LastFrameIdPlus2
	ldmfd	sp, {fp, sp, pc}	@
.L298:
	mov	r0, #0	@,
	movw	r1, #:lower16:.LC5	@,
	movw	r2, #8254	@,
	movt	r1, #:upper16:.LC5	@,
	movw	r3, #:lower16:.LC6	@,
	movt	r3, #:upper16:.LC6	@,
	bl	dprint_vfmw	@
	mvn	r0, #0	@ D.43201,
	ldmfd	sp, {fp, sp, pc}	@
	.fnend
	.size	VCTRL_GetLastFrameIdPlus2, .-VCTRL_GetLastFrameIdPlus2
	.align	2
	.global	VCTRL_SetVdecExtra
	.type	VCTRL_SetVdecExtra, %function
VCTRL_SetVdecExtra:
	.fnstart
.LFB1620:
	@ args = 0, pretend = 0, frame = 0
	@ frame_needed = 1, uses_anonymous_args = 0
	.movsp ip
	mov	ip, sp	@,
	stmfd	sp!, {r3, r4, r5, r6, fp, ip, lr, pc}	@,
	.pad #4
	.save {r3, r4, r5, r6, fp, ip, lr}
	.setfp fp, ip, #-4
	sub	fp, ip, #4	@,,
	push	{lr}
	bl	__gnu_mcount_nc
	add	r4, r0, #4992	@ tmp138, new_extra_ref,
	add	r3, r4, #8	@ tmp138, tmp138,
	movw	r2, #10000	@ tmp140,
	movw	r4, #:lower16:.LANCHOR0	@ tmp158,
	cmp	r3, r2	@ tmp138, tmp140
	movt	r4, #:upper16:.LANCHOR0	@ tmp158,
	mov	r5, r1	@ new_extra_disp, new_extra_disp
	str	r0, [r4, #68]	@ new_extra_ref, extra_ref
	bhi	.L303	@,
.L300:
	add	r2, r5, #4992	@ tmp148, new_extra_disp,
	movw	ip, #5000	@ tmp143,
	add	r1, r2, #8	@ tmp148, tmp148,
	cmp	r0, ip	@ new_extra_ref, tmp143
	movge	r0, ip	@ iftmp.687, tmp143
	movw	r6, #:lower16:-5000	@ tmp145,
	movt	r6, #:upper16:-5000	@ tmp145,
	cmp	r0, r6	@ iftmp.687, tmp145
	strge	r0, [r4, #68]	@, iftmp.687, extra_ref
	strlt	r6, [r4, #68]	@, tmp145, extra_ref
	movw	r0, #10000	@ tmp150,
	cmp	r1, r0	@ tmp148, tmp150
	movw	r6, #:lower16:.LANCHOR0	@ tmp144,
	str	r5, [r4, #72]	@ new_extra_disp, extra_disp
	movt	r6, #:upper16:.LANCHOR0	@ tmp144,
	bhi	.L304	@,
.L301:
	movw	r0, #5000	@ tmp153,
	movw	r3, #:lower16:-5000	@ tmp155,
	cmp	r5, r0	@ new_extra_disp, tmp153
	movge	r5, r0	@ iftmp.1991, tmp153
	movt	r3, #:upper16:-5000	@ tmp155,
	cmp	r5, r3	@ iftmp.1991, tmp155
	strge	r5, [r4, #72]	@, iftmp.1991, extra_disp
	strlt	r3, [r4, #72]	@, tmp155, extra_disp
	ldmfd	sp, {r3, r4, r5, r6, fp, sp, pc}	@
.L303:
	mov	r2, r0	@, new_extra_ref
	movw	r1, #:lower16:.LC8	@,
	mov	r0, #32	@,
	movt	r1, #:upper16:.LC8	@,
	bl	dprint_vfmw	@
	ldr	r0, [r4, #68]	@ new_extra_ref, extra_ref
	b	.L300	@
.L304:
	mov	r2, r5	@, new_extra_disp
	mov	r0, #32	@,
	movw	r1, #:lower16:.LC9	@,
	movt	r1, #:upper16:.LC9	@,
	bl	dprint_vfmw	@
	ldr	r5, [r6, #72]	@ new_extra_disp, extra_disp
	b	.L301	@
	.fnend
	.size	VCTRL_SetVdecExtra, .-VCTRL_SetVdecExtra
	.align	2
	.global	VCTRL_GetChanCapLevel
	.type	VCTRL_GetChanCapLevel, %function
VCTRL_GetChanCapLevel:
	.fnstart
.LFB1619:
	@ args = 0, pretend = 0, frame = 0
	@ frame_needed = 1, uses_anonymous_args = 0
	.movsp ip
	mov	ip, sp	@,
	stmfd	sp!, {fp, ip, lr, pc}	@,
	.pad #4
	.save {fp, ip, lr}
	.setfp fp, ip, #-4
	sub	fp, ip, #4	@,,
	push	{lr}
	bl	__gnu_mcount_nc
	cmp	r0, #15	@ ChanID,
	bhi	.L310	@,
	movw	r1, #:lower16:.LANCHOR0	@ tmp139,
	movt	r1, #:upper16:.LANCHOR0	@ tmp139,
	ldr	r3, [r1, r0, asl #2]	@ D.42663, s_pstVfmwChan
	cmp	r3, #0	@ D.42663,
	moveq	r0, #33	@ D.42661,
	ldrne	r0, [r3, #40]	@ D.42661, <variable>.eChanCapLevel
	ldmfd	sp, {fp, sp, pc}	@
.L310:
	mov	r0, #0	@,
	movw	r1, #:lower16:.LC5	@,
	movw	r2, #7365	@,
	movt	r1, #:upper16:.LC5	@,
	movw	r3, #:lower16:.LC6	@,
	movt	r3, #:upper16:.LC6	@,
	bl	dprint_vfmw	@
	mvn	r0, #0	@ D.42661,
	ldmfd	sp, {fp, sp, pc}	@
	.fnend
	.size	VCTRL_GetChanCapLevel, .-VCTRL_GetChanCapLevel
	.align	2
	.global	VCTRL_GetChanHeight
	.type	VCTRL_GetChanHeight, %function
VCTRL_GetChanHeight:
	.fnstart
.LFB1618:
	@ args = 0, pretend = 0, frame = 0
	@ frame_needed = 1, uses_anonymous_args = 0
	.movsp ip
	mov	ip, sp	@,
	stmfd	sp!, {fp, ip, lr, pc}	@,
	.pad #4
	.save {fp, ip, lr}
	.setfp fp, ip, #-4
	sub	fp, ip, #4	@,,
	push	{lr}
	bl	__gnu_mcount_nc
	cmp	r0, #15	@ ChanID,
	bhi	.L316	@,
	movw	r3, #:lower16:.LANCHOR0	@ tmp139,
	movt	r3, #:upper16:.LANCHOR0	@ tmp139,
	ldr	r0, [r3, r0, asl #2]	@ D.42651, s_pstVfmwChan
	cmp	r0, #0	@ D.42651,
	beq	.L317	@,
	ldr	r0, [r0, #1784]	@ D.42649, <variable>.stSynExtraData.stChanOption.s32MaxHeight
	ldmfd	sp, {fp, sp, pc}	@
.L316:
	mov	r0, #0	@,
	movw	r1, #:lower16:.LC5	@,
	movw	r2, #7357	@,
	movt	r1, #:upper16:.LC5	@,
	movw	r3, #:lower16:.LC6	@,
	movt	r3, #:upper16:.LC6	@,
	bl	dprint_vfmw	@
	mvn	r0, #0	@ D.42649,
	ldmfd	sp, {fp, sp, pc}	@
.L317:
	movw	r1, #:lower16:.LC5	@,
	movw	r2, #7358	@,
	movt	r1, #:upper16:.LC5	@,
	movw	r3, #:lower16:.LC10	@,
	movt	r3, #:upper16:.LC10	@,
	bl	dprint_vfmw	@
	mvn	r0, #0	@ D.42649,
	ldmfd	sp, {fp, sp, pc}	@
	.fnend
	.size	VCTRL_GetChanHeight, .-VCTRL_GetChanHeight
	.align	2
	.global	VCTRL_GetChanWidth
	.type	VCTRL_GetChanWidth, %function
VCTRL_GetChanWidth:
	.fnstart
.LFB1617:
	@ args = 0, pretend = 0, frame = 0
	@ frame_needed = 1, uses_anonymous_args = 0
	.movsp ip
	mov	ip, sp	@,
	stmfd	sp!, {fp, ip, lr, pc}	@,
	.pad #4
	.save {fp, ip, lr}
	.setfp fp, ip, #-4
	sub	fp, ip, #4	@,,
	push	{lr}
	bl	__gnu_mcount_nc
	cmp	r0, #15	@ ChanID,
	bhi	.L323	@,
	movw	r3, #:lower16:.LANCHOR0	@ tmp139,
	movt	r3, #:upper16:.LANCHOR0	@ tmp139,
	ldr	r0, [r3, r0, asl #2]	@ D.42639, s_pstVfmwChan
	cmp	r0, #0	@ D.42639,
	beq	.L324	@,
	ldr	r0, [r0, #1780]	@ D.42637, <variable>.stSynExtraData.stChanOption.s32MaxWidth
	ldmfd	sp, {fp, sp, pc}	@
.L323:
	mov	r0, #0	@,
	movw	r1, #:lower16:.LC5	@,
	movw	r2, #7349	@,
	movt	r1, #:upper16:.LC5	@,
	movw	r3, #:lower16:.LC6	@,
	movt	r3, #:upper16:.LC6	@,
	bl	dprint_vfmw	@
	mvn	r0, #0	@ D.42637,
	ldmfd	sp, {fp, sp, pc}	@
.L324:
	movw	r1, #:lower16:.LC5	@,
	movw	r2, #7350	@,
	movt	r1, #:upper16:.LC5	@,
	movw	r3, #:lower16:.LC10	@,
	movt	r3, #:upper16:.LC10	@,
	bl	dprint_vfmw	@
	mvn	r0, #0	@ D.42637,
	ldmfd	sp, {fp, sp, pc}	@
	.fnend
	.size	VCTRL_GetChanWidth, .-VCTRL_GetChanWidth
	.align	2
	.global	GetNextDecodeMode
	.type	GetNextDecodeMode, %function
GetNextDecodeMode:
	.fnstart
.LFB1610:
	@ args = 0, pretend = 0, frame = 0
	@ frame_needed = 1, uses_anonymous_args = 0
	.movsp ip
	mov	ip, sp	@,
	stmfd	sp!, {r4, r5, r6, r7, fp, ip, lr, pc}	@,
	.pad #4
	.save {r4, r5, r6, r7, fp, ip, lr}
	.setfp fp, ip, #-4
	sub	fp, ip, #4	@,,
	.pad #8
	sub	sp, sp, #8	@,,
	push	{lr}
	bl	__gnu_mcount_nc
	movw	r7, #:lower16:1431655766	@ tmp146,
	mov	ip, r2, asl #1	@ tmp143, Threshould,
	movt	r7, #:upper16:1431655766	@ tmp146,
	mov	r4, r2	@ Threshould, Threshould
	add	r6, r2, #7	@ tmp140, Threshould,
	smull	r2, r3, r7, ip	@, tmp145, tmp146, tmp143
	cmp	r4, #0	@ Threshould,
	mov	r5, r0	@ CurMode, CurMode
	mov	r7, r1	@ StreamAmount, StreamAmount
	movge	r6, r4	@ Threshould, Threshould
	mov	r0, #30	@,
	mov	r6, r6, asr #3	@ tmp141, Threshould,
	movw	r1, #:lower16:.LC11	@,
	movt	r1, #:upper16:.LC11	@,
	str	r4, [sp, #0]	@ Threshould,
	mov	r2, r6	@, tmp141
	sub	r3, r3, ip, asr #31	@, tmp145, tmp143,
	str	r7, [sp, #4]	@ StreamAmount,
	bl	dprint_vfmw	@
	cmp	r5, #3	@ CurMode,
	beq	.L332	@,
	cmp	r4, r7	@ Threshould, StreamAmount
	blt	.L329	@,
.L331:
	mov	r4, r5	@ NextMode, CurMode
.L328:
	mov	r2, r5	@, CurMode
	mov	r3, r4	@, NextMode
	mov	r0, #30	@,
	movw	r1, #:lower16:.LC14	@,
	movt	r1, #:upper16:.LC14	@,
	bl	dprint_vfmw	@
	mov	r0, r4	@, NextMode
	sub	sp, fp, #28
	ldmfd	sp, {r4, r5, r6, r7, fp, sp, pc}
.L329:
	movw	r1, #:lower16:.LC13	@,
	mov	r0, #30	@,
	movt	r1, #:upper16:.LC13	@,
	mov	r4, #3	@ NextMode,
	bl	dprint_vfmw	@
	b	.L328	@
.L332:
	cmp	r6, r7	@ tmp141, StreamAmount
	ble	.L331	@,
	movw	r1, #:lower16:.LC12	@,
	mov	r0, #30	@,
	movt	r1, #:upper16:.LC12	@,
	mov	r4, #0	@ NextMode,
	bl	dprint_vfmw	@
	b	.L328	@
	.fnend
	.size	GetNextDecodeMode, .-GetNextDecodeMode
	.align	2
	.global	VCTRL_GetChanMemSize
	.type	VCTRL_GetChanMemSize, %function
VCTRL_GetChanMemSize:
	.fnstart
.LFB1607:
	@ args = 0, pretend = 0, frame = 968
	@ frame_needed = 1, uses_anonymous_args = 0
	.movsp ip
	mov	ip, sp	@,
	stmfd	sp!, {r4, r5, r6, r7, r8, r9, sl, fp, ip, lr, pc}	@,
	.pad #4
	.save {r4, r5, r6, r7, r8, r9, sl, fp, ip, lr}
	.setfp fp, ip, #-4
	sub	fp, ip, #4	@,,
	.pad #1004
	sub	sp, sp, #1004	@,,
	push	{lr}
	bl	__gnu_mcount_nc
	mov	sl, r0, asl #3	@ tmp317, eCapLevel,
	rsb	r8, r0, sl	@ tmp169, eCapLevel, tmp317
	sub	r3, r0, #18	@ D.44973, eCapLevel,
	movw	r6, #:lower16:CapItem	@ tmp316,
	movt	r6, #:upper16:CapItem	@ tmp316,
	cmp	r3, #7	@ D.44973,
	add	r4, r6, r8, asl #2	@, tmp171, tmp316, tmp169,
	str	r2, [fp, #-996]	@ ScdMemSize, %sfp
	mov	r5, r0	@ eCapLevel, eCapLevel
	movwls	r2, #:lower16:.LANCHOR1	@ tmp197,
	ldr	r8, [r4, #12]	@ TempMinFrame, CapItem
	movtls	r2, #:upper16:.LANCHOR1	@ tmp197,
	ldr	r0, [r4, #20]	@, CapItem
	ldr	ip, [r4, #8]	@ TempPmv, CapItem
	addls	r3, r2, r3, asl #2	@, tmp200, tmp197, D.44973,
	ldr	r9, [r4, #16]	@ TempMiddleFrame, CapItem
	movw	r4, #:lower16:.LANCHOR0	@ tmp318,
	movt	r4, #:upper16:.LANCHOR0	@ tmp318,
	str	r1, [fp, #-992]	@ VdmMemSize, %sfp
	ldrls	r3, [r3, #8]	@ MinDnrFspNum, CSWTCH.919
	sub	r2, r8, #2	@ tmp202, TempMinFrame,
	ldr	r1, [r4, #68]	@ extra_ref, extra_ref
	movhi	r3, #6	@ MinDnrFspNum,
	rsb	r3, r3, r2	@ s32MaxRefFrameNum, MinDnrFspNum, tmp202
	str	r0, [fp, #-1008]	@, %sfp
	cmp	r1, #0	@ extra_ref,
	movlt	r2, #0	@ tmp206,
	strlt	r2, [r4, #68]	@ tmp206, extra_ref
	cmp	r3, #15	@ s32MaxRefFrameNum,
	movgt	r7, #0	@ extra_ref_tmp,
	bgt	.L338	@,
	ldr	r7, [r4, #68]	@ extra_ref_tmp, extra_ref
	add	r2, r3, r7	@ D.41848, s32MaxRefFrameNum, extra_ref_tmp
	cmp	r2, #16	@ D.41848,
	addgt	r7, r7, #16	@ D.41851, extra_ref_tmp,
	rsbgt	r7, r2, r7	@ extra_ref_tmp, D.41848, D.41851
.L338:
	add	r3, r7, ip	@ TempPmv.2113, extra_ref_tmp, TempPmv
	ldr	r1, [r4, #72]	@, extra_disp
	cmp	r3, #0	@ TempPmv.2113,
	str	r1, [fp, #-1000]	@, %sfp
	ble	.L354	@,
	cmp	r3, #17	@ TempPmv.2113,
	movge	r3, #17	@ TempPmv.2113,
	str	r3, [fp, #-1004]	@ TempPmv.2113, %sfp
.L340:
	cmp	r5, #23	@ eCapLevel,
	bhi	.L341	@,
	ldr	ip, [fp, #-1000]	@, %sfp
	add	r3, r7, ip	@ D.41854, extra_ref_tmp,
	add	r2, r3, r8	@ TempMinFrame.2110, D.41854, TempMinFrame
	add	r1, r3, r9	@ TempMiddleFrame.2111, D.41854, TempMiddleFrame
	cmp	r2, #0	@ TempMinFrame.2110,
	cmpgt	r1, #0	@, TempMiddleFrame.2111,
	ble	.L342	@,
	ldr	r0, [fp, #-1008]	@, %sfp
	add	lr, r3, r0	@ TempFluentFrame.2112, D.41854,
	cmp	lr, #0	@ TempFluentFrame.2112,
	strgt	lr, [fp, #-1012]	@ TempFluentFrame.2112, %sfp
	strgt	r1, [fp, #-1000]	@ TempMiddleFrame.2111, %sfp
	movgt	r8, r2	@ nMinFrame, TempMinFrame.2110
	ble	.L342	@,
.L344:
	movw	r7, #:lower16:g_vdm_hal_fun_ptr	@ tmp219,
	movt	r7, #:upper16:g_vdm_hal_fun_ptr	@ tmp219,
	ldr	ip, [r7, #36]	@ D.41872, g_vdm_hal_fun_ptr.pfun_VDMHAL_ArrangeMem
	cmp	ip, #0	@ D.41872,
	beq	.L347	@,
.L355:
	rsb	r5, r5, sl	@ tmp223, eCapLevel, tmp317
	ldr	sl, [fp, #-1004]	@, %sfp
	str	r8, [sp, #4]	@ nMinFrame,
	add	r8, r5, #1	@ tmp231, tmp223,
	mov	r9, #0	@ tmp233,
	mov	r0, #1	@,
	str	sl, [sp, #0]	@,
	mvn	r1, #-2147483648	@,
	ldr	r3, [r6, r8, asl #2]	@ tmp232, CapItem
	mvn	sl, #0	@ tmp234,
	ldr	r2, [r6, r5, asl #2]	@ tmp226, CapItem
	movw	r4, #:lower16:CapItem	@ tmp220,
	str	r9, [sp, #8]	@ tmp233,
	sub	r9, fp, #984	@ tmp236,,
	str	sl, [sp, #12]	@ tmp234,
	movt	r4, #:upper16:CapItem	@ tmp220,
	str	r9, [sp, #16]	@ tmp236,
	add	r6, r6, r5, asl #2	@, tmp225, tmp316, tmp223,
	blx	ip	@ D.41872
	subs	r3, r0, #0	@ ret,
	bne	.L347	@,
	ldr	r2, [fp, #-980]	@ MemArrange.TotalMemUsed, MemArrange.TotalMemUsed
	ldr	lr, [fp, #-992]	@, %sfp
	add	r1, r2, #47616	@ tmp238, MemArrange.TotalMemUsed,
	add	ip, r1, #16	@ tmp238, tmp238,
	str	ip, [lr, #0]	@ tmp238,
	ldr	r1, [fp, #-996]	@, %sfp
	ldr	r0, [r6, #24]	@ tmp248, CapItem
	add	r2, r0, #32768	@ tmp249, tmp248,
	str	r2, [r1, #0]	@ tmp249,
	ldr	ip, [r7, #36]	@ temp.2115, g_vdm_hal_fun_ptr.pfun_VDMHAL_ArrangeMem
	cmp	ip, #0	@ temp.2115,
	beq	.L349	@,
	ldr	lr, [r4, r8, asl #2]	@ tmp264, CapItem
	mov	r0, #1	@,
	ldr	r2, [fp, #-1000]	@, %sfp
	mvn	r1, #-2147483648	@,
	str	r3, [sp, #8]	@ ret,
	ldr	r3, [fp, #-1004]	@, %sfp
	str	r2, [sp, #4]	@,
	ldr	r2, [r4, r5, asl #2]	@, CapItem
	str	r3, [sp, #0]	@,
	mov	r3, lr	@, tmp264
	str	sl, [sp, #12]	@ tmp234,
	str	r9, [sp, #16]	@ tmp236,
	blx	ip	@ temp.2115
	subs	lr, r0, #0	@ ret.2118,
	bne	.L349	@,
	ldr	ip, [fp, #-980]	@ MemArrange.TotalMemUsed, MemArrange.TotalMemUsed
	ldr	r2, [fp, #-992]	@, %sfp
	add	r0, ip, #47616	@ tmp270, MemArrange.TotalMemUsed,
	add	r3, r0, #16	@ tmp270, tmp270,
	str	r3, [r2, #4]	@ tmp270,
	ldr	r0, [fp, #-996]	@, %sfp
	ldr	r1, [r6, #24]	@ tmp280, CapItem
	add	ip, r1, #32768	@ tmp281, tmp280,
	str	ip, [r0, #4]	@ tmp281,
	ldr	ip, [r7, #36]	@ temp.2122, g_vdm_hal_fun_ptr.pfun_VDMHAL_ArrangeMem
	cmp	ip, #0	@ temp.2122,
	beq	.L351	@,
	ldr	r3, [r4, r8, asl #2]	@ tmp296, CapItem
	mov	r0, #1	@,
	ldr	r2, [r4, r5, asl #2]	@ tmp290, CapItem
	mvn	r1, #-2147483648	@,
	ldr	r4, [fp, #-1004]	@, %sfp
	str	lr, [sp, #8]	@ ret.2118,
	str	sl, [sp, #12]	@ tmp234,
	str	r4, [sp, #0]	@,
	ldr	r4, [fp, #-1012]	@, %sfp
	str	r9, [sp, #16]	@ tmp236,
	str	r4, [sp, #4]	@,
	blx	ip	@ temp.2122
	cmp	r0, #0	@ ret.2125
	bne	.L351	@,
	ldr	r1, [fp, #-980]	@ MemArrange.TotalMemUsed, MemArrange.TotalMemUsed
	ldr	ip, [fp, #-992]	@, %sfp
	add	lr, r1, #47616	@ tmp302, MemArrange.TotalMemUsed,
	add	r2, lr, #16	@ tmp302, tmp302,
	str	r2, [ip, #8]	@ tmp302,
	ldr	lr, [fp, #-996]	@, %sfp
	ldr	r3, [r6, #24]	@ tmp312, CapItem
	add	r1, r3, #32768	@ tmp313, tmp312,
	str	r1, [lr, #8]	@ tmp313,
	b	.L346	@
.L341:
	cmp	r5, #32	@ eCapLevel,
	bls	.L345	@,
.L353:
	mvn	r0, #0	@ D.41890,
.L346:
	sub	sp, fp, #40
	ldmfd	sp, {r4, r5, r6, r7, r8, r9, sl, fp, sp, pc}
.L342:
	ldr	ip, [r4, #72]	@ extra_disp.2114, extra_disp
	mov	r3, r7	@, extra_ref_tmp
	ldr	lr, [fp, #-1008]	@, %sfp
	mov	r0, #32	@,
	str	r7, [sp, #8]	@ extra_ref_tmp,
	movw	r1, #:lower16:.LC16	@,
	str	r7, [sp, #20]	@ extra_ref_tmp,
	movw	r7, #:lower16:g_vdm_hal_fun_ptr	@ tmp219,
	movt	r7, #:upper16:g_vdm_hal_fun_ptr	@ tmp219,
	movt	r1, #:upper16:.LC16	@,
	mov	r2, r8	@, TempMinFrame
	str	ip, [sp, #24]	@ extra_disp.2114,
	str	ip, [sp, #0]	@ extra_disp.2114,
	mov	r4, lr	@,
	str	ip, [sp, #12]	@ extra_disp.2114,
	str	lr, [fp, #-1012]	@, %sfp
	str	r9, [fp, #-1000]	@ TempMiddleFrame, %sfp
	str	r9, [sp, #4]	@ TempMiddleFrame,
	str	lr, [sp, #16]	@ tmp4,
	bl	dprint_vfmw	@
	ldr	ip, [r7, #36]	@ D.41872, g_vdm_hal_fun_ptr.pfun_VDMHAL_ArrangeMem
	cmp	ip, #0	@ D.41872,
	bne	.L355	@,
.L347:
	mov	r0, #0	@,
	movw	r1, #:lower16:.LC17	@,
	movw	r2, #6115	@,
	movt	r1, #:upper16:.LC17	@,
	bl	dprint_vfmw	@
	mvn	r0, #0	@ D.41890,
	b	.L346	@
.L345:
	ldr	r7, [fp, #-1008]	@, %sfp
	str	r9, [fp, #-1000]	@ TempMiddleFrame, %sfp
	str	r7, [fp, #-1012]	@, %sfp
	b	.L344	@
.L354:
	mov	r2, ip	@, TempPmv
	movw	r1, #:lower16:.LC15	@,
	mov	r3, r7	@, extra_ref_tmp
	movt	r1, #:upper16:.LC15	@,
	mov	r0, #32	@,
	cmp	ip, #17	@ TempPmv,
	movge	ip, #17	@ TempPmv,
	str	ip, [fp, #-1004]	@ TempPmv, %sfp
	bl	dprint_vfmw	@
	b	.L340	@
.L349:
	mov	r0, #0	@,
	movw	r1, #:lower16:.LC17	@,
	movw	r2, #6134	@,
	movt	r1, #:upper16:.LC17	@,
	bl	dprint_vfmw	@
	mvn	r0, #0	@ D.41890,
	b	.L346	@
.L351:
	movw	r1, #:lower16:.LC17	@,
	movw	r2, #6153	@,
	movt	r1, #:upper16:.LC17	@,
	mov	r0, #0	@,
	bl	dprint_vfmw	@
	b	.L353	@
	.fnend
	.size	VCTRL_GetChanMemSize, .-VCTRL_GetChanMemSize
	.align	2
	.global	VCTRL_GetChanMemSizeWithOption
	.type	VCTRL_GetChanMemSizeWithOption, %function
VCTRL_GetChanMemSizeWithOption:
	.fnstart
.LFB1605:
	@ args = 0, pretend = 0, frame = 944
	@ frame_needed = 1, uses_anonymous_args = 0
	.movsp ip
	mov	ip, sp	@,
	stmfd	sp!, {r4, r5, r6, r7, r8, r9, sl, fp, ip, lr, pc}	@,
	.pad #4
	.save {r4, r5, r6, r7, r8, r9, sl, fp, ip, lr}
	.setfp fp, ip, #-4
	sub	fp, ip, #4	@,,
	.pad #972
	sub	sp, sp, #972	@,,
	push	{lr}
	bl	__gnu_mcount_nc
	movw	ip, #:lower16:4780440	@ tmp242,
	cmp	r0, #26	@ eCapLevel,
	movt	ip, #:upper16:4780440	@ tmp242,
	movw	sl, #:lower16:11613104	@ tmp241,
	movt	sl, #:upper16:11613104	@ tmp241,
	movne	sl, ip	@ s32ChanCtxSize, tmp242
	cmp	r3, #2	@ flag,
	mov	r7, r0	@ eCapLevel, eCapLevel
	mov	r8, r3	@ flag, flag
	mov	r4, r1	@ pChanOption, pChanOption
	mov	r5, r2	@ pDetailMemSize, pDetailMemSize
	beq	.L359	@,
	movw	r3, #:lower16:.LANCHOR0	@ tmp165,
	movt	r3, #:upper16:.LANCHOR0	@ tmp165,
	ldr	ip, [r1, #64]	@ D.41671, <variable>.s32DisplayFrameNum
	ldr	r9, [r3, #72]	@ extra_disp.641, extra_disp
	ldr	r2, [r1, #36]	@ D.41669, <variable>.s32MaxRefFrameNum
	ldr	r3, [r3, #68]	@ extra_ref.640, extra_ref
	add	r6, r9, ip	@ TempDispNum, extra_disp.641, D.41671
	add	r1, r3, r2	@ TempRefNum, extra_ref.640, D.41669
	orrs	r0, r6, r1	@, TempDispNum, TempRefNum
	bmi	.L387	@,
	cmp	r1, #16	@ TempRefNum,
	strle	r1, [r4, #36]	@ TempRefNum, <variable>.s32MaxRefFrameNum
	strle	r6, [r4, #64]	@ TempDispNum, <variable>.s32DisplayFrameNum
	bgt	.L388	@,
.L363:
	rsbs	r8, r8, #1	@ tmp185, flag
	movcc	r8, #0	@ tmp185
	cmp	r7, #25	@ eCapLevel,
	moveq	r8, #0	@, tmp185,
	cmp	r8, #0	@ tmp185,
	bne	.L389	@,
.L359:
	ldr	r3, [r4, #4]	@ D.41690, <variable>.Purpose
	cmp	r3, #2	@ D.41690,
	bhi	.L390	@,
	bne	.L365	@,
	ldr	r3, [r4, #68]	@ D.41698, <variable>.s32SlotWidth
	cmp	r3, #0	@ D.41698,
	beq	.L366	@,
	ldr	r2, [r4, #72]	@ D.41700, <variable>.s32SlotHeight
	cmp	r2, #0	@ D.41700,
	beq	.L366	@,
	mul	r3, r2, r3	@ tmp189, D.41700, D.41698
	ldr	r1, [r4, #64]	@ <variable>.s32DisplayFrameNum, <variable>.s32DisplayFrameNum
	mov	r0, #0	@ tmp194,
	stmib	r5, {r0, sl}	@ phole stm
	mov	ip, r3, asl #1	@ tmp190, tmp189,
	mla	r2, r1, ip, ip	@ tmp193, <variable>.s32DisplayFrameNum, tmp190, tmp190
	str	r2, [r5, #0]	@ tmp193, <variable>.VdhDetailMem
.L361:
	sub	sp, fp, #40
	ldmfd	sp, {r4, r5, r6, r7, r8, r9, sl, fp, sp, pc}
.L388:
	mov	r0, #32	@,
	movw	r1, #:lower16:.LC19	@,
	movt	r1, #:upper16:.LC19	@,
	bl	dprint_vfmw	@
	mov	r0, #16	@ tmp178,
	str	r6, [r4, #64]	@ TempDispNum, <variable>.s32DisplayFrameNum
	str	r0, [r4, #36]	@ tmp178, <variable>.s32MaxRefFrameNum
	b	.L363	@
.L365:
	cmp	r3, #1	@ D.41690,
	mvnne	r0, #0	@ D.41679,
	bne	.L361	@
.L368:
	ldr	r0, [r4, #36]	@ temp.2156, <variable>.s32MaxRefFrameNum
	cmp	r0, #0	@ temp.2156,
	blt	.L369	@,
	ldr	r2, [r4, #12]	@ D.41713, <variable>.s32MaxWidth
	cmp	r2, #31	@ D.41713,
	ble	.L369	@,
	ldr	r3, [r4, #16]	@ D.41715, <variable>.s32MaxHeight
	cmp	r3, #31	@ D.41715,
	ble	.L369	@,
	ldr	ip, [r4, #60]	@ <variable>.s32SCDBufSize, <variable>.s32SCDBufSize
	cmp	ip, #262144	@ <variable>.s32SCDBufSize,
	blt	.L369	@,
	ldr	r1, [r4, #48]	@ D.41719, <variable>.s32SupportH264
	cmp	r1, #1	@ D.41719,
	beq	.L391	@,
	cmp	r1, #2	@ D.41719,
	beq	.L392	@,
.L371:
	ldr	r6, [r4, #44]	@ <variable>.s32SupportBFrame, <variable>.s32SupportBFrame
	cmp	r6, #0	@ <variable>.s32SupportBFrame,
	moveq	lr, #1	@ PmvNum,
	beq	.L373	@,
	add	lr, r0, #1	@ PmvNum.2160, temp.2156,
	cmp	lr, #17	@ PmvNum.2160,
	movge	lr, #17	@ PmvNum,
.L373:
	movw	r1, #:lower16:g_vdm_hal_fun_ptr	@ tmp206,
	movt	r1, #:upper16:g_vdm_hal_fun_ptr	@ tmp206,
	sub	r6, r7, #27	@ D.41737, eCapLevel,
	ldr	r8, [r4, #64]	@ temp.2161, <variable>.s32DisplayFrameNum
	cmp	r6, #6	@ D.41737,
	ldr	ip, [r1, #36]	@ D.41742, g_vdm_hal_fun_ptr.pfun_VDMHAL_ArrangeMem
	mvncc	r1, #1	@, eFlag,
	mvncs	r1, #0	@, eFlag,
	cmp	ip, #0	@ D.41742,
	beq	.L376	@,
	add	r0, r0, r8	@ tmp207, temp.2156, temp.2161
	str	lr, [sp, #0]	@ PmvNum,
	str	r1, [sp, #12]	@ eFlag,
	sub	lr, fp, #984	@ tmp211,,
	add	r1, r0, #2	@ tmp208, tmp207,
	str	lr, [sp, #16]	@ tmp211,
	str	r1, [sp, #4]	@ tmp208,
	mov	r0, #0	@ tmp209,
	mvn	r1, #-2147483648	@,
	str	r0, [sp, #8]	@ tmp209,
	mov	r0, #1	@,
	blx	ip	@ D.41742
	cmp	r0, #0	@,
	bne	.L376	@,
	ldr	ip, [fp, #-980]	@ MemArrange.TotalMemUsed, MemArrange.TotalMemUsed
	add	r3, ip, #16	@ D.41750, MemArrange.TotalMemUsed,
	str	r3, [r5, #0]	@ D.41750, <variable>.VdhDetailMem
	ldr	r2, [r4, #120]	@ <variable>.u32DynamicFrameStoreAllocEn, <variable>.u32DynamicFrameStoreAllocEn
	cmp	r2, #1	@ <variable>.u32DynamicFrameStoreAllocEn,
	addne	r3, r3, #47616	@ tmp214, D.41750,
	strne	r3, [r5, #0]	@ tmp214, <variable>.VdhDetailMem
	ldreq	r3, [r4, #60]	@ <variable>.s32SCDBufSize, <variable>.s32SCDBufSize
	ldrne	r3, [r4, #60]	@ <variable>.s32SCDBufSize, <variable>.s32SCDBufSize
	addeq	r3, r3, #79872	@ tmp219, <variable>.s32SCDBufSize,
	str	sl, [r5, #8]	@ s32ChanCtxSize, <variable>.ChanCtxDetailMem
	addne	r3, r3, #32768	@ tmp216, <variable>.s32SCDBufSize,
	addeq	r3, r3, #528	@ tmp219, tmp219,
	str	r3, [r5, #4]	@ tmp219, <variable>.ScdDetailMem
	ldr	r3, [r4, #48]	@ <variable>.s32SupportH264, <variable>.s32SupportH264
	cmp	r3, #0	@ <variable>.s32SupportH264,
	beq	.L380	@,
	ldr	lr, [r4, #20]	@ <variable>.s32MaxSliceNum, <variable>.s32MaxSliceNum
	movw	r1, #4060	@ tmp222,
	ldr	r0, [r4, #28]	@ D.41767, <variable>.s32MaxSpsNum
	mov	r3, #4000	@ tmp224,
	ldr	r2, [r4, #32]	@ D.41770, <variable>.s32MaxPpsNum
	mov	ip, #2208	@ tmp227,
	mul	r1, r1, lr	@ D.41766, tmp222, <variable>.s32MaxSliceNum
	mla	lr, r3, r0, r1	@ tmp225, tmp224, D.41767, D.41766
	mla	r3, ip, r2, lr	@ TempAddMem, tmp227, D.41770, tmp225
	cmp	r3, #0	@ TempAddMem,
	movcc	r3, #0	@ TempAddMem,
	cmp	r7, #26	@ eCapLevel,
	beq	.L393	@,
.L380:
	cmp	r6, #5	@ D.41737,
	bhi	.L381	@,
	movw	lr, #:lower16:1718176	@ tmp234,
	movt	lr, #:upper16:1718176	@ tmp234,
	cmp	r3, lr	@ TempAddMem, tmp234
	movcc	r3, lr	@ TempAddMem, tmp234
.L381:
	add	r3, r3, sl	@ tmp235, TempAddMem, s32ChanCtxSize
	mov	r0, #0	@ D.41679,
	str	r3, [r5, #8]	@ tmp235, <variable>.ChanCtxDetailMem
	b	.L361	@
.L366:
	mov	r0, #32	@,
	movw	r1, #:lower16:.LC22	@,
	movt	r1, #:upper16:.LC22	@,
	bl	dprint_vfmw	@
	mvn	r0, #0	@ D.41679,
	b	.L361	@
.L389:
	mov	r0, #32	@,
	movw	r1, #:lower16:.LC20	@,
	movt	r1, #:upper16:.LC20	@,
	bl	dprint_vfmw	@
	mvn	r0, #0	@ D.41679,
	b	.L361	@
.L390:
	mov	r0, #32	@,
	movw	r1, #:lower16:.LC21	@,
	movt	r1, #:upper16:.LC21	@,
	bl	dprint_vfmw	@
	mvn	r0, #0	@ D.41679,
	b	.L361	@
.L387:
	mov	r0, #32	@,
	movw	r1, #:lower16:.LC18	@,
	movt	r1, #:upper16:.LC18	@,
	str	ip, [sp, #0]	@ D.41671,
	str	r9, [sp, #4]	@ extra_disp.641,
	bl	dprint_vfmw	@
	mvn	r0, #0	@ D.41679,
	b	.L361	@
.L391:
	ldr	r1, [r4, #20]	@ <variable>.s32MaxSliceNum, <variable>.s32MaxSliceNum
	cmp	r1, #0	@ <variable>.s32MaxSliceNum,
	ble	.L369	@,
.L385:
	ldr	ip, [r4, #28]	@ <variable>.s32MaxSpsNum, <variable>.s32MaxSpsNum
	cmp	ip, #0	@ <variable>.s32MaxSpsNum,
	ble	.L369	@,
	ldr	r1, [r4, #32]	@ <variable>.s32MaxPpsNum, <variable>.s32MaxPpsNum
	cmp	r1, #0	@ <variable>.s32MaxPpsNum,
	bgt	.L371	@,
.L369:
	mov	r0, #32	@,
	movw	r1, #:lower16:.LC23	@,
	movt	r1, #:upper16:.LC23	@,
	bl	dprint_vfmw	@
	mvn	r0, #0	@ D.41679,
	b	.L361	@
.L392:
	ldr	ip, [r4, #20]	@ <variable>.s32MaxSliceNum, <variable>.s32MaxSliceNum
	cmp	ip, #0	@ <variable>.s32MaxSliceNum,
	ble	.L369	@,
	ldr	r1, [r4, #24]	@ <variable>.s32MaxVpsNum, <variable>.s32MaxVpsNum
	cmp	r1, #0	@ <variable>.s32MaxVpsNum,
	bgt	.L385	@,
	b	.L369	@
.L393:
	movw	ip, #3992	@ tmp229,
	mla	r1, ip, r0, r1	@ tmp230, tmp229, D.41767, D.41766
	mov	r0, #2240	@ tmp232,
	mla	r2, r0, r2, r1	@ tmp233, tmp232, D.41770, tmp230
	cmp	r3, r2	@ TempAddMem, tmp233
	movcc	r3, r2	@ TempAddMem, tmp233
	b	.L380	@
.L376:
	mov	r0, #0	@,
	movw	r1, #:lower16:.LC24	@,
	movw	r2, #5884	@,
	movt	r1, #:upper16:.LC24	@,
	bl	dprint_vfmw	@
	mvn	r0, #0	@ D.41679,
	b	.L361	@
	.fnend
	.size	VCTRL_GetChanMemSizeWithOption, .-VCTRL_GetChanMemSizeWithOption
	.align	2
	.global	VCTRL_ConfigFFFBSpeed
	.type	VCTRL_ConfigFFFBSpeed, %function
VCTRL_ConfigFFFBSpeed:
	.fnstart
.LFB1594:
	@ args = 0, pretend = 0, frame = 0
	@ frame_needed = 1, uses_anonymous_args = 0
	.movsp ip
	mov	ip, sp	@,
	stmfd	sp!, {fp, ip, lr, pc}	@,
	.pad #4
	.save {fp, ip, lr}
	.setfp fp, ip, #-4
	sub	fp, ip, #4	@,,
	push	{lr}
	bl	__gnu_mcount_nc
	cmp	r0, #15	@ ChanID,
	bhi	.L401	@,
	movw	r3, #:lower16:.LANCHOR0	@ tmp140,
	movt	r3, #:upper16:.LANCHOR0	@ tmp140,
	ldr	r3, [r3, r0, asl #2]	@ D.41338, s_pstVfmwChan
	cmp	r3, #0	@ D.41338,
	beq	.L402	@,
	ldr	r2, [r3, #12]	@ <variable>.s32IsOpen, <variable>.s32IsOpen
	cmp	r2, #1	@ <variable>.s32IsOpen,
	bne	.L403	@,
	cmp	r1, #0	@ pArgs,
	beq	.L404	@,
	ldr	ip, [r1, #0]	@ tmp148,* pArgs
	mov	r0, #0	@ D.41336,
	str	ip, [r3, #1732]	@ tmp148, <variable>.stSynExtraData.s32FastForwardBackwardSpeed
	ldmfd	sp, {fp, sp, pc}	@
.L403:
	mov	r0, #0	@,
	movw	r1, #:lower16:.LC5	@,
	movw	r2, #4951	@,
	movt	r1, #:upper16:.LC5	@,
	movw	r3, #:lower16:.LC26	@,
	movt	r3, #:upper16:.LC26	@,
	bl	dprint_vfmw	@
	mvn	r0, #0	@ D.41336,
	ldmfd	sp, {fp, sp, pc}	@
.L401:
	mov	r0, #0	@,
	movw	r1, #:lower16:.LC5	@,
	movw	r2, #4949	@,
	movt	r1, #:upper16:.LC5	@,
	movw	r3, #:lower16:.LC6	@,
	movt	r3, #:upper16:.LC6	@,
	bl	dprint_vfmw	@
	mvn	r0, #0	@ D.41336,
	ldmfd	sp, {fp, sp, pc}	@
.L402:
	mov	r0, r3	@, D.41338
	movw	r1, #:lower16:.LC5	@,
	movw	r2, #4950	@,
	movt	r1, #:upper16:.LC5	@,
	movw	r3, #:lower16:.LC25	@,
	movt	r3, #:upper16:.LC25	@,
	bl	dprint_vfmw	@
	mvn	r0, #0	@ D.41336,
	ldmfd	sp, {fp, sp, pc}	@
.L404:
	mov	r0, r1	@, pArgs
	movw	r2, #4952	@,
	movw	r1, #:lower16:.LC5	@,
	movw	r3, #:lower16:.LC27	@,
	movt	r1, #:upper16:.LC5	@,
	movt	r3, #:upper16:.LC27	@,
	bl	dprint_vfmw	@
	mvn	r0, #0	@ D.41336,
	ldmfd	sp, {fp, sp, pc}	@
	.fnend
	.size	VCTRL_ConfigFFFBSpeed, .-VCTRL_ConfigFFFBSpeed
	.align	2
	.global	VCTRL_GetChanMemInfo
	.type	VCTRL_GetChanMemInfo, %function
VCTRL_GetChanMemInfo:
	.fnstart
.LFB1589:
	@ args = 0, pretend = 0, frame = 0
	@ frame_needed = 1, uses_anonymous_args = 0
	.movsp ip
	mov	ip, sp	@,
	stmfd	sp!, {fp, ip, lr, pc}	@,
	.pad #4
	.save {fp, ip, lr}
	.setfp fp, ip, #-4
	sub	fp, ip, #4	@,,
	push	{lr}
	bl	__gnu_mcount_nc
	cmp	r0, #15	@ ChanId,
	bhi	.L411	@,
	movw	r3, #:lower16:.LANCHOR0	@ tmp141,
	movt	r3, #:upper16:.LANCHOR0	@ tmp141,
	ldr	r0, [r3, r0, asl #2]	@ D.41103, s_pstVfmwChan
	cmp	r0, #0	@ D.41103,
	beq	.L412	@,
	cmp	r1, #0	@ pstMemRec,
	bne	.L413	@,
.L409:
	mvn	r0, #0	@ D.41101,
	ldmfd	sp, {fp, sp, pc}	@
.L412:
	movw	r1, #:lower16:.LC5	@,
	movw	r2, #4566	@,
	movt	r1, #:upper16:.LC5	@,
	movw	r3, #:lower16:.LC10	@,
	movt	r3, #:upper16:.LC10	@,
	bl	dprint_vfmw	@
	mvn	r0, #0	@ D.41101,
	ldmfd	sp, {fp, sp, pc}	@
.L413:
	ldr	r2, [r0, #188]	@ <variable>.s32OneChanMem, <variable>.s32OneChanMem
	cmp	r2, #1	@ <variable>.s32OneChanMem,
	bne	.L409	@,
	ldr	r3, [r0, #196]	@ D.41115, <variable>.stChanMem.VirAddr
	ldr	ip, [r0, #204]	@ <variable>.stChanMem.Length, <variable>.stChanMem.Length
	ldr	r2, [r0, #200]	@ <variable>.stChanMem.PhyAddr, <variable>.stChanMem.PhyAddr
	cmp	r3, #0	@ D.41115,
	str	r3, [r1, #4]	@ D.41115, <variable>.VirAddr
	str	ip, [r1, #12]	@ <variable>.stChanMem.Length, <variable>.Length
	movne	r0, #0	@ D.41101,
	str	r2, [r1, #8]	@ <variable>.stChanMem.PhyAddr, <variable>.PhyAddr
	ldmnefd	sp, {fp, sp, pc}	@
	b	.L409	@
.L411:
	mov	r0, #0	@,
	movw	r1, #:lower16:.LC5	@,
	movw	r2, #4565	@,
	movt	r1, #:upper16:.LC5	@,
	movw	r3, #:lower16:.LC28	@,
	movt	r3, #:upper16:.LC28	@,
	bl	dprint_vfmw	@
	mvn	r0, #0	@ D.41101,
	ldmfd	sp, {fp, sp, pc}	@
	.fnend
	.size	VCTRL_GetChanMemInfo, .-VCTRL_GetChanMemInfo
	.align	2
	.global	VCTRL_GetVidStd
	.type	VCTRL_GetVidStd, %function
VCTRL_GetVidStd:
	.fnstart
.LFB1586:
	@ args = 0, pretend = 0, frame = 0
	@ frame_needed = 1, uses_anonymous_args = 0
	.movsp ip
	mov	ip, sp	@,
	stmfd	sp!, {fp, ip, lr, pc}	@,
	.pad #4
	.save {fp, ip, lr}
	.setfp fp, ip, #-4
	sub	fp, ip, #4	@,,
	push	{lr}
	bl	__gnu_mcount_nc
	cmp	r0, #15	@ ChanId,
	bhi	.L415	@,
	movw	r3, #:lower16:.LANCHOR0	@ tmp137,
	movt	r3, #:upper16:.LANCHOR0	@ tmp137,
	ldr	r3, [r3, r0, asl #2]	@ D.41001, s_pstVfmwChan
	cmp	r3, #0	@ D.41001,
	beq	.L415	@,
	ldr	r2, [r3, #12]	@ <variable>.s32IsOpen, <variable>.s32IsOpen
	cmp	r2, #1	@ <variable>.s32IsOpen,
	beq	.L418	@,
	mov	r3, r0	@, ChanId
	movw	r1, #:lower16:.LC30	@,
	mov	r0, #0	@,
	movt	r1, #:upper16:.LC30	@,
	movw	r2, #4386	@,
	bl	dprint_vfmw	@
	mov	r0, #19	@ D.41003,
	ldmfd	sp, {fp, sp, pc}	@
.L415:
	mov	r0, #0	@,
	movw	r1, #:lower16:.LC29	@,
	movw	r2, #4379	@,
	movt	r1, #:upper16:.LC29	@,
	bl	dprint_vfmw	@
	mov	r0, #19	@ D.41003,
	ldmfd	sp, {fp, sp, pc}	@
.L418:
	ldr	r0, [r3, #1032]	@ D.41003, <variable>.eVidStd
	ldmfd	sp, {fp, sp, pc}	@
	.fnend
	.size	VCTRL_GetVidStd, .-VCTRL_GetVidStd
	.align	2
	.global	VCTRL_CheckChanWH
	.type	VCTRL_CheckChanWH, %function
VCTRL_CheckChanWH:
	.fnstart
.LFB1577:
	@ args = 0, pretend = 0, frame = 0
	@ frame_needed = 1, uses_anonymous_args = 0
	.movsp ip
	mov	ip, sp	@,
	stmfd	sp!, {fp, ip, lr, pc}	@,
	.pad #4
	.save {fp, ip, lr}
	.setfp fp, ip, #-4
	sub	fp, ip, #4	@,,
	.pad #8
	sub	sp, sp, #8	@,,
	push	{lr}
	bl	__gnu_mcount_nc
	movw	r2, #:lower16:g_chipID	@ tmp144,
	movt	r2, #:upper16:g_chipID	@ tmp144,
	movw	r3, #:lower16:.LANCHOR0	@ tmp143,
	movt	r3, #:upper16:.LANCHOR0	@ tmp143,
	ldr	ip, [r2, #0]	@ g_chipID.526, g_chipID
	ldr	r3, [r3, r0, asl #2]	@ D.40286, s_pstVfmwChan
	cmp	ip, #11	@ g_chipID.526,
	ldr	r0, [r3, #1784]	@ ChanMaxHeight, <variable>.stSynExtraData.stChanOption.s32MaxHeight
	ldr	r3, [r3, #1780]	@ ChanMaxWidth, <variable>.stSynExtraData.stChanOption.s32MaxWidth
	bgt	.L424	@,
	cmp	ip, #5	@ g_chipID.526,
	blt	.L431	@,
.L423:
	movw	r2, #:lower16:g_ChipMaxWidth	@ tmp152,
	movt	r2, #:upper16:g_ChipMaxWidth	@ tmp152,
	ldr	r2, [r2, #0]	@ g_ChipMaxWidth.2264, g_ChipMaxWidth
	cmp	r3, r2	@ ChanMaxWidth, g_ChipMaxWidth.2264
	ble	.L432	@,
	ldr	r3, [r1, #0]	@ D.40300, <variable>.eVidStd
	cmp	r3, #13	@ D.40300,
	cmpne	r3, #0	@, D.40300,
	beq	.L426	@,
.L437:
	cmp	r3, #15	@ D.40300,
	beq	.L426	@,
	cmp	r3, #18	@ D.40300,
	bne	.L433	@,
.L426:
	mov	r0, #0	@ ret,
	b	.L427	@
.L424:
	cmp	ip, #51	@ g_chipID.526,
	bge	.L434	@,
.L421:
	mov	r2, ip	@, g_chipID.526
	mov	r0, #0	@,
	movw	r1, #:lower16:.LC33	@,
	movt	r1, #:upper16:.LC33	@,
	bl	dprint_vfmw	@
	mvn	r0, #0	@ ret,
.L427:
	sub	sp, fp, #12
	ldmfd	sp, {fp, sp, pc}
.L431:
	cmp	ip, #0	@ g_chipID.526,
	blt	.L421	@,
	movw	r2, #:lower16:g_ChipMaxWidth	@ tmp146,
	movt	r2, #:upper16:g_ChipMaxWidth	@ tmp146,
	ldr	r2, [r2, #0]	@ g_ChipMaxWidth, g_ChipMaxWidth
	cmp	r3, r2	@ ChanMaxWidth, g_ChipMaxWidth
	ble	.L435	@,
	ldr	r0, [r1, #0]	@ <variable>.eVidStd, <variable>.eVidStd
	cmp	r0, #18	@ <variable>.eVidStd,
	beq	.L426	@,
.L436:
	mov	r2, ip	@, g_chipID.526
	mov	r0, #0	@,
	movw	r1, #:lower16:.LC31	@,
	movt	r1, #:upper16:.LC31	@,
	bl	dprint_vfmw	@
	mvn	r0, #0	@ ret,
	b	.L427	@
.L434:
	cmp	ip, #52	@ g_chipID.526,
	ble	.L423	@,
	sub	r2, ip, #100	@ tmp145, g_chipID.526,
	cmp	r2, #1	@ tmp145,
	bhi	.L421	@,
	b	.L423	@
.L435:
	movw	r2, #:lower16:g_ChipMaxHeight	@ tmp148,
	movt	r2, #:upper16:g_ChipMaxHeight	@ tmp148,
	ldr	r3, [r2, #0]	@ g_ChipMaxHeight, g_ChipMaxHeight
	cmp	r0, r3	@ ChanMaxHeight, g_ChipMaxHeight
	ble	.L426	@,
	ldr	r0, [r1, #0]	@ <variable>.eVidStd, <variable>.eVidStd
	cmp	r0, #18	@ <variable>.eVidStd,
	beq	.L426	@,
	b	.L436	@
.L432:
	movw	r3, #:lower16:g_ChipMaxHeight	@ tmp153,
	movt	r3, #:upper16:g_ChipMaxHeight	@ tmp153,
	ldr	r3, [r3, #0]	@ g_ChipMaxHeight, g_ChipMaxHeight
	cmp	r0, r3	@ ChanMaxHeight, g_ChipMaxHeight
	ble	.L426	@,
	ldr	r3, [r1, #0]	@ D.40300, <variable>.eVidStd
	cmp	r3, #13	@ D.40300,
	cmpne	r3, #0	@, D.40300,
	bne	.L437	@,
	b	.L426	@
.L433:
	movw	r1, #:lower16:g_ChipMaxHeight	@ tmp163,
	movt	r1, #:upper16:g_ChipMaxHeight	@ tmp163,
	mov	r0, #0	@,
	ldr	r3, [r1, #0]	@ g_ChipMaxHeight, g_ChipMaxHeight
	movw	r1, #:lower16:.LC32	@,
	movt	r1, #:upper16:.LC32	@,
	str	ip, [sp, #0]	@ g_chipID.526,
	bl	dprint_vfmw	@
	mvn	r0, #0	@ ret,
	b	.L427	@
	.fnend
	.size	VCTRL_CheckChanWH, .-VCTRL_CheckChanWH
	.align	2
	.global	RefreshDecCore
	.type	RefreshDecCore, %function
RefreshDecCore:
	.fnstart
.LFB1575:
	@ args = 0, pretend = 0, frame = 8
	@ frame_needed = 1, uses_anonymous_args = 0
	.movsp ip
	mov	ip, sp	@,
	stmfd	sp!, {r4, r5, r6, fp, ip, lr, pc}	@,
	.pad #4
	.save {r4, r5, r6, fp, ip, lr}
	.setfp fp, ip, #-4
	sub	fp, ip, #4	@,,
	.pad #12
	sub	sp, sp, #12	@,,
	push	{lr}
	bl	__gnu_mcount_nc
	movw	r4, #:lower16:.LANCHOR0	@ tmp167,
	movt	r4, #:upper16:.LANCHOR0	@ tmp167,
	mov	r5, r0	@ ChanID, ChanID
	ldr	r3, [r4, r0, asl #2]	@ D.40165, s_pstVfmwChan
	ldr	r2, [r3, #1032]	@ <variable>.eVidStd, <variable>.eVidStd
	ldr	ip, [r3, #1944]	@ eOldDecCore, <variable>.eDecCore
	cmp	r2, #4	@ <variable>.eVidStd,
	moveq	r2, #1	@ tmp148,
	streq	r2, [r3, #1944]	@ tmp148, <variable>.eDecCore
	beq	.L442	@,
	cmp	r2, #14	@ <variable>.eVidStd,
	movne	r2, #0	@ tmp150,
	strne	r2, [r3, #1944]	@ tmp150, <variable>.eDecCore
	moveq	r2, #2	@ tmp149,
	streq	r2, [r3, #1944]	@ tmp149, <variable>.eDecCore
.L442:
	ldr	r0, [r4, r5, asl #2]	@ prephitmp.2283, s_pstVfmwChan
	movw	r6, #:lower16:.LANCHOR0	@ tmp151,
	movt	r6, #:upper16:.LANCHOR0	@ tmp151,
	ldr	r2, [r0, #1944]	@ prephitmp.2285, <variable>.eDecCore
	cmp	r2, ip	@ prephitmp.2285, eOldDecCore
	beq	.L443	@,
	sub	ip, ip, #1	@ tmp152, eOldDecCore,
	cmp	ip, #4	@ tmp152,
	bhi	.L444	@,
	ldr	r3, [r6, #80]	@ D.40174, g_SdecFunc.pfun_iMediaSoftDEC_Destroy
	cmp	r3, #0	@ D.40174,
	beq	.L444	@,
	add	r0, r0, #250880	@, prephitmp.2283,
	str	r1, [fp, #-32]	@,
	add	r0, r0, #616	@,,
	blx	r3	@ D.40174
	ldr	r0, [r6, r5, asl #2]	@ prephitmp.2283, s_pstVfmwChan
	ldr	r1, [fp, #-32]	@,
	ldr	r2, [r0, #1944]	@ prephitmp.2285, <variable>.eDecCore
.L444:
	sub	r3, r2, #1	@ tmp157, prephitmp.2285,
	cmp	r3, #4	@ tmp157,
	bhi	.L443	@,
	ldr	ip, [r0, #40]	@ <variable>.eChanCapLevel, <variable>.eChanCapLevel
	movw	lr, #:lower16:251508	@ tmp158,
	movt	lr, #:upper16:251508	@ tmp158,
	movw	r2, #:lower16:.LANCHOR0	@ tmp160,
	movt	r2, #:upper16:.LANCHOR0	@ tmp160,
	str	ip, [r0, lr]	@ <variable>.eChanCapLevel, <variable>.stSynCtx.unSyntax.stiMediaSoftCtx.eChanCapLevel
	ldr	r3, [r4, #76]	@ D.40186, g_SdecFunc.pfun_iMediaSoftDEC_Create
	cmp	r3, #0	@ D.40186,
	beq	.L445	@,
	ldr	r2, [r2, r5, asl #2]	@ temp.2296, s_pstVfmwChan
	add	r0, r2, #250880	@, temp.2296,
	add	r0, r0, #616	@,,
	ldr	r2, [r2, #1032]	@, <variable>.eVidStd
	blx	r3	@ D.40186
	cmp	r0, #0	@,
	bne	.L445	@,
.L443:
	mov	r0, #0	@ D.40190,
.L446:
	sub	sp, fp, #24
	ldmfd	sp, {r4, r5, r6, fp, sp, pc}
.L445:
	mov	r0, #0	@,
	movw	r1, #:lower16:.LC34	@,
	movt	r1, #:upper16:.LC34	@,
	bl	dprint_vfmw	@
	mvn	r0, #0	@ D.40190,
	b	.L446	@
	.fnend
	.size	RefreshDecCore, .-RefreshDecCore
	.align	2
	.global	VCTRL_GetSendStreamAgainFlag
	.type	VCTRL_GetSendStreamAgainFlag, %function
VCTRL_GetSendStreamAgainFlag:
	.fnstart
.LFB1552:
	@ args = 0, pretend = 0, frame = 0
	@ frame_needed = 1, uses_anonymous_args = 0
	.movsp ip
	mov	ip, sp	@,
	stmfd	sp!, {fp, ip, lr, pc}	@,
	.pad #4
	.save {fp, ip, lr}
	.setfp fp, ip, #-4
	sub	fp, ip, #4	@,,
	push	{lr}
	bl	__gnu_mcount_nc
	movw	r3, #:lower16:.LANCHOR0	@ tmp137,
	movt	r3, #:upper16:.LANCHOR0	@ tmp137,
	ldr	r0, [r3, r0, asl #2]	@ D.39186, s_pstVfmwChan
	cmp	r0, #0	@ D.39186,
	beq	.L453	@,
	movw	r1, #:lower16:249228	@ tmp140,
	movt	r1, #:upper16:249228	@ tmp140,
	ldr	r0, [r0, r1]	@ D.39190, <variable>.s32SendStreamAgainFlag
	ldmfd	sp, {fp, sp, pc}	@
.L453:
	movw	r1, #:lower16:.LC5	@,
	movw	r2, #1044	@,
	movt	r1, #:upper16:.LC5	@,
	movw	r3, #:lower16:.LC10	@,
	movt	r3, #:upper16:.LC10	@,
	bl	dprint_vfmw	@
	mvn	r0, #0	@ D.39190,
	ldmfd	sp, {fp, sp, pc}	@
	.fnend
	.size	VCTRL_GetSendStreamAgainFlag, .-VCTRL_GetSendStreamAgainFlag
	.align	2
	.global	VCTRL_SetSendStreamAgainFlag
	.type	VCTRL_SetSendStreamAgainFlag, %function
VCTRL_SetSendStreamAgainFlag:
	.fnstart
.LFB1551:
	@ args = 0, pretend = 0, frame = 0
	@ frame_needed = 1, uses_anonymous_args = 0
	.movsp ip
	mov	ip, sp	@,
	stmfd	sp!, {fp, ip, lr, pc}	@,
	.pad #4
	.save {fp, ip, lr}
	.setfp fp, ip, #-4
	sub	fp, ip, #4	@,,
	push	{lr}
	bl	__gnu_mcount_nc
	movw	r3, #:lower16:.LANCHOR0	@ tmp138,
	movt	r3, #:upper16:.LANCHOR0	@ tmp138,
	ldr	r2, [r3, r0, asl #2]	@ D.39177, s_pstVfmwChan
	cmp	r2, #0	@ D.39177,
	beq	.L458	@,
	movw	ip, #:lower16:249228	@ tmp141,
	movt	ip, #:upper16:249228	@ tmp141,
	mov	r0, #0	@ D.39181,
	str	r1, [r2, ip]	@ flag, <variable>.s32SendStreamAgainFlag
	ldmfd	sp, {fp, sp, pc}	@
.L458:
	mov	r0, r2	@, D.39177
	movw	r1, #:lower16:.LC5	@,
	movw	r2, #1037	@,
	movt	r1, #:upper16:.LC5	@,
	movw	r3, #:lower16:.LC10	@,
	movt	r3, #:upper16:.LC10	@,
	bl	dprint_vfmw	@
	mvn	r0, #0	@ D.39181,
	ldmfd	sp, {fp, sp, pc}	@
	.fnend
	.size	VCTRL_SetSendStreamAgainFlag, .-VCTRL_SetSendStreamAgainFlag
	.align	2
	.global	VCTRL_SetCallBack
	.type	VCTRL_SetCallBack, %function
VCTRL_SetCallBack:
	.fnstart
.LFB1545:
	@ args = 0, pretend = 0, frame = 0
	@ frame_needed = 1, uses_anonymous_args = 0
	.movsp ip
	mov	ip, sp	@,
	stmfd	sp!, {fp, ip, lr, pc}	@,
	.pad #4
	.save {fp, ip, lr}
	.setfp fp, ip, #-4
	sub	fp, ip, #4	@,,
	push	{lr}
	bl	__gnu_mcount_nc
	cmp	r1, #0	@ event_report
	beq	.L467	@,
	cmp	r0, #0	@ eType,
	movweq	r3, #:lower16:.LANCHOR0	@ tmp139,
	movteq	r3, #:upper16:.LANCHOR0	@ tmp139,
	streq	r1, [r3, #288]	@ event_report, s_VfmwCTrl.event_report_vdec
	ldmeqfd	sp, {fp, sp, pc}	@
	cmp	r0, #1	@ eType,
	beq	.L468	@,
	mov	r3, r0	@, eType
	ldr	r2, .L469	@,
	mov	r0, #0	@,
	movw	r1, #:lower16:.LC36	@,
	movt	r1, #:upper16:.LC36	@,
	bl	dprint_vfmw	@
	mvn	r0, #0	@ D.39046,
	ldmfd	sp, {fp, sp, pc}	@
.L468:
	movw	r3, #:lower16:.LANCHOR0	@ tmp140,
	movt	r3, #:upper16:.LANCHOR0	@ tmp140,
	mov	r0, #0	@ D.39046,
	str	r1, [r3, #292]	@ event_report, s_VfmwCTrl.event_report_omxvdec
	ldmfd	sp, {fp, sp, pc}	@
.L467:
	mov	r0, r1	@, event_report
	mov	r2, #752	@,
	movw	r1, #:lower16:.LC5	@,
	movw	r3, #:lower16:.LC35	@,
	movt	r1, #:upper16:.LC5	@,
	movt	r3, #:upper16:.LC35	@,
	bl	dprint_vfmw	@
	mvn	r0, #0	@ D.39046,
	ldmfd	sp, {fp, sp, pc}	@
.L470:
	.align	2
.L469:
	.word	.LANCHOR1+40
	.fnend
	.size	VCTRL_SetCallBack, .-VCTRL_SetCallBack
	.align	2
	.global	VCTRL_EventReport
	.type	VCTRL_EventReport, %function
VCTRL_EventReport:
	.fnstart
.LFB1544:
	@ args = 0, pretend = 0, frame = 0
	@ frame_needed = 1, uses_anonymous_args = 0
	.movsp ip
	mov	ip, sp	@,
	stmfd	sp!, {r4, fp, ip, lr, pc}	@,
	.pad #4
	.save {r4, fp, ip, lr}
	.setfp fp, ip, #-4
	sub	fp, ip, #4	@,,
	.pad #12
	sub	sp, sp, #12	@,,
	push	{lr}
	bl	__gnu_mcount_nc
	cmp	r0, #15	@ InstID,
	mov	lr, r3	@ len, len
	bhi	.L482	@,
	movw	r4, #:lower16:.LANCHOR0	@ tmp145,
	movt	r4, #:upper16:.LANCHOR0	@ tmp145,
	ldr	r3, [r4, r0, asl #2]	@ D.39015, s_pstVfmwChan
	cmp	r3, #0	@ D.39015,
	beq	.L483	@,
	ldr	r3, [r3, #36]	@ eType, <variable>.eAdapterType
	cmp	r3, #0	@ eType,
	beq	.L476	@,
	cmp	r3, #1	@ eType,
	beq	.L484	@,
	mov	r0, #0	@,
	movw	r1, #:lower16:.LC40	@,
	ldr	r2, .L486	@,
	movt	r1, #:upper16:.LC40	@,
	str	lr, [sp, #0]	@ len,
	bl	dprint_vfmw	@
	mvn	r0, #0	@ ret,
.L473:
	sub	sp, fp, #16
	ldmfd	sp, {r4, fp, sp, pc}
.L476:
	ldr	r3, [r4, #288]	@ D.39018, s_VfmwCTrl.event_report_vdec
	cmp	r3, #0	@ D.39018,
	beq	.L485	@,
.L479:
	blx	r3	@ D.39024
	b	.L473	@
.L484:
	ldr	r3, [r4, #292]	@ D.39024, s_VfmwCTrl.event_report_omxvdec
	cmp	r3, #0	@ D.39024,
	bne	.L479	@,
	mov	r0, r3	@, D.39024
	movw	r1, #:lower16:.LC39	@,
	movt	r1, #:upper16:.LC39	@,
	bl	dprint_vfmw	@
	mvn	r0, #0	@ ret,
	b	.L473	@
.L485:
	mov	r0, r3	@, D.39018
	movw	r1, #:lower16:.LC38	@,
	movt	r1, #:upper16:.LC38	@,
	bl	dprint_vfmw	@
	mvn	r0, #0	@ ret,
	b	.L473	@
.L482:
	mov	r0, #0	@,
	movw	r1, #:lower16:.LC5	@,
	mov	r2, #716	@,
	movt	r1, #:upper16:.LC5	@,
	movw	r3, #:lower16:.LC37	@,
	movt	r3, #:upper16:.LC37	@,
	bl	dprint_vfmw	@
	mvn	r0, #0	@ ret,
	b	.L473	@
.L483:
	mov	r0, r3	@, D.39015
	movw	r1, #:lower16:.LC5	@,
	movw	r2, #717	@,
	movt	r1, #:upper16:.LC5	@,
	movw	r3, #:lower16:.LC10	@,
	movt	r3, #:upper16:.LC10	@,
	bl	dprint_vfmw	@
	mvn	r0, #0	@ ret,
	b	.L473	@
.L487:
	.align	2
.L486:
	.word	.LANCHOR1+60
	.fnend
	.size	VCTRL_EventReport, .-VCTRL_EventReport
	.align	2
	.global	VCTRL_SetMoreGapEnable
	.type	VCTRL_SetMoreGapEnable, %function
VCTRL_SetMoreGapEnable:
	.fnstart
.LFB1543:
	@ args = 0, pretend = 0, frame = 0
	@ frame_needed = 1, uses_anonymous_args = 0
	.movsp ip
	mov	ip, sp	@,
	stmfd	sp!, {fp, ip, lr, pc}	@,
	.pad #4
	.save {fp, ip, lr}
	.setfp fp, ip, #-4
	sub	fp, ip, #4	@,,
	push	{lr}
	bl	__gnu_mcount_nc
	cmp	r0, #15	@ ChanID,
	bhi	.L495	@,
	movw	r3, #:lower16:.LANCHOR0	@ tmp140,
	movt	r3, #:upper16:.LANCHOR0	@ tmp140,
	ldr	r3, [r3, r0, asl #2]	@ D.38986, s_pstVfmwChan
	cmp	r3, #0	@ D.38986,
	beq	.L496	@,
	ldr	r2, [r3, #12]	@ <variable>.s32IsOpen, <variable>.s32IsOpen
	cmp	r2, #1	@ <variable>.s32IsOpen,
	bne	.L497	@,
	cmp	r1, #1	@ MoreGapEnable,
	strls	r1, [r3, #1728]	@ MoreGapEnable, <variable>.stSynExtraData.s32MoreGapEnable
	movhi	r2, #0	@ tmp146,
	movls	r0, #0	@ D.38984,
	mvnhi	r0, #0	@ D.38984,
	strhi	r2, [r3, #1728]	@ tmp146, <variable>.stSynExtraData.s32MoreGapEnable
	ldmfd	sp, {fp, sp, pc}	@
.L497:
	mov	r0, #0	@,
	movw	r1, #:lower16:.LC5	@,
	mov	r2, #696	@,
	movt	r1, #:upper16:.LC5	@,
	movw	r3, #:lower16:.LC41	@,
	movt	r3, #:upper16:.LC41	@,
	bl	dprint_vfmw	@
	mvn	r0, #0	@ D.38984,
	ldmfd	sp, {fp, sp, pc}	@
.L495:
	mov	r0, #0	@,
	movw	r1, #:lower16:.LC5	@,
	movw	r2, #694	@,
	movt	r1, #:upper16:.LC5	@,
	movw	r3, #:lower16:.LC6	@,
	movt	r3, #:upper16:.LC6	@,
	bl	dprint_vfmw	@
	mvn	r0, #0	@ D.38984,
	ldmfd	sp, {fp, sp, pc}	@
.L496:
	mov	r0, r3	@, D.38986
	movw	r1, #:lower16:.LC5	@,
	movw	r2, #695	@,
	movt	r1, #:upper16:.LC5	@,
	movw	r3, #:lower16:.LC10	@,
	movt	r3, #:upper16:.LC10	@,
	bl	dprint_vfmw	@
	mvn	r0, #0	@ D.38984,
	ldmfd	sp, {fp, sp, pc}	@
	.fnend
	.size	VCTRL_SetMoreGapEnable, .-VCTRL_SetMoreGapEnable
	.align	2
	.global	VCTRL_RegisterSoftDecoder
	.type	VCTRL_RegisterSoftDecoder, %function
VCTRL_RegisterSoftDecoder:
	.fnstart
.LFB1528:
	@ args = 0, pretend = 0, frame = 0
	@ frame_needed = 1, uses_anonymous_args = 0
	.movsp ip
	mov	ip, sp	@,
	stmfd	sp!, {r4, r5, fp, ip, lr, pc}	@,
	.pad #4
	.save {r4, r5, fp, ip, lr}
	.setfp fp, ip, #-4
	sub	fp, ip, #4	@,,
	push	{lr}
	bl	__gnu_mcount_nc
	ldr	r3, [r0, #0]	@ <variable>.pfun_iMediaSoftDEC_Create, <variable>.pfun_iMediaSoftDEC_Create
	cmp	r3, #0	@ <variable>.pfun_iMediaSoftDEC_Create,
	beq	.L508	@,
	ldr	r3, [r0, #4]	@ <variable>.pfun_iMediaSoftDEC_Destroy, <variable>.pfun_iMediaSoftDEC_Destroy
	cmp	r3, #0	@ <variable>.pfun_iMediaSoftDEC_Destroy,
	beq	.L509	@,
	ldr	r3, [r0, #8]	@ <variable>.pfun_iMediaSoftDEC_Init, <variable>.pfun_iMediaSoftDEC_Init
	cmp	r3, #0	@ <variable>.pfun_iMediaSoftDEC_Init,
	beq	.L510	@,
	ldr	r3, [r0, #12]	@ <variable>.pfun_iMediaSoftDEC_Decode, <variable>.pfun_iMediaSoftDEC_Decode
	cmp	r3, #0	@ <variable>.pfun_iMediaSoftDEC_Decode,
	beq	.L511	@,
	ldr	r3, [r0, #16]	@ <variable>.pfun_iMediaSoftDEC_RecycleImage, <variable>.pfun_iMediaSoftDEC_RecycleImage
	cmp	r3, #0	@ <variable>.pfun_iMediaSoftDEC_RecycleImage,
	beq	.L512	@,
	ldr	r3, [r0, #20]	@ <variable>.pfun_iMediaSoftDEC_GetRemainImg, <variable>.pfun_iMediaSoftDEC_GetRemainImg
	cmp	r3, #0	@ <variable>.pfun_iMediaSoftDEC_GetRemainImg,
	beq	.L513	@,
	ldr	r3, [r0, #24]	@ <variable>.pfun_iMediaSoftDEC_GetImageBuffer, <variable>.pfun_iMediaSoftDEC_GetImageBuffer
	cmp	r3, #0	@ <variable>.pfun_iMediaSoftDEC_GetImageBuffer,
	beq	.L514	@,
	mov	r4, r0	@ pstSdecFunc, pstSdecFunc
	ldr	ip, .L515	@ tmp158,
	ldmia	r4!, {r0, r1, r2, r3}	@ pstSdecFunc,,,,
	mov	r5, #0	@ D.38711,
	stmia	ip!, {r0, r1, r2, r3}	@ tmp158,,,,
	ldmia	r4, {r0, r1, r2}	@ pstSdecFunc,,,
	stmia	ip, {r0, r1, r2}	@ tmp161,,,
.L500:
	mov	r0, r5	@, D.38711
	ldmfd	sp, {r4, r5, fp, sp, pc}	@
.L508:
	mov	r0, r3	@, <variable>.pfun_iMediaSoftDEC_Create
	movw	r1, #:lower16:.LC42	@,
	movw	r2, #:lower16:.LC43	@,
	movt	r1, #:upper16:.LC42	@,
	movt	r2, #:upper16:.LC43	@,
	mvn	r5, #0	@ D.38711,
	bl	dprint_vfmw	@
	b	.L500	@
.L513:
	mov	r0, r3	@, <variable>.pfun_iMediaSoftDEC_GetRemainImg
	movw	r1, #:lower16:.LC42	@,
	movw	r2, #:lower16:.LC48	@,
	movt	r1, #:upper16:.LC42	@,
	movt	r2, #:upper16:.LC48	@,
	mvn	r5, #0	@ D.38711,
	bl	dprint_vfmw	@
	b	.L500	@
.L512:
	mov	r0, r3	@, <variable>.pfun_iMediaSoftDEC_RecycleImage
	movw	r1, #:lower16:.LC42	@,
	movw	r2, #:lower16:.LC47	@,
	movt	r1, #:upper16:.LC42	@,
	movt	r2, #:upper16:.LC47	@,
	mvn	r5, #0	@ D.38711,
	bl	dprint_vfmw	@
	b	.L500	@
.L511:
	mov	r0, r3	@, <variable>.pfun_iMediaSoftDEC_Decode
	movw	r1, #:lower16:.LC42	@,
	movw	r2, #:lower16:.LC46	@,
	movt	r1, #:upper16:.LC42	@,
	movt	r2, #:upper16:.LC46	@,
	mvn	r5, #0	@ D.38711,
	bl	dprint_vfmw	@
	b	.L500	@
.L510:
	mov	r0, r3	@, <variable>.pfun_iMediaSoftDEC_Init
	movw	r1, #:lower16:.LC42	@,
	movw	r2, #:lower16:.LC45	@,
	movt	r1, #:upper16:.LC42	@,
	movt	r2, #:upper16:.LC45	@,
	mvn	r5, #0	@ D.38711,
	bl	dprint_vfmw	@
	b	.L500	@
.L509:
	mov	r0, r3	@, <variable>.pfun_iMediaSoftDEC_Destroy
	movw	r1, #:lower16:.LC42	@,
	movw	r2, #:lower16:.LC44	@,
	movt	r1, #:upper16:.LC42	@,
	movt	r2, #:upper16:.LC44	@,
	mvn	r5, #0	@ D.38711,
	bl	dprint_vfmw	@
	b	.L500	@
.L514:
	mov	r0, r3	@, <variable>.pfun_iMediaSoftDEC_GetImageBuffer
	movw	r1, #:lower16:.LC42	@,
	movw	r2, #:lower16:.LC49	@,
	movt	r1, #:upper16:.LC42	@,
	movt	r2, #:upper16:.LC49	@,
	mvn	r5, #0	@ D.38711,
	bl	dprint_vfmw	@
	b	.L500	@
.L516:
	.align	2
.L515:
	.word	.LANCHOR0+76
	.fnend
	.size	VCTRL_RegisterSoftDecoder, .-VCTRL_RegisterSoftDecoder
	.align	2
	.global	VCTRL_ConfigPVRInfo
	.type	VCTRL_ConfigPVRInfo, %function
VCTRL_ConfigPVRInfo:
	.fnstart
.LFB1595:
	@ args = 0, pretend = 0, frame = 0
	@ frame_needed = 1, uses_anonymous_args = 0
	.movsp ip
	mov	ip, sp	@,
	stmfd	sp!, {r4, r5, fp, ip, lr, pc}	@,
	.pad #4
	.save {r4, r5, fp, ip, lr}
	.setfp fp, ip, #-4
	sub	fp, ip, #4	@,,
	push	{lr}
	bl	__gnu_mcount_nc
	cmp	r0, #15	@ ChanID,
	bhi	.L524	@,
	movw	r3, #:lower16:.LANCHOR0	@ tmp140,
	movt	r3, #:upper16:.LANCHOR0	@ tmp140,
	ldr	ip, [r3, r0, asl #2]	@ D.41357, s_pstVfmwChan
	cmp	ip, #0	@ D.41357,
	beq	.L525	@,
	ldr	r0, [ip, #12]	@ <variable>.s32IsOpen, <variable>.s32IsOpen
	cmp	r0, #1	@ <variable>.s32IsOpen,
	bne	.L526	@,
	cmp	r1, #0	@ pArgs,
	beq	.L527	@,
	mov	r4, r1	@ pArgs, pArgs
	add	r5, ip, #1744	@ tmp148, D.41357,
	ldmia	r4!, {r0, r1, r2, r3}	@ pArgs,,,,
	add	ip, r5, #4	@ tmp148, tmp148,
	mov	r5, #0	@ D.41355,
	stmia	ip!, {r0, r1, r2, r3}	@ tmp148,,,,
	ldr	r2, [r4, #0]	@ tmp152,* pArgs
	str	r2, [ip, #0]	@ tmp152, <variable>.stSynExtraData.stPvrInfo
.L519:
	mov	r0, r5	@, D.41355
	ldmfd	sp, {r4, r5, fp, sp, pc}	@
.L526:
	mov	r0, #0	@,
	movw	r1, #:lower16:.LC5	@,
	movw	r2, #4964	@,
	movt	r1, #:upper16:.LC5	@,
	movw	r3, #:lower16:.LC26	@,
	movt	r3, #:upper16:.LC26	@,
	bl	dprint_vfmw	@
	mvn	r5, #0	@ D.41355,
	b	.L519	@
.L524:
	mov	r0, #0	@,
	movw	r1, #:lower16:.LC5	@,
	movw	r2, #4962	@,
	movt	r1, #:upper16:.LC5	@,
	movw	r3, #:lower16:.LC6	@,
	movt	r3, #:upper16:.LC6	@,
	bl	dprint_vfmw	@
	mvn	r5, #0	@ D.41355,
	b	.L519	@
.L527:
	mov	r0, r1	@, pArgs
	movw	r2, #4965	@,
	movw	r1, #:lower16:.LC5	@,
	movw	r3, #:lower16:.LC27	@,
	movt	r1, #:upper16:.LC5	@,
	movt	r3, #:upper16:.LC27	@,
	bl	dprint_vfmw	@
	mvn	r5, #0	@ D.41355,
	b	.L519	@
.L525:
	mov	r0, ip	@, D.41357
	movw	r1, #:lower16:.LC5	@,
	movw	r2, #4963	@,
	movt	r1, #:upper16:.LC5	@,
	movw	r3, #:lower16:.LC25	@,
	movt	r3, #:upper16:.LC25	@,
	bl	dprint_vfmw	@
	mvn	r5, #0	@ D.41355,
	b	.L519	@
	.fnend
	.size	VCTRL_ConfigPVRInfo, .-VCTRL_ConfigPVRInfo
	.align	2
	.global	VCTRL_GetChanCfg
	.type	VCTRL_GetChanCfg, %function
VCTRL_GetChanCfg:
	.fnstart
.LFB1574:
	@ args = 0, pretend = 0, frame = 0
	@ frame_needed = 1, uses_anonymous_args = 0
	.movsp ip
	mov	ip, sp	@,
	stmfd	sp!, {fp, ip, lr, pc}	@,
	.pad #4
	.save {fp, ip, lr}
	.setfp fp, ip, #-4
	sub	fp, ip, #4	@,,
	push	{lr}
	bl	__gnu_mcount_nc
	cmp	r0, #15	@ ChanID,
	bhi	.L534	@,
	cmp	r1, #0	@ pstCfg,
	beq	.L535	@,
	movw	r3, #:lower16:.LANCHOR0	@ tmp142,
	movt	r3, #:upper16:.LANCHOR0	@ tmp142,
	ldr	r3, [r3, r0, asl #2]	@ D.40151, s_pstVfmwChan
	cmp	r3, #0	@ D.40151,
	beq	.L536	@,
	mov	r0, r1	@, pstCfg
	mov	r2, #92	@,
	add	r1, r3, #48	@, D.40151,
	bl	memcpy	@
	mov	r0, #0	@ D.40147,
	ldmfd	sp, {fp, sp, pc}	@
.L534:
	mov	r0, #0	@,
	movw	r1, #:lower16:.LC5	@,
	movw	r2, #2844	@,
	movt	r1, #:upper16:.LC5	@,
	movw	r3, #:lower16:.LC6	@,
	movt	r3, #:upper16:.LC6	@,
	bl	dprint_vfmw	@
	mvn	r0, #0	@ D.40147,
	ldmfd	sp, {fp, sp, pc}	@
.L536:
	mov	r0, r3	@, D.40151
	movw	r1, #:lower16:.LC5	@,
	movw	r2, #2846	@,
	movt	r1, #:upper16:.LC5	@,
	movw	r3, #:lower16:.LC10	@,
	movt	r3, #:upper16:.LC10	@,
	bl	dprint_vfmw	@
	mvn	r0, #0	@ D.40147,
	ldmfd	sp, {fp, sp, pc}	@
.L535:
	mov	r0, r1	@, pstCfg
	movw	r2, #2845	@,
	movw	r1, #:lower16:.LC5	@,
	movw	r3, #:lower16:.LC50	@,
	movt	r1, #:upper16:.LC5	@,
	movt	r3, #:upper16:.LC50	@,
	bl	dprint_vfmw	@
	mvn	r0, #0	@ D.40147,
	ldmfd	sp, {fp, sp, pc}	@
	.fnend
	.size	VCTRL_GetChanCfg, .-VCTRL_GetChanCfg
	.align	2
	.global	VCTRL_SetDiscardPicParam
	.type	VCTRL_SetDiscardPicParam, %function
VCTRL_SetDiscardPicParam:
	.fnstart
.LFB1557:
	@ args = 0, pretend = 0, frame = 0
	@ frame_needed = 1, uses_anonymous_args = 0
	.movsp ip
	mov	ip, sp	@,
	stmfd	sp!, {fp, ip, lr, pc}	@,
	.pad #4
	.save {fp, ip, lr}
	.setfp fp, ip, #-4
	sub	fp, ip, #4	@,,
	push	{lr}
	bl	__gnu_mcount_nc
	cmp	r0, #15	@ ChanID,
	mov	ip, r0	@ ChanID, ChanID
	bhi	.L544	@,
	cmp	r1, #0	@ pArgs,
	beq	.L545	@,
	movw	r3, #:lower16:.LANCHOR0	@ tmp143,
	movt	r3, #:upper16:.LANCHOR0	@ tmp143,
	ldr	r2, [r3, r0, asl #2]	@ D.39260, s_pstVfmwChan
	cmp	r2, #0	@ D.39260,
	beq	.L546	@,
	ldmia	r1, {r0, r1}	@ pArgs,,
	add	r2, r2, #1904	@ tmp146, D.39260,
	add	r2, r2, #12	@ tmp146, tmp146,
	stmia	r2, {r0, r1}	@ tmp146,,
	ldr	r3, [r3, ip, asl #2]	@ temp.2522, s_pstVfmwChan
	ldr	r0, [r3, #1916]	@ <variable>.stSynExtraData.stDisParams.s32Mode, <variable>.stSynExtraData.stDisParams.s32Mode
	sub	r2, r0, #1	@ tmp151, <variable>.stSynExtraData.stDisParams.s32Mode,
	mov	r0, #0	@ D.39256,
	cmp	r2, #1	@ tmp151,
	strhi	r0, [r3, #1916]	@ tmp153, <variable>.stSynExtraData.stDisParams.s32Mode
	ldmfd	sp, {fp, sp, pc}	@
.L544:
	mov	r0, #0	@,
	movw	r1, #:lower16:.LC5	@,
	movw	r2, #1122	@,
	movt	r1, #:upper16:.LC5	@,
	movw	r3, #:lower16:.LC6	@,
	movt	r3, #:upper16:.LC6	@,
	bl	dprint_vfmw	@
	mvn	r0, #0	@ D.39256,
	ldmfd	sp, {fp, sp, pc}	@
.L546:
	mov	r0, r2	@, D.39260
	movw	r1, #:lower16:.LC5	@,
	movw	r2, #1124	@,
	movt	r1, #:upper16:.LC5	@,
	movw	r3, #:lower16:.LC10	@,
	movt	r3, #:upper16:.LC10	@,
	bl	dprint_vfmw	@
	mvn	r0, #0	@ D.39256,
	ldmfd	sp, {fp, sp, pc}	@
.L545:
	mov	r0, r1	@, pArgs
	movw	r2, #1123	@,
	movw	r1, #:lower16:.LC5	@,
	movw	r3, #:lower16:.LC51	@,
	movt	r1, #:upper16:.LC5	@,
	movt	r3, #:upper16:.LC51	@,
	bl	dprint_vfmw	@
	mvn	r0, #0	@ D.39256,
	ldmfd	sp, {fp, sp, pc}	@
	.fnend
	.size	VCTRL_SetDiscardPicParam, .-VCTRL_SetDiscardPicParam
	.align	2
	.global	VCTRL_SetFrameInterface
	.type	VCTRL_SetFrameInterface, %function
VCTRL_SetFrameInterface:
	.fnstart
.LFB1554:
	@ args = 0, pretend = 0, frame = 0
	@ frame_needed = 1, uses_anonymous_args = 0
	.movsp ip
	mov	ip, sp	@,
	stmfd	sp!, {fp, ip, lr, pc}	@,
	.pad #4
	.save {fp, ip, lr}
	.setfp fp, ip, #-4
	sub	fp, ip, #4	@,,
	push	{lr}
	bl	__gnu_mcount_nc
	cmp	r1, #0	@ pstFrameIntf
	beq	.L552	@,
	movw	r3, #:lower16:.LANCHOR0	@ tmp140,
	movt	r3, #:upper16:.LANCHOR0	@ tmp140,
	ldr	r3, [r3, r0, asl #2]	@ D.39216, s_pstVfmwChan
	cmp	r3, #0	@ D.39216,
	beq	.L553	@,
	ldmia	r1, {r0, r1, r2}	@ pstFrameIntf,,,
	add	r3, r3, #164	@ tmp143, D.39216,
	mov	ip, #0	@ D.39214,
	stmia	r3, {r0, r1, r2}	@ tmp143,,,
.L549:
	mov	r0, ip	@, D.39214
	ldmfd	sp, {fp, sp, pc}	@
.L553:
	mov	r0, r3	@, D.39216
	movw	r1, #:lower16:.LC5	@,
	mov	r2, #1072	@,
	movt	r1, #:upper16:.LC5	@,
	movw	r3, #:lower16:.LC10	@,
	movt	r3, #:upper16:.LC10	@,
	bl	dprint_vfmw	@
	mvn	ip, #0	@ D.39214,
	b	.L549	@
.L552:
	mov	r0, r1	@, pstFrameIntf
	movw	r2, #1071	@,
	movw	r1, #:lower16:.LC5	@,
	movw	r3, #:lower16:.LC52	@,
	movt	r1, #:upper16:.LC5	@,
	movt	r3, #:upper16:.LC52	@,
	bl	dprint_vfmw	@
	mvn	ip, #0	@ D.39214,
	b	.L549	@
	.fnend
	.size	VCTRL_SetFrameInterface, .-VCTRL_SetFrameInterface
	.align	2
	.global	VCTRL_SetStreamInterface
	.type	VCTRL_SetStreamInterface, %function
VCTRL_SetStreamInterface:
	.fnstart
.LFB1550:
	@ args = 0, pretend = 0, frame = 0
	@ frame_needed = 1, uses_anonymous_args = 0
	.movsp ip
	mov	ip, sp	@,
	stmfd	sp!, {r3, r4, r5, r6, fp, ip, lr, pc}	@,
	.pad #4
	.save {r3, r4, r5, r6, fp, ip, lr}
	.setfp fp, ip, #-4
	sub	fp, ip, #4	@,,
	push	{lr}
	bl	__gnu_mcount_nc
	subs	r6, r1, #0	@ pstStreamParam, pstStreamParam
	mov	r5, r0	@ ChanID, ChanID
	beq	.L559	@,
	movw	r4, #:lower16:.LANCHOR0	@ tmp140,
	movt	r4, #:upper16:.LANCHOR0	@ tmp140,
	ldr	r0, [r4, r0, asl #2]	@ D.39165, s_pstVfmwChan
	cmp	r0, #0	@ D.39165,
	beq	.L560	@,
	add	r5, r5, r5, asl #1	@, tmp152, ChanID, ChanID,
	mov	r2, #12	@,
	add	r4, r4, #296	@ tmp149, tmp140,
	add	r0, r0, #140	@, D.39165,
	bl	memcpy	@
	mov	r1, r6	@, pstStreamParam
	add	r0, r4, r5, asl #2	@,, tmp149, tmp152,
	mov	r2, #12	@,
	bl	memcpy	@
	mov	r0, #0	@ D.39163,
	ldmfd	sp, {r3, r4, r5, r6, fp, sp, pc}	@
.L560:
	movw	r1, #:lower16:.LC5	@,
	movw	r2, #1028	@,
	movt	r1, #:upper16:.LC5	@,
	movw	r3, #:lower16:.LC10	@,
	movt	r3, #:upper16:.LC10	@,
	bl	dprint_vfmw	@
	mvn	r0, #0	@ D.39163,
	ldmfd	sp, {r3, r4, r5, r6, fp, sp, pc}	@
.L559:
	mov	r0, r6	@, pstStreamParam
	movw	r1, #:lower16:.LC5	@,
	movw	r2, #1027	@,
	movt	r1, #:upper16:.LC5	@,
	movw	r3, #:lower16:.LC53	@,
	movt	r3, #:upper16:.LC53	@,
	bl	dprint_vfmw	@
	mvn	r0, #0	@ D.39163,
	ldmfd	sp, {r3, r4, r5, r6, fp, sp, pc}	@
	.fnend
	.size	VCTRL_SetStreamInterface, .-VCTRL_SetStreamInterface
	.align	2
	.global	DBG_WriteBigTileYuv
	.type	DBG_WriteBigTileYuv, %function
DBG_WriteBigTileYuv:
	.fnstart
.LFB1667:
	@ args = 32, pretend = 0, frame = 40
	@ frame_needed = 1, uses_anonymous_args = 0
	.movsp ip
	mov	ip, sp	@,
	stmfd	sp!, {r4, r5, r6, r7, r8, r9, sl, fp, ip, lr, pc}	@,
	.pad #4
	.save {r4, r5, r6, r7, r8, r9, sl, fp, ip, lr}
	.setfp fp, ip, #-4
	sub	fp, ip, #4	@,,
	.pad #44
	sub	sp, sp, #44	@,,
	push	{lr}
	bl	__gnu_mcount_nc
	cmp	r0, #0	@
	mov	r5, r1	@ Yaddress, Yaddress
	str	r0, [fp, #-64]	@, %sfp
	str	r2, [fp, #-76]	@ Caddress, %sfp
	mov	r4, r3	@ Width, Width
	ldr	r6, [fp, #8]	@ PicStructure, PicStructure
	beq	.L598	@,
	ldr	ip, [fp, #20]	@, LeftOffset
	ldr	r1, [fp, #4]	@, Height
	ldr	r0, [fp, #28]	@, TopOffset
	rsb	r2, ip, r3	@ tmp211,, Width
	ldr	r3, [fp, #32]	@ BottomOffset, BottomOffset
	mov	ip, r4, lsr #1	@, Width,
	rsb	r8, r0, r1	@ tmp212,,
	ldr	lr, [fp, #24]	@ RightOffset, RightOffset
	rsb	r8, r3, r8	@, BottomOffset, tmp212
	mov	r0, #32	@,
	rsb	r2, lr, r2	@, RightOffset, tmp211
	movw	r1, #:lower16:.LC54	@,
	mov	r3, r8	@,
	movt	r1, #:upper16:.LC54	@,
	str	r2, [fp, #-72]	@, %sfp
	str	r8, [fp, #-60]	@, %sfp
	str	ip, [fp, #-68]	@, %sfp
	bl	dprint_vfmw	@
	ldr	r0, [fp, #4]	@, Height
	cmp	r6, #0	@ PicStructure,
	cmpne	r6, #3	@, PicStructure,
	mov	r1, r0, lsr #1	@,,
	str	r1, [fp, #-56]	@, %sfp
	bne	.L563	@,
	ldr	sl, [fp, #4]	@, Height
	cmp	sl, #0	@,
	movweq	r6, #:lower16:.LANCHOR0	@ tmp334,
	movteq	r6, #:upper16:.LANCHOR0	@ tmp334,
	beq	.L564	@,
	movw	r6, #:lower16:.LANCHOR0	@ tmp334,
	movt	r6, #:upper16:.LANCHOR0	@ tmp334,
	mov	r8, r5	@ Yaddress, Yaddress
	mov	r9, r4	@ Width, Width
	mov	sl, #0	@ ivtmp.2693,
	str	sl, [fp, #-48]	@ ivtmp.2693, %sfp
.L565:
	cmp	r9, #0	@ Width,
	beq	.L567	@,
	ldr	r1, [fp, #-48]	@, %sfp
	sub	r4, r9, #1	@ tmp373, Width,
	ldr	r2, [fp, #12]	@, Stride
	ubfx	r5, r4, #8, #1	@ tmp374, tmp373,,
	and	lr, r1, #15	@ pretmp.2790,,
	ldr	ip, [r6, #488]	@ pY, pY
	mov	r0, r1, lsr #4	@ pretmp.2793,,
	mul	r7, r2, r0	@ tmp234,, pretmp.2793
	mov	r2, #256	@,
	mla	r7, lr, r2, r7	@ pretmp.2635, pretmp.2790,, tmp234
	add	r0, sl, ip	@, ivtmp.2693, pY
	mov	r4, r2	@ j,
	add	r1, r8, r7	@, Yaddress, pretmp.2635
	bl	memcpy	@
	cmp	r9, r4	@ Width, j
	bls	.L567	@,
	cmp	r5, #0	@ tmp374,
	beq	.L566	@,
	ldr	r5, [r6, #488]	@ pY, pY
	add	ip, sl, r4	@ tmp515, ivtmp.2693, j
	add	lr, r7, #4096	@ tmp520, pretmp.2635,
	mov	r2, r4	@, j
	add	r0, ip, r5	@, tmp515, pY
	add	r1, r8, lr	@, Yaddress, tmp520
	bl	memcpy	@
	mov	r4, #512	@ j,
	cmp	r9, r4	@ Width, j
	bls	.L567	@,
.L566:
	mov	r1, r4, lsr #8	@ tmp225, j,
	ldr	r2, [r6, #488]	@ pY, pY
	add	r5, r4, #256	@ tmp375, j,
	add	ip, sl, r4	@ tmp222, ivtmp.2693, j
	add	lr, r7, r1, asl #12	@, tmp227, pretmp.2635, tmp225,
	add	r0, ip, r2	@, tmp222, pY
	add	r1, r8, lr	@, Yaddress, tmp227
	mov	r2, #256	@,
	mov	r4, r5, lsr #8	@ tmp400, tmp375,
	bl	memcpy	@
	ldr	r3, [r6, #488]	@ pY, pY
	add	r0, sl, r5	@ tmp397, ivtmp.2693, tmp375
	add	r2, r7, r4, asl #12	@, tmp402, pretmp.2635, tmp400,
	add	r4, r5, #256	@ j, tmp375,
	add	r1, r8, r2	@, Yaddress, tmp402
	add	r0, r0, r3	@, tmp397, pY
	mov	r2, #256	@,
	bl	memcpy	@
	cmp	r9, r4	@ Width, j
	bhi	.L566	@,
.L567:
	ldr	r3, [fp, #-48]	@, %sfp
	add	sl, sl, r9	@ ivtmp.2693, ivtmp.2693, Width
	ldr	r5, [fp, #4]	@, Height
	add	r0, r3, #1	@,,
	str	r0, [fp, #-48]	@, %sfp
	cmp	r5, r0	@,
	bhi	.L565	@,
	mov	r4, r9	@ Width, Width
.L564:
	ldr	r3, [fp, #-60]	@, %sfp
	ldr	ip, [fp, #4]	@, Height
	ldr	r5, [fp, #-72]	@, %sfp
	cmp	r3, ip	@,
	cmpeq	r5, r4	@,, Width
	movne	sl, #0	@,
	moveq	sl, #1	@,
	str	sl, [fp, #-80]	@, %sfp
	beq	.L692	@,
	ldr	r2, [fp, #-60]	@, %sfp
	ldr	r0, [r6, #488]	@ pY.2732, pY
	cmp	r2, #0	@,
	beq	.L571	@,
	ldr	r1, [fp, #28]	@, TopOffset
	sub	r7, r2, #1	@ tmp367,,
	ldr	r8, [fp, #20]	@, LeftOffset
	ldr	r2, [fp, #-64]	@, %sfp
	mla	sl, r4, r1, r8	@ tmp245, Width,,
	ldr	r1, [fp, #-72]	@, %sfp
	and	r8, r7, #1	@ tmp369, tmp367,
	mov	r7, #1	@ i.2733,
	add	r0, r0, sl	@ pPicAddr, pY.2732, tmp245
	add	r5, r0, r4	@ pPicAddr, pPicAddr, Width
	bl	klib_fwrite	@
	ldr	r2, [fp, #-60]	@, %sfp
	cmp	r2, r7	@,
	bls	.L571	@,
	cmp	r8, #0	@ tmp369,
	beq	.L680	@,
	mov	r0, r5	@, pPicAddr
	ldr	r1, [fp, #-72]	@, %sfp
	ldr	r2, [fp, #-64]	@, %sfp
	mov	r7, #2	@ i.2733,
	bl	klib_fwrite	@
	ldr	sl, [fp, #-60]	@, %sfp
	add	r5, r5, r4	@ pPicAddr, pPicAddr, Width
	cmp	sl, r7	@, i.2733
	bls	.L571	@,
.L680:
	mov	r0, r5	@ pPicAddr, pPicAddr
	ldr	r8, [fp, #-72]	@ disp_width, %sfp
	ldr	sl, [fp, #-64]	@ fpYuv, %sfp
	mov	r9, r6	@ tmp334, tmp334
	ldr	r5, [fp, #-60]	@ disp_height, %sfp
.L572:
	add	r6, r0, r4	@ pPicAddr, pPicAddr, Width
	add	r3, r7, #1	@ tmp370, i.2733,
	mov	r1, r8	@, disp_width
	mov	r2, sl	@, fpYuv
	add	r7, r3, #1	@ i.2733, tmp370,
	bl	klib_fwrite	@
	mov	r0, r6	@, pPicAddr
	mov	r1, r8	@, disp_width
	mov	r2, sl	@, fpYuv
	bl	klib_fwrite	@
	cmp	r5, r7	@ disp_height, i.2733
	add	r0, r6, r4	@ pPicAddr, pPicAddr, Width
	bhi	.L572	@,
	mov	r6, r9	@ tmp334, tmp334
.L571:
	ldr	lr, [fp, #-56]	@, %sfp
	cmp	lr, #0	@,
	beq	.L569	@,
	ldr	r0, [fp, #12]	@, Stride
	mov	r9, r4	@ Width, Width
	ldr	sl, [fp, #-76]	@ Caddress, %sfp
	mov	r8, #0	@ ivtmp.2681,
	str	r8, [fp, #-48]	@ i.2739, %sfp
	mov	ip, r0, lsr #1	@,,
	str	ip, [fp, #-52]	@, %sfp
.L570:
	cmp	r9, #0	@ Width,
	beq	.L574	@,
	ldr	r1, [fp, #-48]	@, %sfp
	sub	ip, r9, #1	@ tmp364, Width,
	ldr	lr, [fp, #-52]	@, %sfp
	mov	r2, #256	@,
	and	r0, r1, #7	@ pretmp.2788,,
	ldr	r3, [r6, #488]	@ pY, pY
	mov	r4, r1, lsr #3	@ pretmp.2632,,
	ubfx	r5, ip, #8, #1	@ tmp365, tmp364,,
	mov	r7, r0, asl #8	@ tmp259, pretmp.2788,
	add	r0, r8, r3	@, ivtmp.2681, pY
	mla	r7, lr, r4, r7	@ pretmp.2633,, pretmp.2632, tmp259
	mov	r4, r2	@ j.2738,
	add	r1, sl, r7	@, Caddress, pretmp.2633
	bl	memcpy	@
	cmp	r9, r4	@ Width, j.2738
	bls	.L574	@,
	cmp	r5, #0	@ tmp365,
	beq	.L573	@,
	ldr	r3, [r6, #488]	@ pY, pY
	add	r1, r8, r4	@ tmp508, ivtmp.2681, j.2738
	add	r5, r7, #2048	@ tmp513, pretmp.2633,
	mov	r2, r4	@, j.2738
	add	r0, r1, r3	@, tmp508, pY
	add	r1, sl, r5	@, Caddress, tmp513
	bl	memcpy	@
	mov	r4, #512	@ j.2738,
	cmp	r9, r4	@ Width, j.2738
	bls	.L574	@,
.L573:
	mov	r1, r4, lsr #8	@ tmp250, j.2738,
	ldr	r3, [r6, #488]	@ pY, pY
	add	r5, r4, #256	@ tmp366, j.2738,
	add	ip, r8, r4	@ tmp247, ivtmp.2681, j.2738
	add	lr, r7, r1, asl #11	@, tmp252, pretmp.2633, tmp250,
	add	r0, ip, r3	@, tmp247, pY
	add	r1, sl, lr	@, Caddress, tmp252
	mov	r2, #256	@,
	mov	r4, r5, lsr #8	@ tmp420, tmp366,
	bl	memcpy	@
	ldr	r2, [r6, #488]	@ pY, pY
	add	r0, r8, r5	@ tmp417, ivtmp.2681, tmp366
	add	ip, r7, r4, asl #11	@, tmp422, pretmp.2633, tmp420,
	add	r4, r5, #256	@ j.2738, tmp366,
	add	r0, r0, r2	@, tmp417, pY
	add	r1, sl, ip	@, Caddress, tmp422
	mov	r2, #256	@,
	bl	memcpy	@
	cmp	r9, r4	@ Width, j.2738
	bhi	.L573	@,
.L574:
	ldr	r5, [fp, #-48]	@, %sfp
	add	r8, r8, r9	@ ivtmp.2681, ivtmp.2681, Width
	ldr	r2, [fp, #-56]	@, %sfp
	add	r0, r5, #1	@,,
	str	r0, [fp, #-48]	@, %sfp
	cmp	r2, r0	@,
	bhi	.L570	@,
	mov	r4, r9	@ Width, Width
.L569:
	ldr	sl, [fp, #16]	@, chroma_idc
	movw	r5, #:lower16:.LANCHOR0	@ tmp260,
	movt	r5, #:upper16:.LANCHOR0	@ tmp260,
	cmp	sl, #1	@,
	ldr	sl, [r6, #488]	@ tmp, pY
	beq	.L693	@,
	ldr	r1, [fp, #16]	@, chroma_idc
	cmp	r1, #0	@,
	beq	.L694	@,
.L576:
	ldr	r2, [fp, #-80]	@, %sfp
	cmp	r2, #0	@,
	bne	.L695	@,
	ldr	r9, [fp, #-60]	@, %sfp
	ldr	r3, [r6, #496]	@ pUl.2745, pUl
	movs	r8, r9, lsr #1	@ disp_chroma_height,,
	ldr	r9, [r6, #492]	@ pVl.2746, pVl
	beq	.L598	@,
	ldr	r4, [fp, #28]	@, TopOffset
	sub	r6, r8, #1	@ tmp353, disp_chroma_height,
	ldr	r0, [fp, #20]	@, LeftOffset
	ldr	sl, [fp, #-72]	@, %sfp
	ldr	lr, [fp, #-68]	@, %sfp
	mov	r5, r4, lsr #1	@ tmp279,,
	mov	r7, r0, lsr #1	@ tmp281,,
	ldr	r2, [fp, #-64]	@, %sfp
	mov	r4, sl, lsr #1	@ pretmp.2629,,
	mla	sl, lr, r5, r7	@ D.44742,, tmp279, tmp281
	mov	r1, r4	@, pretmp.2629
	and	r7, r6, #1	@ tmp355, tmp353,
	mov	r6, #1	@ i.2747,
	add	r0, r3, sl	@ pCbPicAddr, pUl.2745, D.44742
	add	r5, r0, lr	@ pCbPicAddr, pCbPicAddr,
	bl	klib_fwrite	@
	cmp	r8, r6	@ disp_chroma_height,
	bls	.L663	@,
	cmp	r7, #0	@ tmp355,
	beq	.L674	@,
	mov	r0, r5	@, pCbPicAddr
	mov	r1, r4	@, pretmp.2629
	ldr	r2, [fp, #-64]	@, %sfp
	mov	r6, #2	@ i.2747,
	bl	klib_fwrite	@
	ldr	r7, [fp, #-68]	@, %sfp
	cmp	r8, r6	@ disp_chroma_height, i.2747
	add	r5, r5, r7	@ pCbPicAddr, pCbPicAddr,
	bls	.L663	@,
.L674:
	str	r9, [fp, #-48]	@ pVl.2746, %sfp
	mov	r0, r5	@ pCbPicAddr, pCbPicAddr
	ldr	r9, [fp, #-68]	@ chrom_width, %sfp
	mov	r5, sl	@ D.44742, D.44742
	ldr	sl, [fp, #-64]	@ fpYuv, %sfp
.L581:
	add	r7, r0, r9	@ pCbPicAddr, pCbPicAddr, chrom_width
	add	r3, r6, #1	@ tmp356, i.2747,
	mov	r1, r4	@, pretmp.2629
	mov	r2, sl	@, fpYuv
	add	r6, r3, #1	@ i.2747, tmp356,
	bl	klib_fwrite	@
	mov	r0, r7	@, pCbPicAddr
	mov	r1, r4	@, pretmp.2629
	mov	r2, sl	@, fpYuv
	bl	klib_fwrite	@
	cmp	r8, r6	@ disp_chroma_height, i.2747
	add	r0, r7, r9	@ pCbPicAddr, pCbPicAddr, chrom_width
	bhi	.L581	@,
	ldr	r9, [fp, #-48]	@ pVl.2746, %sfp
	mov	sl, r5	@ D.44742, D.44742
.L663:
	add	r6, r9, sl	@ pCrPicAddr, pVl.2746, D.44742
	sub	ip, r8, #1	@ tmp349, disp_chroma_height,
	mov	r1, r4	@, pretmp.2629
	ldr	r2, [fp, #-64]	@, %sfp
	mov	r0, r6	@, pCrPicAddr
	and	r7, ip, #1	@ tmp351, tmp349,
	bl	klib_fwrite	@
	ldr	r1, [fp, #-68]	@, %sfp
	cmp	r8, #1	@ disp_chroma_height,
	add	r5, r6, r1	@ pCrPicAddr, pCrPicAddr,
	mov	r6, #1	@ i.2742,
	bls	.L598	@,
	cmp	r7, #0	@ tmp351,
	beq	.L672	@,
	mov	r0, r5	@, pCrPicAddr
	mov	r1, r4	@, pretmp.2629
	ldr	r2, [fp, #-64]	@, %sfp
	mov	r6, #2	@ i.2742,
	bl	klib_fwrite	@
	ldr	r0, [fp, #-68]	@, %sfp
	cmp	r8, r6	@ disp_chroma_height, i.2742
	add	r5, r5, r0	@ pCrPicAddr, pCrPicAddr,
	bls	.L598	@,
.L672:
	ldr	r9, [fp, #-68]	@ chrom_width, %sfp
	mov	r0, r5	@ pCrPicAddr, pCrPicAddr
	ldr	sl, [fp, #-64]	@ fpYuv, %sfp
.L582:
	add	r7, r0, r9	@ pCrPicAddr, pCrPicAddr, chrom_width
	add	lr, r6, #1	@ tmp352, i.2742,
	mov	r1, r4	@, pretmp.2629
	mov	r2, sl	@, fpYuv
	add	r6, lr, #1	@ i.2742, tmp352,
	bl	klib_fwrite	@
	mov	r0, r7	@, pCrPicAddr
	mov	r1, r4	@, pretmp.2629
	mov	r2, sl	@, fpYuv
	bl	klib_fwrite	@
	cmp	r8, r6	@ disp_chroma_height, i.2742
	add	r0, r7, r9	@ pCrPicAddr, pCrPicAddr, chrom_width
	bhi	.L582	@,
.L598:
	sub	sp, fp, #40
	ldmfd	sp, {r4, r5, r6, r7, r8, r9, sl, fp, sp, pc}
.L563:
	ldr	r2, [fp, #4]	@, Height
	subs	r6, r6, #1	@, PicStructure,
	movne	r6, #1	@
	str	r6, [fp, #-60]	@, %sfp
	cmp	r2, r6	@,
	movwls	r6, #:lower16:.LANCHOR0	@ tmp454,
	movtls	r6, #:upper16:.LANCHOR0	@ tmp454,
	bls	.L583	@,
	ldr	r9, [fp, #-60]	@, %sfp
	movw	r6, #:lower16:.LANCHOR0	@ tmp454,
	movt	r6, #:upper16:.LANCHOR0	@ tmp454,
	mov	sl, r5	@ Yaddress, Yaddress
	str	r9, [fp, #-48]	@, %sfp
	mov	r9, r4	@ Width, Width
.L584:
	cmp	r9, #0	@ Width,
	beq	.L586	@,
	ldr	r2, [fp, #-48]	@, %sfp
	sub	r5, r9, #1	@ tmp393, Width,
	ldr	ip, [fp, #12]	@, Stride
	ubfx	r5, r5, #8, #1	@ tmp394, tmp393,,
	and	r1, r2, #15	@ pretmp.2787,,
	ldr	lr, [r6, #488]	@ pY, pY
	mov	r7, r2, lsr #4	@ pretmp.2780,,
	mov	r8, r2, lsr #1	@ pretmp.2782,,
	mov	r2, #256	@,
	mul	r4, ip, r7	@ tmp296,, pretmp.2780
	mla	r7, r1, r2, r4	@ pretmp.2625, pretmp.2787,, tmp296
	mov	r4, r2	@ j.2755,
	mul	r8, r9, r8	@ pretmp.2781, Width, pretmp.2782
	add	r1, sl, r7	@, Yaddress, pretmp.2625
	add	r0, r8, lr	@, pretmp.2781, pY
	bl	memcpy	@
	cmp	r9, r4	@ Width, j.2755
	bls	.L586	@,
	cmp	r5, #0	@ tmp394,
	beq	.L585	@,
	ldr	lr, [r6, #488]	@ pY, pY
	add	r0, r4, r8	@ tmp534, j.2755, pretmp.2781
	add	ip, r7, #4096	@ tmp539, pretmp.2625,
	mov	r2, r4	@, j.2755
	add	r0, r0, lr	@, tmp534, pY
	add	r1, sl, ip	@, Yaddress, tmp539
	bl	memcpy	@
	mov	r4, #512	@ j.2755,
	cmp	r9, r4	@ Width, j.2755
	bls	.L586	@,
.L585:
	mov	r1, r4, lsr #8	@ tmp287, j.2755,
	ldr	r2, [r6, #488]	@ pY, pY
	add	r5, r4, #256	@ tmp395, j.2755,
	add	lr, r4, r8	@ tmp284, j.2755, pretmp.2781
	add	ip, r7, r1, asl #12	@, tmp289, pretmp.2625, tmp287,
	add	r0, lr, r2	@, tmp284, pY
	add	r1, sl, ip	@, Yaddress, tmp289
	mov	r2, #256	@,
	mov	r4, r5, lsr #8	@ tmp459, tmp395,
	bl	memcpy	@
	ldr	r3, [r6, #488]	@ pY, pY
	add	r0, r5, r8	@ tmp456, tmp395, pretmp.2781
	add	r1, r7, r4, asl #12	@, tmp461, pretmp.2625, tmp459,
	mov	r2, #256	@,
	add	r4, r5, #256	@ j.2755, tmp395,
	add	r0, r0, r3	@, tmp456, pY
	add	r1, sl, r1	@, Yaddress, tmp461
	bl	memcpy	@
	cmp	r9, r4	@ Width, j.2755
	bhi	.L585	@,
.L586:
	ldr	r3, [fp, #-48]	@, %sfp
	ldr	r7, [fp, #4]	@, Height
	add	r0, r3, #2	@,,
	str	r0, [fp, #-48]	@, %sfp
	cmp	r7, r0	@,
	bhi	.L584	@,
	mov	r4, r9	@ Width, Width
.L583:
	ldr	lr, [fp, #4]	@, Height
	ldr	r0, [r6, #488]	@, pY
	ldr	r2, [fp, #-64]	@, %sfp
	mul	r3, r4, lr	@ tmp299, Width,
	mov	r1, r3, lsr #1	@, tmp299,
	bl	klib_fwrite	@
	ldr	r0, [fp, #-56]	@, %sfp
	cmp	r0, #0	@,
	beq	.L587	@,
	ldr	r1, [fp, #12]	@, Stride
	mov	r8, #0	@ ivtmp.2722,
	ldr	sl, [fp, #-76]	@ Caddress, %sfp
	str	r8, [fp, #-48]	@ i.2766, %sfp
	mov	r9, r1, lsr #1	@,,
	str	r9, [fp, #-52]	@, %sfp
	mov	r9, r4	@ Width, Width
.L588:
	cmp	r9, #0	@ Width,
	beq	.L590	@,
	ldr	r7, [fp, #-48]	@, %sfp
	mov	r2, #256	@,
	ldr	ip, [fp, #-52]	@, %sfp
	sub	r5, r9, #1	@ tmp388, Width,
	and	r1, r7, #7	@ pretmp.2797,,
	ldr	r4, [r6, #488]	@ pY, pY
	mov	r0, r7, lsr #3	@ pretmp.2794,,
	ubfx	r5, r5, #8, #1	@ tmp389, tmp388,,
	mul	lr, ip, r0	@ tmp314,, pretmp.2794
	add	r0, r8, r4	@, ivtmp.2722, pY
	mla	r7, r1, r2, lr	@ pretmp.2623, pretmp.2797,, tmp314
	mov	r4, r2	@ j.2765,
	add	r1, sl, r7	@, Caddress, pretmp.2623
	bl	memcpy	@
	cmp	r9, r4	@ Width, j.2765
	bls	.L590	@,
	cmp	r5, #0	@ tmp389,
	beq	.L589	@,
	ldr	r3, [r6, #488]	@ pY, pY
	add	r1, r8, r4	@ tmp527, ivtmp.2722, j.2765
	add	lr, r7, #2048	@ tmp532, pretmp.2623,
	mov	r2, r4	@, j.2765
	add	r0, r1, r3	@, tmp527, pY
	add	r1, sl, lr	@, Caddress, tmp532
	bl	memcpy	@
	mov	r4, #512	@ j.2765,
	cmp	r9, r4	@ Width, j.2765
	bls	.L590	@,
.L589:
	mov	r1, r4, lsr #8	@ tmp305, j.2765,
	ldr	ip, [r6, #488]	@ pY, pY
	add	r5, r4, #256	@ tmp390, j.2765,
	add	r0, r8, r4	@ tmp302, ivtmp.2722, j.2765
	add	lr, r7, r1, asl #11	@, tmp307, pretmp.2623, tmp305,
	add	r0, r0, ip	@, tmp302, pY
	add	r1, sl, lr	@, Caddress, tmp307
	mov	r2, #256	@,
	mov	r4, r5, lsr #8	@ tmp475, tmp390,
	bl	memcpy	@
	ldr	r3, [r6, #488]	@ pY, pY
	add	r2, r8, r5	@ tmp472, ivtmp.2722, tmp390
	add	ip, r7, r4, asl #11	@, tmp477, pretmp.2623, tmp475,
	add	r4, r5, #256	@ j.2765, tmp390,
	add	r0, r2, r3	@, tmp472, pY
	add	r1, sl, ip	@, Caddress, tmp477
	mov	r2, #256	@,
	bl	memcpy	@
	cmp	r9, r4	@ Width, j.2765
	bhi	.L589	@,
.L590:
	ldr	r3, [fp, #-48]	@, %sfp
	add	r8, r8, r9	@ ivtmp.2722, ivtmp.2722, Width
	ldr	r2, [fp, #-56]	@, %sfp
	add	r7, r3, #1	@,,
	str	r7, [fp, #-48]	@, %sfp
	cmp	r2, r7	@,
	bhi	.L588	@,
	mov	r4, r9	@ Width, Width
.L587:
	ldr	r2, [fp, #16]	@, chroma_idc
	ldr	r7, [r6, #488]	@ pY.2767, pY
	cmp	r2, #1	@,
	beq	.L696	@,
	ldr	r4, [fp, #16]	@, chroma_idc
	cmp	r4, #0	@,
	bne	.L592	@,
	ldr	r2, [fp, #-56]	@, %sfp
	ldr	r3, [fp, #-60]	@, %sfp
	cmp	r2, r3	@,
	bls	.L596	@,
	ldr	r1, [fp, #-56]	@, %sfp
	add	r3, r3, #2	@ i.2748,,
	ldr	ip, [fp, #-60]	@, %sfp
	cmp	r1, r3	@, i.2748
	mvn	r0, ip	@ tmp382,
	add	lr, r0, r1	@ tmp383, tmp382,
	ubfx	r2, lr, #1, #1	@ tmp384, tmp383,,
	bls	.L596	@,
	cmp	r2, #0	@ tmp384,
	beq	.L686	@,
	ldr	r2, [fp, #-56]	@, %sfp
	add	r3, r3, #2	@ i.2748, i.2748,
	cmp	r2, r3	@, i.2748
	bls	.L596	@,
.L686:
	ldr	r2, [fp, #-56]	@ chrom_height, %sfp
.L601:
	add	r3, r3, #4	@ i.2748, i.2748,
	cmp	r2, r3	@ chrom_height, i.2748
	bhi	.L601	@,
.L596:
	mov	r1, #128	@,
	mov	r2, #1048576	@,
	ldr	r0, [r6, #492]	@, pVl
	bl	memset	@
	ldr	r0, [r6, #496]	@, pUl
	mov	r1, #128	@,
	mov	r2, #1048576	@,
	bl	memset	@
.L592:
	ldr	r2, [fp, #-68]	@, %sfp
	ldr	r3, [fp, #-56]	@, %sfp
	ldr	r0, [r6, #496]	@, pUl
	mul	r4, r2, r3	@ tmp329,,
	ldr	r2, [fp, #-64]	@, %sfp
	mov	r4, r4, lsr #1	@ D.44777, tmp329,
.L691:
	mov	r1, r4	@, D.44777
	bl	klib_fwrite	@
	ldr	r0, [r6, #492]	@, pVl
	mov	r1, r4	@, D.44777
	ldr	r2, [fp, #-64]	@, %sfp
	bl	klib_fwrite	@
	b	.L598	@
.L692:
	mul	r1, r4, ip	@, Width,
	ldr	r0, [r6, #488]	@, pY
	ldr	r2, [fp, #-64]	@, %sfp
	bl	klib_fwrite	@
	b	.L571	@
.L693:
	ldr	r2, [fp, #-56]	@, %sfp
	cmp	r2, #0	@,
	beq	.L576	@,
	ldr	r5, [fp, #-68]	@ chrom_width, %sfp
	mov	r1, #0	@ ivtmp.2673,
	mov	r9, r1	@ i.2741, ivtmp.2673
	str	r4, [fp, #-48]	@ Width, %sfp
.L577:
	cmp	r5, #0	@ chrom_width,
	beq	.L579	@,
	ldrb	r0, [sl, #0]	@ zero_extendqisi2	@ tmp443,* tmp
	mov	r2, #1	@ j.2740,
	ldr	lr, [r6, #492]	@ pVl, pVl
	cmp	r5, r2	@ chrom_width, j.2740
	sub	r4, r5, #1	@ tmp357, chrom_width,
	add	r3, sl, #2	@ ivtmp.2660, tmp,
	and	r4, r4, r2	@ tmp359, tmp357,
	strb	r0, [lr, r1]	@ tmp443,* ivtmp.2673
	ldr	r0, [r6, #496]	@ pUl, pUl
	ldrb	ip, [sl, #1]	@ zero_extendqisi2	@ tmp445,
	strb	ip, [r0, r1]	@ tmp445,* ivtmp.2673
	bls	.L579	@,
	cmp	r4, #0	@ tmp359,
	beq	.L578	@,
	ldrb	r4, [r3, #0]	@ zero_extendqisi2	@ tmp505,* ivtmp.2660
	add	lr, r1, r2	@ D.44710, ivtmp.2673, j.2740
	ldr	r0, [r6, #492]	@ pVl, pVl
	mov	r2, #2	@ j.2740,
	cmp	r5, r2	@ chrom_width, j.2740
	strb	r4, [r0, lr]	@ tmp505,* D.44710
	ldrb	r4, [r3, #1]	@ zero_extendqisi2	@ tmp507,
	add	r3, r3, r2	@ ivtmp.2660, ivtmp.2660,
	ldr	ip, [r6, #496]	@ pUl, pUl
	strb	r4, [ip, lr]	@ tmp507,* D.44710
	bls	.L579	@,
.L578:
	ldrb	r8, [r3, #0]	@ zero_extendqisi2	@ tmp263,* ivtmp.2660
	add	ip, r1, r2	@ D.44710, ivtmp.2673, j.2740
	ldr	r4, [r6, #492]	@ pVl, pVl
	add	r2, r2, #1	@ tmp360, j.2740,
	add	lr, r1, r2	@ D.44710, ivtmp.2673, tmp360
	add	r0, r3, #2	@ tmp361, ivtmp.2660,
	add	r2, r2, #1	@ j.2740, tmp360,
	strb	r8, [r4, ip]	@ tmp263,* D.44710
	cmp	r5, r2	@ chrom_width, j.2740
	ldrb	r8, [r3, #1]	@ zero_extendqisi2	@ tmp267,
	ldr	r7, [r6, #496]	@ pUl, pUl
	strb	r8, [r7, ip]	@ tmp267,* D.44710
	ldrb	r7, [r3, #2]	@ zero_extendqisi2	@ tmp436,
	add	r3, r0, #2	@ ivtmp.2660, tmp361,
	ldr	r4, [r6, #492]	@ pVl, pVl
	strb	r7, [r4, lr]	@ tmp436,* D.44710
	ldr	r4, [r6, #496]	@ pUl, pUl
	ldrb	ip, [r0, #1]	@ zero_extendqisi2	@ tmp438,
	strb	ip, [r4, lr]	@ tmp438,* D.44710
	bhi	.L578	@,
.L579:
	ldr	r3, [fp, #-56]	@, %sfp
	add	r9, r9, #1	@ i.2741, i.2741,
	add	r1, r1, r5	@ ivtmp.2673, ivtmp.2673, chrom_width
	cmp	r3, r9	@, i.2741
	bls	.L576	@,
	ldr	lr, [fp, #-48]	@, %sfp
	add	sl, sl, lr	@ tmp, tmp,
	b	.L577	@
.L696:
	ldr	r3, [fp, #-56]	@, %sfp
	cmp	r3, #0	@,
	beq	.L592	@,
	ldr	r8, [fp, #-60]	@, %sfp
	mov	sl, r4, asl #1	@ pretmp.2620, Width,
	mla	r7, r4, r8, r7	@ tmp.2768, Width,, pY.2767
	ldr	r4, [fp, #-68]	@ chrom_width, %sfp
	mov	r8, #0	@ i.2775,
.L593:
	cmp	r4, #0	@ chrom_width,
	beq	.L595	@,
	mov	r3, r8, lsr #1	@ pretmp.2786, i.2775,
	ldr	r1, [r6, #492]	@ pVl, pVl
	ldrb	r0, [r7, #0]	@ zero_extendqisi2	@ tmp498,* tmp.2768
	mov	r2, #1	@ j.2774,
	mul	lr, r4, r3	@ pretmp.2783, chrom_width, pretmp.2786
	cmp	r4, r2	@ chrom_width, j.2774
	sub	ip, r4, #1	@ tmp376, chrom_width,
	add	r3, r7, #2	@ ivtmp.2697, tmp.2768,
	and	ip, ip, r2	@ tmp378, tmp376,
	strb	r0, [r1, lr]	@ tmp498,* pretmp.2783
	ldr	r1, [r6, #496]	@ pUl, pUl
	ldrb	r0, [r7, #1]	@ zero_extendqisi2	@ tmp500,
	strb	r0, [r1, lr]	@ tmp500,* pretmp.2783
	bls	.L595	@,
	cmp	ip, #0	@ tmp378,
	beq	.L594	@,
	ldrb	ip, [r3, #0]	@ zero_extendqisi2	@ tmp524,* ivtmp.2697
	add	r1, r2, lr	@ D.44758, j.2774, pretmp.2783
	ldr	r0, [r6, #492]	@ pVl, pVl
	mov	r2, #2	@ j.2774,
	cmp	r4, r2	@ chrom_width, j.2774
	strb	ip, [r0, r1]	@ tmp524,* D.44758
	ldrb	ip, [r3, #1]	@ zero_extendqisi2	@ tmp526,
	add	r3, r3, r2	@ ivtmp.2697, ivtmp.2697,
	ldr	r0, [r6, #496]	@ pUl, pUl
	strb	ip, [r0, r1]	@ tmp526,* D.44758
	bls	.L595	@,
.L594:
	ldrb	r9, [r3, #0]	@ zero_extendqisi2	@ tmp319,* ivtmp.2697
	add	ip, r2, lr	@ D.44758, j.2774, pretmp.2783
	ldr	r5, [r6, #492]	@ pVl, pVl
	add	r2, r2, #1	@ tmp379, j.2774,
	add	r1, r2, lr	@ D.44758, tmp379, pretmp.2783
	add	r0, r3, #2	@ tmp380, ivtmp.2697,
	add	r2, r2, #1	@ j.2774, tmp379,
	strb	r9, [r5, ip]	@ tmp319,* D.44758
	cmp	r4, r2	@ chrom_width, j.2774
	ldrb	r9, [r3, #1]	@ zero_extendqisi2	@ tmp323,
	ldr	r5, [r6, #496]	@ pUl, pUl
	strb	r9, [r5, ip]	@ tmp323,* D.44758
	ldrb	r5, [r3, #2]	@ zero_extendqisi2	@ tmp491,
	add	r3, r0, #2	@ ivtmp.2697, tmp380,
	ldr	ip, [r6, #492]	@ pVl, pVl
	strb	r5, [ip, r1]	@ tmp491,* D.44758
	ldr	ip, [r6, #496]	@ pUl, pUl
	ldrb	r0, [r0, #1]	@ zero_extendqisi2	@ tmp493,
	strb	r0, [ip, r1]	@ tmp493,* D.44758
	bhi	.L594	@,
.L595:
	ldr	lr, [fp, #-56]	@, %sfp
	add	r8, r8, #2	@ i.2775, i.2775,
	cmp	lr, r8	@, i.2775
	bls	.L592	@,
	add	r7, r7, sl	@ tmp.2768, tmp.2768, pretmp.2620
	b	.L593	@
.L694:
	mov	r1, #128	@,
	mov	r2, #1048576	@,
	ldr	r0, [r5, #492]	@, pVl
	bl	memset	@
	ldr	r0, [r5, #496]	@, pUl
	mov	r1, #128	@,
	mov	r2, #1048576	@,
	bl	memset	@
	b	.L576	@
.L695:
	ldr	r3, [fp, #-68]	@, %sfp
	ldr	ip, [fp, #-56]	@, %sfp
	ldr	r2, [fp, #-64]	@, %sfp
	ldr	r0, [r6, #496]	@, pUl
	mul	r4, r3, ip	@ D.44737,,
	b	.L691	@
	.fnend
	.size	DBG_WriteBigTileYuv, .-DBG_WriteBigTileYuv
	.align	2
	.global	VCTRL_GetDecParam
	.type	VCTRL_GetDecParam, %function
VCTRL_GetDecParam:
	.fnstart
.LFB1587:
	@ args = 0, pretend = 0, frame = 0
	@ frame_needed = 1, uses_anonymous_args = 0
	.movsp ip
	mov	ip, sp	@,
	stmfd	sp!, {r4, r5, fp, ip, lr, pc}	@,
	.pad #4
	.save {r4, r5, fp, ip, lr}
	.setfp fp, ip, #-4
	sub	fp, ip, #4	@,,
	push	{lr}
	bl	__gnu_mcount_nc
	cmp	r0, #15	@ ChanId,
	bhi	.L698	@,
	movw	r2, #:lower16:.LANCHOR0	@ tmp159,
	movt	r2, #:upper16:.LANCHOR0	@ tmp159,
	ldr	r5, [r2, r0, asl #2]	@ D.41036, s_pstVfmwChan
	cmp	r5, #0	@ D.41036,
	beq	.L698	@,
	ldr	r3, [r5, #12]	@ <variable>.s32IsOpen, <variable>.s32IsOpen
	cmp	r3, #1	@ <variable>.s32IsOpen,
	beq	.L719	@,
.L701:
	mov	r4, #0	@ pDecParam,
.L700:
	mov	r0, r4	@, pDecParam
	ldmfd	sp, {r4, r5, fp, sp, pc}	@
.L698:
	mov	r3, r0	@, ChanId
	movw	r2, #4403	@,
	mov	r4, #0	@ pDecParam,
	mov	r0, #22	@,
	movw	r1, #:lower16:.LC55	@,
	movt	r1, #:upper16:.LC55	@,
	bl	dprint_vfmw	@
	mov	r0, r4	@, pDecParam
	ldmfd	sp, {r4, r5, fp, sp, pc}	@
.L719:
	ldr	r0, [r5, #16]	@ <variable>.s32IsRun, <variable>.s32IsRun
	cmp	r0, #1	@ <variable>.s32IsRun,
	bne	.L701	@,
	ldr	r1, [r5, #1032]	@ <variable>.eVidStd, <variable>.eVidStd
	cmp	r1, #16	@ <variable>.eVidStd,
	ldrls	pc, [pc, r1, asl #2]	@ <variable>.eVidStd
	b	.L701	@
.L715:
	.word	.L703
	.word	.L718
	.word	.L705
	.word	.L718
	.word	.L701
	.word	.L718
	.word	.L718
	.word	.L701
	.word	.L718
	.word	.L718
	.word	.L711
	.word	.L711
	.word	.L711
	.word	.L718
	.word	.L701
	.word	.L713
	.word	.L714
.L711:
	ldr	r4, [r2, #500]	@ g_VdmCharacter, g_VdmCharacter
	tst	r4, #1	@ g_VdmCharacter,
	beq	.L701	@,
.L718:
	movw	r0, #:lower16:251500	@ tmp156,
	movt	r0, #:upper16:251500	@ tmp156,
	ldr	r4, [r5, r0]	@ pDecParam,
.L716:
	cmp	r4, #0	@ pDecParam,
	beq	.L700	@,
	bl	OSAL_GetTimeInMs	@
	str	r0, [r5, #44]	@, <variable>.u32timeLastDecParamReady
	b	.L700	@
.L703:
	movw	r2, #:lower16:251856	@ tmp143,
	movt	r2, #:upper16:251856	@ tmp143,
	ldr	r4, [r5, r2]	@ pDecParam,
	b	.L716	@
.L714:
	movw	ip, #:lower16:2211688	@ tmp144,
	movt	ip, #:upper16:2211688	@ tmp144,
	ldr	r4, [r5, ip]	@ pDecParam,
	b	.L716	@
.L713:
	movw	r1, #:lower16:251724	@ tmp157,
	movt	r1, #:upper16:251724	@ tmp157,
	ldr	r4, [r5, r1]	@ pDecParam,
	b	.L716	@
.L705:
	movw	r3, #:lower16:252532	@ tmp146,
	movt	r3, #:upper16:252532	@ tmp146,
	ldr	r4, [r5, r3]	@ pDecParam,
	b	.L716	@
	.fnend
	.size	VCTRL_GetDecParam, .-VCTRL_GetDecParam
	.align	2
	.global	VCTRL_ChanDecparamInValidFlag
	.type	VCTRL_ChanDecparamInValidFlag, %function
VCTRL_ChanDecparamInValidFlag:
	.fnstart
.LFB1588:
	@ args = 0, pretend = 0, frame = 8
	@ frame_needed = 1, uses_anonymous_args = 0
	.movsp ip
	mov	ip, sp	@,
	stmfd	sp!, {r4, r5, r6, r7, fp, ip, lr, pc}	@,
	.pad #4
	.save {r4, r5, r6, r7, fp, ip, lr}
	.setfp fp, ip, #-4
	sub	fp, ip, #4	@,,
	.pad #8
	sub	sp, sp, #8	@,,
	push	{lr}
	bl	__gnu_mcount_nc
	cmp	r0, #15	@ ChanId,
	mov	r2, r0	@ ChanId, ChanId
	bhi	.L721	@,
	movw	r4, #:lower16:.LANCHOR0	@ tmp144,
	movt	r4, #:upper16:.LANCHOR0	@ tmp144,
	ldr	r3, [r4, r0, asl #2]	@ D.41063, s_pstVfmwChan
	cmp	r3, #0	@ D.41063,
	beq	.L721	@,
	ldr	r1, [r3, #12]	@ <variable>.s32IsOpen, <variable>.s32IsOpen
	cmp	r1, #1	@ <variable>.s32IsOpen,
	bne	.L724	@,
	ldr	r5, [r3, #16]	@ <variable>.s32IsRun, <variable>.s32IsRun
	cmp	r5, #1	@ <variable>.s32IsRun,
	beq	.L725	@,
.L724:
	mov	r0, #22	@,
	movw	r1, #:lower16:.LC56	@,
	movt	r1, #:upper16:.LC56	@,
	bl	dprint_vfmw	@
	mov	r3, #0	@ D.41065,
.L723:
	mov	r0, r3	@, D.41065
	sub	sp, fp, #28
	ldmfd	sp, {r4, r5, r6, r7, fp, sp, pc}
.L721:
	mov	r3, r2	@, ChanId
	mov	r0, #22	@,
	movw	r1, #:lower16:.LC55	@,
	movw	r2, #4513	@,
	movt	r1, #:upper16:.LC55	@,
	bl	dprint_vfmw	@
	mov	r3, #0	@ D.41065,
	b	.L723	@
.L725:
	str	r0, [fp, #-32]	@ tmp2,
	bl	VCTRL_GetDecParam	@
	ldr	r2, [fp, #-32]	@,
	subs	r6, r0, #0	@ pDecParam,
	beq	.L731	@,
	ldr	r0, [r4, r2, asl #2]	@ tmp154, s_pstVfmwChan
	mov	ip, #0	@ tmp155,
	mov	r3, ip	@ D.41065, tmp155
	str	ip, [r0, #828]	@ tmp155, <variable>.s32CountNoDecparamFlag
	ldr	r2, [r4, r2, asl #2]	@ tmp157, s_pstVfmwChan
	str	ip, [r2, #832]	@ tmp155, <variable>.u32NoDecparamStartTime
	b	.L723	@
.L731:
	ldr	r3, [r4, r2, asl #2]	@ temp.2844, s_pstVfmwChan
	ldr	r7, [r3, #828]	@ <variable>.s32CountNoDecparamFlag, <variable>.s32CountNoDecparamFlag
	cmp	r7, #0	@ <variable>.s32CountNoDecparamFlag,
	beq	.L732	@,
	str	r2, [fp, #-32]	@,
	bl	OSAL_GetTimeInMs	@
	ldr	r2, [fp, #-32]	@,
	ldr	r3, [r4, r2, asl #2]	@ temp.2848, s_pstVfmwChan
	ldr	r1, [r3, #832]	@ D.41086, <variable>.u32NoDecparamStartTime
	cmp	r0, r1	@ tmp, D.41086
	bls	.L728	@,
	rsb	lr, r1, r0	@ tmp160, D.41086, tmp
	cmp	lr, #40	@ tmp160,
	movls	r3, r6	@ D.41065, pDecParam
	bls	.L723	@,
.L728:
	str	r6, [r3, #828]	@ pDecParam, <variable>.s32CountNoDecparamFlag
	mov	r3, r5	@ D.41065, <variable>.s32IsRun
	ldr	r1, [r4, r2, asl #2]	@ tmp167, s_pstVfmwChan
	str	r6, [r1, #832]	@ pDecParam, <variable>.u32NoDecparamStartTime
	b	.L723	@
.L732:
	str	r5, [r3, #828]	@ <variable>.s32IsRun, <variable>.s32CountNoDecparamFlag
	ldr	r4, [r4, r2, asl #2]	@ temp.2845, s_pstVfmwChan
	bl	OSAL_GetTimeInMs	@
	mov	r3, r7	@ D.41065, <variable>.s32CountNoDecparamFlag
	str	r0, [r4, #832]	@, <variable>.u32NoDecparamStartTime
	b	.L723	@
	.fnend
	.size	VCTRL_ChanDecparamInValidFlag, .-VCTRL_ChanDecparamInValidFlag
	.align	2
	.global	VCTRL_StartTask
	.type	VCTRL_StartTask, %function
VCTRL_StartTask:
	.fnstart
.LFB1548:
	@ args = 0, pretend = 0, frame = 0
	@ frame_needed = 1, uses_anonymous_args = 0
	.movsp ip
	mov	ip, sp	@,
	stmfd	sp!, {r4, r5, fp, ip, lr, pc}	@,
	.pad #4
	.save {r4, r5, fp, ip, lr}
	.setfp fp, ip, #-4
	sub	fp, ip, #4	@,,
	push	{lr}
	bl	__gnu_mcount_nc
	movw	r4, #:lower16:.LANCHOR0	@ tmp145,
	movt	r4, #:upper16:.LANCHOR0	@ tmp145,
	ldr	r3, [r4, #104]	@ s_VfmwCTrl.s32IsVCTRLOpen, s_VfmwCTrl.s32IsVCTRLOpen
	cmp	r3, #1	@ s_VfmwCTrl.s32IsVCTRLOpen,
	mvnne	r0, #0	@ ret,
	ldmnefd	sp, {r4, r5, fp, sp, pc}	@
	mov	r5, #0	@ i,
	str	r3, [r4, #144]	@ s_VfmwCTrl.s32IsVCTRLOpen, s_VfmwCTrl.eTaskCommand
	b	.L738	@
.L736:
	bl	msleep	@
	ldr	r1, [r4, #140]	@ s_VfmwCTrl.eTaskState, s_VfmwCTrl.eTaskState
	mov	r0, #10	@,
	cmp	r1, #2	@ s_VfmwCTrl.eTaskState,
	beq	.L743	@,
	bl	msleep	@
	cmp	r5, #50	@ i,
	beq	.L745	@,
.L738:
	ldr	r3, [r4, #140]	@ s_VfmwCTrl.eTaskState, s_VfmwCTrl.eTaskState
	add	r5, r5, #1	@ tmp147, i,
	mov	r0, #10	@,
	add	r5, r5, #1	@ i, tmp147,
	cmp	r3, #2	@ s_VfmwCTrl.eTaskState,
	bne	.L736	@,
.L743:
	mov	r2, #0	@ tmp143,
	mov	r0, #0	@ ret,
	str	r2, [r4, #144]	@ tmp143, s_VfmwCTrl.eTaskCommand
	ldmfd	sp, {r4, r5, fp, sp, pc}	@
.L745:
	mov	r2, #0	@ tmp143,
	mvn	r0, #0	@ ret,
	str	r2, [r4, #144]	@ tmp143, s_VfmwCTrl.eTaskCommand
	ldmfd	sp, {r4, r5, fp, sp, pc}	@
	.fnend
	.size	VCTRL_StartTask, .-VCTRL_StartTask
	.align	2
	.global	VCTRL_StopTask
	.type	VCTRL_StopTask, %function
VCTRL_StopTask:
	.fnstart
.LFB1547:
	@ args = 0, pretend = 0, frame = 0
	@ frame_needed = 1, uses_anonymous_args = 0
	.movsp ip
	mov	ip, sp	@,
	stmfd	sp!, {r4, r5, fp, ip, lr, pc}	@,
	.pad #4
	.save {r4, r5, fp, ip, lr}
	.setfp fp, ip, #-4
	sub	fp, ip, #4	@,,
	push	{lr}
	bl	__gnu_mcount_nc
	movw	r4, #:lower16:.LANCHOR0	@ tmp145,
	movt	r4, #:upper16:.LANCHOR0	@ tmp145,
	ldr	r3, [r4, #104]	@ s_VfmwCTrl.s32IsVCTRLOpen, s_VfmwCTrl.s32IsVCTRLOpen
	cmp	r3, #1	@ s_VfmwCTrl.s32IsVCTRLOpen,
	mvnne	r0, #0	@ ret,
	ldmnefd	sp, {r4, r5, fp, sp, pc}	@
	mov	r0, #2	@ tmp139,
	mov	r5, #0	@ i,
	str	r0, [r4, #144]	@ tmp139, s_VfmwCTrl.eTaskCommand
	b	.L751	@
.L749:
	bl	msleep	@
	ldr	r2, [r4, #140]	@ s_VfmwCTrl.eTaskState, s_VfmwCTrl.eTaskState
	mov	r0, #10	@,
	cmp	r2, #1	@ s_VfmwCTrl.eTaskState,
	beq	.L756	@,
	bl	msleep	@
	cmp	r5, #50	@ i,
	beq	.L758	@,
.L751:
	ldr	r1, [r4, #140]	@ s_VfmwCTrl.eTaskState, s_VfmwCTrl.eTaskState
	add	r5, r5, #1	@ tmp147, i,
	mov	r0, #10	@,
	add	r5, r5, #1	@ i, tmp147,
	cmp	r1, #1	@ s_VfmwCTrl.eTaskState,
	bne	.L749	@,
.L756:
	mov	ip, #0	@ tmp143,
	mov	r0, #0	@ ret,
	str	ip, [r4, #144]	@ tmp143, s_VfmwCTrl.eTaskCommand
	ldmfd	sp, {r4, r5, fp, sp, pc}	@
.L758:
	mov	ip, #0	@ tmp143,
	mvn	r0, #0	@ ret,
	str	ip, [r4, #144]	@ tmp143, s_VfmwCTrl.eTaskCommand
	ldmfd	sp, {r4, r5, fp, sp, pc}	@
	.fnend
	.size	VCTRL_StopTask, .-VCTRL_StopTask
	.align	2
	.global	VCTRT_SetChanCtrlState
	.type	VCTRT_SetChanCtrlState, %function
VCTRT_SetChanCtrlState:
	.fnstart
.LFB1662:
	@ args = 0, pretend = 0, frame = 0
	@ frame_needed = 1, uses_anonymous_args = 0
	.movsp ip
	mov	ip, sp	@,
	stmfd	sp!, {r3, r4, r5, r6, fp, ip, lr, pc}	@,
	.pad #4
	.save {r3, r4, r5, r6, fp, ip, lr}
	.setfp fp, ip, #-4
	sub	fp, ip, #4	@,,
	push	{lr}
	bl	__gnu_mcount_nc
	movw	r4, #:lower16:.LANCHOR0	@ tmp137,
	movt	r4, #:upper16:.LANCHOR0	@ tmp137,
	mov	r5, r0	@ ChanID, ChanID
	add	r0, r4, #504	@, tmp137,
	mov	r6, r1	@ ChanCtrlState, ChanCtrlState
	bl	OSAL_SpinLockIRQ	@
	cmp	r6, #1	@ ChanCtrlState,
	beq	.L762	@,
	bcs	.L768	@,
	mov	r3, #0	@ tmp144,
	add	r4, r4, r5, asl #2	@, tmp142, tmp137, ChanID,
	mov	r6, r3	@ ret, tmp144
	str	r3, [r4, #516]	@ tmp144, s_ChanControlState
.L764:
	ldr	r0, .L770	@,
	bl	OSAL_SpinUnLockIRQ	@
	mov	r0, r6	@, ret
	ldmfd	sp, {r3, r4, r5, r6, fp, sp, pc}	@
.L768:
	cmp	r6, #2	@ ChanCtrlState,
	beq	.L763	@,
	mov	r6, #0	@ ret,
.L769:
	ldr	r0, .L770	@,
	bl	OSAL_SpinUnLockIRQ	@
	mov	r0, r6	@, ret
	ldmfd	sp, {r3, r4, r5, r6, fp, sp, pc}	@
.L763:
	add	r4, r4, r5, asl #2	@, tmp160, tmp137, ChanID,
	ldr	r1, [r4, #516]	@ tmp162, s_ChanControlState
	cmp	r1, #1	@ tmp162,
	beq	.L765	@,
	str	r6, [r4, #516]	@ ChanCtrlState, s_ChanControlState
	mov	r6, #0	@ ret,
	b	.L769	@
.L762:
	add	r4, r4, r5, asl #2	@, tmp148, tmp137, ChanID,
	ldr	r0, [r4, #516]	@ tmp150, s_ChanControlState
	cmp	r0, #0	@ tmp150,
	streq	r6, [r4, #516]	@ ChanCtrlState, s_ChanControlState
	moveq	r6, r0	@ ret, tmp150
	beq	.L764	@,
.L765:
	mvn	r6, #0	@ ret,
	ldr	r0, .L770	@,
	bl	OSAL_SpinUnLockIRQ	@
	mov	r0, r6	@, ret
	ldmfd	sp, {r3, r4, r5, r6, fp, sp, pc}	@
.L771:
	.align	2
.L770:
	.word	.LANCHOR0+504
	.fnend
	.size	VCTRT_SetChanCtrlState, .-VCTRT_SetChanCtrlState
	.align	2
	.global	vfmw_proc_destroy
	.type	vfmw_proc_destroy, %function
vfmw_proc_destroy:
	.fnstart
.LFB1654:
	@ args = 0, pretend = 0, frame = 0
	@ frame_needed = 1, uses_anonymous_args = 0
	.movsp ip
	mov	ip, sp	@,
	stmfd	sp!, {r4, r5, r6, r7, fp, ip, lr, pc}	@,
	.pad #4
	.save {r4, r5, r6, r7, fp, ip, lr}
	.setfp fp, ip, #-4
	sub	fp, ip, #4	@,,
	push	{lr}
	bl	__gnu_mcount_nc
	ldr	r4, .L782	@ ivtmp.2965,
	mov	r5, r0	@ proc_name, proc_name
	add	r7, r4, #768	@ D.47158, ivtmp.2965,
	b	.L775	@
.L773:
	add	r4, r4, #24	@ ivtmp.2965, ivtmp.2965,
	mov	r1, r4	@, ivtmp.2965
	bl	strncmp	@
	subs	r6, r0, #0	@ tmp143,
	beq	.L780	@,
	add	r4, r4, #24	@ ivtmp.2965, ivtmp.2965,
	cmp	r4, r7	@ ivtmp.2965, D.47158
	beq	.L781	@,
.L775:
	mov	r2, #16	@,
	mov	r1, r4	@, ivtmp.2965
	mov	r0, r5	@, proc_name
	bl	strncmp	@
	mov	r2, #16	@,
	subs	r6, r0, #0	@ tmp143,
	mov	r0, r5	@, proc_name
	bne	.L773	@,
.L780:
	mov	r0, r5	@, proc_name
	mov	r1, r6	@, tmp143
	bl	remove_proc_entry	@
	mov	r0, r4	@, ivtmp.2965
	mov	r1, #16	@,
	bl	__memzero	@
	str	r6, [r4, #20]	@ tmp143, <variable>.write
	str	r6, [r4, #16]	@ tmp143, <variable>.read
	ldmfd	sp, {r4, r5, r6, r7, fp, sp, pc}	@
.L781:
	ldmfd	sp, {r4, r5, r6, r7, fp, sp, pc}	@
.L783:
	.align	2
.L782:
	.word	.LANCHOR0+580
	.fnend
	.size	vfmw_proc_destroy, .-vfmw_proc_destroy
	.align	2
	.global	vfmw_proc_exit
	.type	vfmw_proc_exit, %function
vfmw_proc_exit:
	.fnstart
.LFB1656:
	@ args = 0, pretend = 0, frame = 16
	@ frame_needed = 1, uses_anonymous_args = 0
	.movsp ip
	mov	ip, sp	@,
	stmfd	sp!, {r4, r5, r6, fp, ip, lr, pc}	@,
	.pad #4
	.save {r4, r5, r6, fp, ip, lr}
	.setfp fp, ip, #-4
	sub	fp, ip, #4	@,,
	.pad #20
	sub	sp, sp, #20	@,,
	push	{lr}
	bl	__gnu_mcount_nc
	movw	r5, #:lower16:.LC57	@ tmp134,
	sub	r4, fp, #44	@ tmp133,,
	movt	r5, #:upper16:.LC57	@ tmp134,
	mov	r3, #0	@,
	mov	r1, #16	@,
	mov	r2, r5	@, tmp134
	mov	r0, r4	@, tmp133
	mov	r6, r3	@ tmp135,
	bl	snprintf	@
	mov	r0, r4	@, tmp133
	strb	r6, [fp, #-29]	@ tmp135, name
	bl	vfmw_proc_destroy	@
	mov	r2, r5	@, tmp134
	mov	r1, #16	@,
	mov	r3, #1	@,
	mov	r0, r4	@, tmp133
	bl	snprintf	@
	mov	r0, r4	@, tmp133
	strb	r6, [fp, #-29]	@ tmp135, name
	bl	vfmw_proc_destroy	@
	mov	r2, r5	@, tmp134
	mov	r1, #16	@,
	mov	r3, #2	@,
	mov	r0, r4	@, tmp133
	bl	snprintf	@
	mov	r0, r4	@, tmp133
	strb	r6, [fp, #-29]	@ tmp135, name
	bl	vfmw_proc_destroy	@
	mov	r2, r5	@, tmp134
	mov	r1, #16	@,
	mov	r3, #3	@,
	mov	r0, r4	@, tmp133
	bl	snprintf	@
	mov	r0, r4	@, tmp133
	strb	r6, [fp, #-29]	@ tmp135, name
	bl	vfmw_proc_destroy	@
	mov	r2, r5	@, tmp134
	mov	r1, #16	@,
	mov	r3, #4	@,
	mov	r0, r4	@, tmp133
	bl	snprintf	@
	mov	r0, r4	@, tmp133
	strb	r6, [fp, #-29]	@ tmp135, name
	bl	vfmw_proc_destroy	@
	mov	r2, r5	@, tmp134
	mov	r1, #16	@,
	mov	r3, #5	@,
	mov	r0, r4	@, tmp133
	bl	snprintf	@
	mov	r0, r4	@, tmp133
	strb	r6, [fp, #-29]	@ tmp135, name
	bl	vfmw_proc_destroy	@
	mov	r2, r5	@, tmp134
	mov	r1, #16	@,
	mov	r3, #6	@,
	mov	r0, r4	@, tmp133
	bl	snprintf	@
	mov	r0, r4	@, tmp133
	strb	r6, [fp, #-29]	@ tmp135, name
	bl	vfmw_proc_destroy	@
	mov	r2, r5	@, tmp134
	mov	r1, #16	@,
	mov	r3, #7	@,
	mov	r0, r4	@, tmp133
	bl	snprintf	@
	mov	r0, r4	@, tmp133
	strb	r6, [fp, #-29]	@ tmp135, name
	bl	vfmw_proc_destroy	@
	mov	r2, r5	@, tmp134
	mov	r1, #16	@,
	mov	r3, #8	@,
	mov	r0, r4	@, tmp133
	bl	snprintf	@
	mov	r0, r4	@, tmp133
	strb	r6, [fp, #-29]	@ tmp135, name
	bl	vfmw_proc_destroy	@
	mov	r2, r5	@, tmp134
	mov	r1, #16	@,
	mov	r3, #9	@,
	mov	r0, r4	@, tmp133
	bl	snprintf	@
	mov	r0, r4	@, tmp133
	strb	r6, [fp, #-29]	@ tmp135, name
	bl	vfmw_proc_destroy	@
	mov	r2, r5	@, tmp134
	mov	r1, #16	@,
	mov	r3, #10	@,
	mov	r0, r4	@, tmp133
	bl	snprintf	@
	mov	r0, r4	@, tmp133
	strb	r6, [fp, #-29]	@ tmp135, name
	bl	vfmw_proc_destroy	@
	mov	r2, r5	@, tmp134
	mov	r1, #16	@,
	mov	r3, #11	@,
	mov	r0, r4	@, tmp133
	bl	snprintf	@
	mov	r0, r4	@, tmp133
	strb	r6, [fp, #-29]	@ tmp135, name
	bl	vfmw_proc_destroy	@
	mov	r2, r5	@, tmp134
	mov	r1, #16	@,
	mov	r3, #12	@,
	mov	r0, r4	@, tmp133
	bl	snprintf	@
	mov	r0, r4	@, tmp133
	strb	r6, [fp, #-29]	@ tmp135, name
	bl	vfmw_proc_destroy	@
	mov	r2, r5	@, tmp134
	mov	r1, #16	@,
	mov	r3, #13	@,
	mov	r0, r4	@, tmp133
	bl	snprintf	@
	mov	r0, r4	@, tmp133
	strb	r6, [fp, #-29]	@ tmp135, name
	bl	vfmw_proc_destroy	@
	mov	r2, r5	@, tmp134
	mov	r1, #16	@,
	mov	r3, #14	@,
	mov	r0, r4	@, tmp133
	bl	snprintf	@
	mov	r0, r4	@, tmp133
	strb	r6, [fp, #-29]	@ tmp135, name
	bl	vfmw_proc_destroy	@
	mov	r2, r5	@, tmp134
	mov	r1, #16	@,
	mov	r3, #15	@,
	mov	r0, r4	@, tmp133
	bl	snprintf	@
	mov	r0, r4	@, tmp133
	strb	r6, [fp, #-29]	@ tmp135, name
	bl	vfmw_proc_destroy	@
	movw	r0, #:lower16:.LC58	@,
	movt	r0, #:upper16:.LC58	@,
	bl	vfmw_proc_destroy	@
	movw	r0, #:lower16:.LC59	@,
	movt	r0, #:upper16:.LC59	@,
	bl	vfmw_proc_destroy	@
	movw	r0, #:lower16:.LC60	@,
	movt	r0, #:upper16:.LC60	@,
	bl	vfmw_proc_destroy	@
	movw	r0, #:lower16:.LC61	@,
	movt	r0, #:upper16:.LC61	@,
	bl	vfmw_proc_destroy	@
	movw	r0, #:lower16:.LC62	@,
	movt	r0, #:upper16:.LC62	@,
	bl	vfmw_proc_destroy	@
	movw	r0, #:lower16:.LC63	@,
	movt	r0, #:upper16:.LC63	@,
	bl	vfmw_proc_destroy	@
	movw	r0, #:lower16:.LC64	@,
	movt	r0, #:upper16:.LC64	@,
	bl	vfmw_proc_destroy	@
	sub	sp, fp, #24
	ldmfd	sp, {r4, r5, r6, fp, sp, pc}
	.fnend
	.size	vfmw_proc_exit, .-vfmw_proc_exit
	.align	2
	.global	ChanCtx_Init
	.type	ChanCtx_Init, %function
ChanCtx_Init:
	.fnstart
.LFB1532:
	@ args = 0, pretend = 0, frame = 0
	@ frame_needed = 1, uses_anonymous_args = 0
	.movsp ip
	mov	ip, sp	@,
	stmfd	sp!, {r3, r4, fp, ip, lr, pc}	@,
	.pad #4
	.save {r3, r4, fp, ip, lr}
	.setfp fp, ip, #-4
	sub	fp, ip, #4	@,,
	push	{lr}
	bl	__gnu_mcount_nc
	movw	r4, #:lower16:g_ChanCtx	@ tmp133,
	movt	r4, #:upper16:g_ChanCtx	@ tmp133,
	mov	r1, #192	@,
	mov	r0, r4	@, tmp133
	bl	__memzero	@
	mvn	r3, #0	@ tmp135,
	str	r3, [r4, #124]	@ tmp135, g_ChanCtx.ChanIdTabByPrior
	str	r3, [r4, #64]	@ tmp135, g_ChanCtx.ChanIdTabByPrior
	str	r3, [r4, #68]	@ tmp135, g_ChanCtx.ChanIdTabByPrior
	str	r3, [r4, #72]	@ tmp135, g_ChanCtx.ChanIdTabByPrior
	str	r3, [r4, #76]	@ tmp135, g_ChanCtx.ChanIdTabByPrior
	str	r3, [r4, #80]	@ tmp135, g_ChanCtx.ChanIdTabByPrior
	str	r3, [r4, #84]	@ tmp135, g_ChanCtx.ChanIdTabByPrior
	str	r3, [r4, #88]	@ tmp135, g_ChanCtx.ChanIdTabByPrior
	str	r3, [r4, #92]	@ tmp135, g_ChanCtx.ChanIdTabByPrior
	str	r3, [r4, #96]	@ tmp135, g_ChanCtx.ChanIdTabByPrior
	str	r3, [r4, #100]	@ tmp135, g_ChanCtx.ChanIdTabByPrior
	str	r3, [r4, #104]	@ tmp135, g_ChanCtx.ChanIdTabByPrior
	str	r3, [r4, #108]	@ tmp135, g_ChanCtx.ChanIdTabByPrior
	str	r3, [r4, #112]	@ tmp135, g_ChanCtx.ChanIdTabByPrior
	str	r3, [r4, #116]	@ tmp135, g_ChanCtx.ChanIdTabByPrior
	str	r3, [r4, #120]	@ tmp135, g_ChanCtx.ChanIdTabByPrior
	ldmfd	sp, {r3, r4, fp, sp, pc}	@
	.fnend
	.size	ChanCtx_Init, .-ChanCtx_Init
	.align	2
	.global	VCTRL_UnRegisterSoftDecoder
	.type	VCTRL_UnRegisterSoftDecoder, %function
VCTRL_UnRegisterSoftDecoder:
	.fnstart
.LFB1529:
	@ args = 0, pretend = 0, frame = 0
	@ frame_needed = 1, uses_anonymous_args = 0
	.movsp ip
	mov	ip, sp	@,
	stmfd	sp!, {fp, ip, lr, pc}	@,
	.pad #4
	.save {fp, ip, lr}
	.setfp fp, ip, #-4
	sub	fp, ip, #4	@,,
	push	{lr}
	bl	__gnu_mcount_nc
	ldr	r0, .L790	@,
	mov	r1, #28	@,
	bl	__memzero	@
	ldmfd	sp, {fp, sp, pc}	@
.L791:
	.align	2
.L790:
	.word	.LANCHOR0+76
	.fnend
	.size	VCTRL_UnRegisterSoftDecoder, .-VCTRL_UnRegisterSoftDecoder
	.align	2
	.global	vfmw_proc_create
	.type	vfmw_proc_create, %function
vfmw_proc_create:
	.fnstart
.LFB1653:
	@ args = 0, pretend = 0, frame = 0
	@ frame_needed = 1, uses_anonymous_args = 0
	.movsp ip
	mov	ip, sp	@,
	stmfd	sp!, {r4, r5, r6, r7, r8, sl, fp, ip, lr, pc}	@,
	.pad #4
	.save {r4, r5, r6, r7, r8, sl, fp, ip, lr}
	.setfp fp, ip, #-4
	sub	fp, ip, #4	@,,
	.pad #8
	sub	sp, sp, #8	@,,
	push	{lr}
	bl	__gnu_mcount_nc
	ldr	r3, .L807	@ tmp187,
	mov	sl, r2	@ write, write
	mov	r7, r0	@ proc_name, proc_name
	mov	r8, r1	@ read, read
	mov	r5, #0	@ i,
	mov	r2, r3	@ ivtmp.3072, tmp187
	b	.L796	@
.L793:
	ldr	r2, [r1, #16]	@ <variable>.read, <variable>.read
	add	r5, r5, #1	@ i, i,
	cmp	r2, #0	@ <variable>.read,
	mov	r2, r5	@ tmp189, i
	beq	.L805	@,
.L800:
	add	r5, r2, #1	@ i, tmp189,
	add	r2, r1, #24	@ ivtmp.3072, tmp190,
	cmp	r5, #32	@ i,
	beq	.L794	@,
.L796:
	ldr	r0, [r2, #16]	@ <variable>.read, <variable>.read
	add	r1, r2, #24	@ tmp190, ivtmp.3072,
	cmp	r0, #0	@ <variable>.read,
	bne	.L793	@,
	ldr	r6, [r2, #20]	@ <variable>.write, <variable>.write
	cmp	r6, #0	@ <variable>.write,
	bne	.L793	@,
.L804:
	add	r4, r5, r5, asl #1	@, tmp180, i, i,
	mov	r1, r7	@, proc_name
	mov	r2, #16	@,
	add	r4, r3, r4, asl #3	@, proc, tmp187, tmp180,
	mov	r0, r4	@, proc
	bl	strncpy	@
	cmp	r5, #31	@ i,
	strb	r6, [r4, #15]	@ <variable>.write, <variable>.proc_name
	str	r8, [r4, #16]	@ read, <variable>.read
	str	sl, [r4, #20]	@ write, <variable>.write
	bls	.L806	@,
.L794:
	mvn	r0, #0	@ D.44162,
.L797:
	sub	sp, fp, #36
	ldmfd	sp, {r4, r5, r6, r7, r8, sl, fp, sp, pc}
.L805:
	ldr	r6, [r1, #20]	@ <variable>.write, <variable>.write
	cmp	r6, #0	@ <variable>.write,
	bne	.L800	@,
	b	.L804	@
.L806:
	mov	r0, r7	@, proc_name
	mov	r1, #420	@,
	mov	r2, #0	@,
	ldr	r3, .L807+4	@,
	str	r4, [sp, #0]	@ proc,
	bl	proc_create_data	@
	cmp	r0, #0	@,
	movne	r0, #0	@ D.44162,
	bne	.L797	@,
	b	.L794	@
.L808:
	.align	2
.L807:
	.word	.LANCHOR0+580
	.word	.LANCHOR1+80
	.fnend
	.size	vfmw_proc_create, .-vfmw_proc_create
	.align	2
	.global	vfmw_proc_init
	.type	vfmw_proc_init, %function
vfmw_proc_init:
	.fnstart
.LFB1655:
	@ args = 0, pretend = 0, frame = 16
	@ frame_needed = 1, uses_anonymous_args = 0
	.movsp ip
	mov	ip, sp	@,
	stmfd	sp!, {r4, r5, fp, ip, lr, pc}	@,
	.pad #4
	.save {r4, r5, fp, ip, lr}
	.setfp fp, ip, #-4
	sub	fp, ip, #4	@,,
	.pad #16
	sub	sp, sp, #16	@,,
	push	{lr}
	bl	__gnu_mcount_nc
	sub	r4, fp, #36	@ tmp294,,
	mov	r1, #16	@,
	mov	r3, #0	@,
	movw	r2, #:lower16:.LC57	@,
	mov	r0, r4	@, tmp294
	movt	r2, #:upper16:.LC57	@,
	bl	snprintf	@
	mov	r0, r4	@, tmp294
	movw	r1, #:lower16:vfmw_read_proc_info	@,
	movw	r2, #:lower16:vfmw_write_proc	@,
	movt	r1, #:upper16:vfmw_read_proc_info	@,
	movt	r2, #:upper16:vfmw_write_proc	@,
	mov	r3, #0	@ tmp160,
	strb	r3, [fp, #-21]	@ tmp160, name
	bl	vfmw_proc_create	@
	subs	r5, r0, #0	@ ret.3104,
	bne	.L810	@,
	mov	r1, #16	@,
	mov	r3, #1	@,
	mov	r0, r4	@, tmp294
	movw	r2, #:lower16:.LC57	@,
	movt	r2, #:upper16:.LC57	@,
	bl	snprintf	@
	mov	r0, r4	@, tmp294
	movw	r1, #:lower16:vfmw_read_proc_info	@,
	movw	r2, #:lower16:vfmw_write_proc	@,
	movt	r1, #:upper16:vfmw_read_proc_info	@,
	movt	r2, #:upper16:vfmw_write_proc	@,
	strb	r5, [fp, #-21]	@ ret.3104, name
	bl	vfmw_proc_create	@
	subs	r5, r0, #0	@ ret.3105,
	bne	.L810	@,
	mov	r1, #16	@,
	mov	r3, #2	@,
	mov	r0, r4	@, tmp294
	movw	r2, #:lower16:.LC57	@,
	movt	r2, #:upper16:.LC57	@,
	bl	snprintf	@
	mov	r0, r4	@, tmp294
	movw	r1, #:lower16:vfmw_read_proc_info	@,
	movw	r2, #:lower16:vfmw_write_proc	@,
	movt	r1, #:upper16:vfmw_read_proc_info	@,
	movt	r2, #:upper16:vfmw_write_proc	@,
	strb	r5, [fp, #-21]	@ ret.3105, name
	bl	vfmw_proc_create	@
	subs	r5, r0, #0	@ ret.3106,
	bne	.L810	@,
	mov	r1, #16	@,
	mov	r3, #3	@,
	mov	r0, r4	@, tmp294
	movw	r2, #:lower16:.LC57	@,
	movt	r2, #:upper16:.LC57	@,
	bl	snprintf	@
	mov	r0, r4	@, tmp294
	movw	r1, #:lower16:vfmw_read_proc_info	@,
	movw	r2, #:lower16:vfmw_write_proc	@,
	movt	r1, #:upper16:vfmw_read_proc_info	@,
	movt	r2, #:upper16:vfmw_write_proc	@,
	strb	r5, [fp, #-21]	@ ret.3106, name
	bl	vfmw_proc_create	@
	subs	r5, r0, #0	@ ret.3107,
	bne	.L810	@,
	mov	r1, #16	@,
	mov	r3, #4	@,
	mov	r0, r4	@, tmp294
	movw	r2, #:lower16:.LC57	@,
	movt	r2, #:upper16:.LC57	@,
	bl	snprintf	@
	mov	r0, r4	@, tmp294
	movw	r1, #:lower16:vfmw_read_proc_info	@,
	movw	r2, #:lower16:vfmw_write_proc	@,
	movt	r1, #:upper16:vfmw_read_proc_info	@,
	movt	r2, #:upper16:vfmw_write_proc	@,
	strb	r5, [fp, #-21]	@ ret.3107, name
	bl	vfmw_proc_create	@
	subs	r5, r0, #0	@ ret.3108,
	bne	.L810	@,
	mov	r1, #16	@,
	mov	r3, #5	@,
	mov	r0, r4	@, tmp294
	movw	r2, #:lower16:.LC57	@,
	movt	r2, #:upper16:.LC57	@,
	bl	snprintf	@
	mov	r0, r4	@, tmp294
	movw	r1, #:lower16:vfmw_read_proc_info	@,
	movw	r2, #:lower16:vfmw_write_proc	@,
	movt	r1, #:upper16:vfmw_read_proc_info	@,
	movt	r2, #:upper16:vfmw_write_proc	@,
	strb	r5, [fp, #-21]	@ ret.3108, name
	bl	vfmw_proc_create	@
	subs	r5, r0, #0	@ ret.3109,
	bne	.L810	@,
	mov	r1, #16	@,
	mov	r3, #6	@,
	mov	r0, r4	@, tmp294
	movw	r2, #:lower16:.LC57	@,
	movt	r2, #:upper16:.LC57	@,
	bl	snprintf	@
	mov	r0, r4	@, tmp294
	movw	r1, #:lower16:vfmw_read_proc_info	@,
	movw	r2, #:lower16:vfmw_write_proc	@,
	movt	r1, #:upper16:vfmw_read_proc_info	@,
	movt	r2, #:upper16:vfmw_write_proc	@,
	strb	r5, [fp, #-21]	@ ret.3109, name
	bl	vfmw_proc_create	@
	subs	r5, r0, #0	@ ret.3110,
	bne	.L810	@,
	mov	r1, #16	@,
	mov	r3, #7	@,
	mov	r0, r4	@, tmp294
	movw	r2, #:lower16:.LC57	@,
	movt	r2, #:upper16:.LC57	@,
	bl	snprintf	@
	mov	r0, r4	@, tmp294
	movw	r1, #:lower16:vfmw_read_proc_info	@,
	movw	r2, #:lower16:vfmw_write_proc	@,
	movt	r1, #:upper16:vfmw_read_proc_info	@,
	movt	r2, #:upper16:vfmw_write_proc	@,
	strb	r5, [fp, #-21]	@ ret.3110, name
	bl	vfmw_proc_create	@
	subs	r5, r0, #0	@ ret.3111,
	bne	.L810	@,
	mov	r1, #16	@,
	mov	r3, #8	@,
	mov	r0, r4	@, tmp294
	movw	r2, #:lower16:.LC57	@,
	movt	r2, #:upper16:.LC57	@,
	bl	snprintf	@
	mov	r0, r4	@, tmp294
	movw	r1, #:lower16:vfmw_read_proc_info	@,
	movw	r2, #:lower16:vfmw_write_proc	@,
	movt	r1, #:upper16:vfmw_read_proc_info	@,
	movt	r2, #:upper16:vfmw_write_proc	@,
	strb	r5, [fp, #-21]	@ ret.3111, name
	bl	vfmw_proc_create	@
	subs	r5, r0, #0	@ ret.3112,
	bne	.L810	@,
	mov	r1, #16	@,
	mov	r3, #9	@,
	mov	r0, r4	@, tmp294
	movw	r2, #:lower16:.LC57	@,
	movt	r2, #:upper16:.LC57	@,
	bl	snprintf	@
	mov	r0, r4	@, tmp294
	movw	r1, #:lower16:vfmw_read_proc_info	@,
	movw	r2, #:lower16:vfmw_write_proc	@,
	movt	r1, #:upper16:vfmw_read_proc_info	@,
	movt	r2, #:upper16:vfmw_write_proc	@,
	strb	r5, [fp, #-21]	@ ret.3112, name
	bl	vfmw_proc_create	@
	cmp	r0, #0	@,
	bne	.L810	@,
	mov	r1, #16	@,
	mov	r3, #10	@,
	mov	r0, r4	@, tmp294
	movw	r2, #:lower16:.LC57	@,
	movt	r2, #:upper16:.LC57	@,
	mov	r5, #0	@ tmp230,
	bl	snprintf	@
	mov	r0, r4	@, tmp294
	movw	r1, #:lower16:vfmw_read_proc_info	@,
	movw	r2, #:lower16:vfmw_write_proc	@,
	movt	r1, #:upper16:vfmw_read_proc_info	@,
	movt	r2, #:upper16:vfmw_write_proc	@,
	strb	r5, [fp, #-21]	@ tmp230, name
	bl	vfmw_proc_create	@
	subs	r5, r0, #0	@ ret.3114,
	bne	.L810	@,
	mov	r1, #16	@,
	mov	r3, #11	@,
	mov	r0, r4	@, tmp294
	movw	r2, #:lower16:.LC57	@,
	movt	r2, #:upper16:.LC57	@,
	bl	snprintf	@
	mov	r0, r4	@, tmp294
	movw	r1, #:lower16:vfmw_read_proc_info	@,
	movw	r2, #:lower16:vfmw_write_proc	@,
	movt	r1, #:upper16:vfmw_read_proc_info	@,
	movt	r2, #:upper16:vfmw_write_proc	@,
	strb	r5, [fp, #-21]	@ ret.3114, name
	bl	vfmw_proc_create	@
	subs	r5, r0, #0	@ ret.3115,
	bne	.L810	@,
	mov	r1, #16	@,
	mov	r3, #12	@,
	mov	r0, r4	@, tmp294
	movw	r2, #:lower16:.LC57	@,
	movt	r2, #:upper16:.LC57	@,
	bl	snprintf	@
	mov	r0, r4	@, tmp294
	movw	r1, #:lower16:vfmw_read_proc_info	@,
	movw	r2, #:lower16:vfmw_write_proc	@,
	movt	r1, #:upper16:vfmw_read_proc_info	@,
	movt	r2, #:upper16:vfmw_write_proc	@,
	strb	r5, [fp, #-21]	@ ret.3115, name
	bl	vfmw_proc_create	@
	subs	r5, r0, #0	@ ret.3116,
	bne	.L810	@,
	mov	r1, #16	@,
	mov	r3, #13	@,
	mov	r0, r4	@, tmp294
	movw	r2, #:lower16:.LC57	@,
	movt	r2, #:upper16:.LC57	@,
	bl	snprintf	@
	mov	r0, r4	@, tmp294
	movw	r1, #:lower16:vfmw_read_proc_info	@,
	movw	r2, #:lower16:vfmw_write_proc	@,
	movt	r1, #:upper16:vfmw_read_proc_info	@,
	movt	r2, #:upper16:vfmw_write_proc	@,
	strb	r5, [fp, #-21]	@ ret.3116, name
	bl	vfmw_proc_create	@
	subs	r5, r0, #0	@ ret.3117,
	bne	.L810	@,
	mov	r1, #16	@,
	mov	r3, #14	@,
	mov	r0, r4	@, tmp294
	movw	r2, #:lower16:.LC57	@,
	movt	r2, #:upper16:.LC57	@,
	bl	snprintf	@
	mov	r0, r4	@, tmp294
	movw	r1, #:lower16:vfmw_read_proc_info	@,
	movw	r2, #:lower16:vfmw_write_proc	@,
	movt	r1, #:upper16:vfmw_read_proc_info	@,
	movt	r2, #:upper16:vfmw_write_proc	@,
	strb	r5, [fp, #-21]	@ ret.3117, name
	bl	vfmw_proc_create	@
	subs	r5, r0, #0	@ ret.3118,
	bne	.L810	@,
	mov	r1, #16	@,
	mov	r3, #15	@,
	mov	r0, r4	@, tmp294
	movw	r2, #:lower16:.LC57	@,
	movt	r2, #:upper16:.LC57	@,
	bl	snprintf	@
	mov	r0, r4	@, tmp294
	movw	r1, #:lower16:vfmw_read_proc_priv	@,
	movw	r2, #:lower16:vfmw_write_proc	@,
	movt	r1, #:upper16:vfmw_read_proc_priv	@,
	movt	r2, #:upper16:vfmw_write_proc	@,
	strb	r5, [fp, #-21]	@ ret.3118, name
	bl	vfmw_proc_create	@
	cmp	r0, #0	@,
	bne	.L810	@,
	movw	r0, #:lower16:.LC58	@,
	movw	r1, #:lower16:vfmw_read_proc	@,
	movt	r0, #:upper16:.LC58	@,
	movt	r1, #:upper16:vfmw_read_proc	@,
	movw	r2, #:lower16:vfmw_write_proc	@,
	movt	r2, #:upper16:vfmw_write_proc	@,
	bl	vfmw_proc_create	@
	cmp	r0, #0	@,
	beq	.L813	@,
.L810:
	mvn	r0, #0	@ D.44206,
.L811:
	sub	sp, fp, #20
	ldmfd	sp, {r4, r5, fp, sp, pc}
.L813:
	movw	r0, #:lower16:.LC59	@,
	movw	r1, #:lower16:vfmw_read_proc_dbg	@,
	movt	r0, #:upper16:.LC59	@,
	movt	r1, #:upper16:vfmw_read_proc_dbg	@,
	movw	r2, #:lower16:vfmw_write_proc	@,
	movt	r2, #:upper16:vfmw_write_proc	@,
	bl	vfmw_proc_create	@
	cmp	r0, #0	@,
	bne	.L810	@,
	movw	r0, #:lower16:.LC60	@,
	movw	r1, #:lower16:vfmw_read_proc_prn	@,
	movt	r0, #:upper16:.LC60	@,
	movt	r1, #:upper16:vfmw_read_proc_prn	@,
	movw	r2, #:lower16:vfmw_write_proc	@,
	movt	r2, #:upper16:vfmw_write_proc	@,
	bl	vfmw_proc_create	@
	cmp	r0, #0	@,
	bne	.L810	@,
	movw	r0, #:lower16:.LC61	@,
	movw	r1, #:lower16:vfmw_read_proc_scd	@,
	movt	r0, #:upper16:.LC61	@,
	movt	r1, #:upper16:vfmw_read_proc_scd	@,
	movw	r2, #:lower16:vfmw_write_proc	@,
	movt	r2, #:upper16:vfmw_write_proc	@,
	bl	vfmw_proc_create	@
	cmp	r0, #0	@,
	bne	.L810	@,
	movw	r0, #:lower16:.LC62	@,
	movw	r1, #:lower16:vfmw_read_proc_dec	@,
	movt	r0, #:upper16:.LC62	@,
	movt	r1, #:upper16:vfmw_read_proc_dec	@,
	movw	r2, #:lower16:vfmw_write_proc	@,
	movt	r2, #:upper16:vfmw_write_proc	@,
	bl	vfmw_proc_create	@
	cmp	r0, #0	@,
	bne	.L810	@,
	movw	r0, #:lower16:.LC63	@,
	movw	r1, #:lower16:vfmw_read_proc_lwd	@,
	movt	r0, #:upper16:.LC63	@,
	movt	r1, #:upper16:vfmw_read_proc_lwd	@,
	movw	r2, #:lower16:vfmw_write_proc	@,
	movt	r2, #:upper16:vfmw_write_proc	@,
	bl	vfmw_proc_create	@
	cmp	r0, #0	@,
	bne	.L810	@,
	movw	r0, #:lower16:.LC64	@,
	movw	r1, #:lower16:vfmw_read_proc_chn	@,
	movt	r0, #:upper16:.LC64	@,
	movt	r1, #:upper16:vfmw_read_proc_chn	@,
	movw	r2, #:lower16:vfmw_write_proc	@,
	movt	r2, #:upper16:vfmw_write_proc	@,
	bl	vfmw_proc_create	@
	cmp	r0, #0	@ ret.3103
	beq	.L811	@,
	b	.L810	@
	.fnend
	.size	vfmw_proc_init, .-vfmw_proc_init
	.align	2
	.type	vfmw_proc_open, %function
vfmw_proc_open:
	.fnstart
.LFB1651:
	@ args = 0, pretend = 0, frame = 0
	@ frame_needed = 1, uses_anonymous_args = 0
	.movsp ip
	mov	ip, sp	@,
	stmfd	sp!, {r3, r4, fp, ip, lr, pc}	@,
	.pad #4
	.save {r3, r4, fp, ip, lr}
	.setfp fp, ip, #-4
	sub	fp, ip, #4	@,,
	push	{lr}
	bl	__gnu_mcount_nc
	mov	r4, r1	@ file, file
	bl	PDE_DATA	@
	subs	r2, r0, #0	@ D.44114,
	bne	.L818	@,
.L815:
	mvn	r0, #37	@ D.44117,
	ldmfd	sp, {r3, r4, fp, sp, pc}	@
.L818:
	ldr	r1, [r2, #16]	@ D.44118, <variable>.read
	cmp	r1, #0	@ D.44118,
	beq	.L815	@,
	mov	r0, r4	@, file
	bl	single_open	@
	ldmfd	sp, {r3, r4, fp, sp, pc}	@
	.fnend
	.size	vfmw_proc_open, .-vfmw_proc_open
	.align	2
	.global	vfmw_read_proc_lwd
	.type	vfmw_read_proc_lwd, %function
vfmw_read_proc_lwd:
	.fnstart
.LFB1648:
	@ args = 0, pretend = 0, frame = 0
	@ frame_needed = 1, uses_anonymous_args = 0
	.movsp ip
	mov	ip, sp	@,
	stmfd	sp!, {r3, r4, r5, r6, r7, r8, fp, ip, lr, pc}	@,
	.pad #4
	.save {r3, r4, r5, r6, r7, r8, fp, ip, lr}
	.setfp fp, ip, #-4
	sub	fp, ip, #4	@,,
	push	{lr}
	bl	__gnu_mcount_nc
	movw	r3, #:lower16:.LANCHOR0	@ tmp137,
	movt	r3, #:upper16:.LANCHOR0	@ tmp137,
	movw	r7, #:lower16:g_stLowdlyInfo	@ tmp143,
	movw	r4, #:lower16:.LC66	@ tmp145,
	movt	r7, #:upper16:g_stLowdlyInfo	@ tmp143,
	ldr	r8, [r3, #1348]	@ g_CurProcChan, g_CurProcChan
	movt	r4, #:upper16:.LC66	@ tmp145,
	mov	r5, r0	@ p, p
	movw	r1, #:lower16:.LC65	@,
	movt	r1, #:upper16:.LC65	@,
	rsb	r8, r8, r8, asl #3	@, tmp141, g_CurProcChan, g_CurProcChan,
	bl	seq_printf	@
	mov	r1, r4	@, tmp145
	mov	r0, r5	@, p
	add	r6, r7, r8, asl #3	@, pLwd, tmp143, tmp141,
	ldr	r3, [r7, r8, asl #3]	@, <variable>.lowdly_enable
	movw	r2, #:lower16:.LC67	@,
	movt	r2, #:upper16:.LC67	@,
	bl	seq_printf	@
	mov	r1, r4	@, tmp145
	ldr	r3, [r6, #4]	@, <variable>.chan_id
	mov	r0, r5	@, p
	movw	r2, #:lower16:.LC68	@,
	movt	r2, #:upper16:.LC68	@,
	bl	seq_printf	@
	mov	r1, r4	@, tmp145
	ldr	r3, [r6, #20]	@, <variable>.scd_count
	mov	r0, r5	@, p
	movw	r2, #:lower16:.LC69	@,
	movt	r2, #:upper16:.LC69	@,
	bl	seq_printf	@
	mov	r1, r4	@, tmp145
	ldr	r3, [r6, #32]	@, <variable>.vdh_count
	mov	r0, r5	@, p
	movw	r2, #:lower16:.LC70	@,
	movt	r2, #:upper16:.LC70	@,
	bl	seq_printf	@
	mov	r0, r5	@, p
	movw	r1, #:lower16:.LC71	@,
	movt	r1, #:upper16:.LC71	@,
	bl	seq_printf	@
	mov	r0, #0	@,
	ldmfd	sp, {r3, r4, r5, r6, r7, r8, fp, sp, pc}	@
	.fnend
	.size	vfmw_read_proc_lwd, .-vfmw_read_proc_lwd
	.align	2
	.global	vfmw_read_proc_chn
	.type	vfmw_read_proc_chn, %function
vfmw_read_proc_chn:
	.fnstart
.LFB1646:
	@ args = 0, pretend = 0, frame = 0
	@ frame_needed = 1, uses_anonymous_args = 0
	.movsp ip
	mov	ip, sp	@,
	stmfd	sp!, {r4, r5, r6, fp, ip, lr, pc}	@,
	.pad #4
	.save {r4, r5, r6, fp, ip, lr}
	.setfp fp, ip, #-4
	sub	fp, ip, #4	@,,
	.pad #12
	sub	sp, sp, #12	@,,
	push	{lr}
	bl	__gnu_mcount_nc
	movw	r1, #:lower16:.LC72	@,
	mov	r4, r0	@ p, p
	movt	r1, #:upper16:.LC72	@,
	movw	r6, #:lower16:g_ChanCtx	@ tmp155,
	movt	r6, #:upper16:g_ChanCtx	@ tmp155,
	bl	seq_printf	@
	mov	r0, r4	@, p
	movw	r1, #:lower16:.LC73	@,
	movt	r1, #:upper16:.LC73	@,
	bl	seq_printf	@
	ldr	r2, [r6, #128]	@ g_ChanCtx.ChanDecByVdhPlusOne, g_ChanCtx.ChanDecByVdhPlusOne
	mov	r0, r4	@, p
	movw	r1, #:lower16:.LC74	@,
	sub	r2, r2, #1	@, g_ChanCtx.ChanDecByVdhPlusOne,
	movt	r1, #:upper16:.LC74	@,
	bl	seq_printf	@
	ldr	ip, [r6, #132]	@ g_ChanCtx.ChanDecByVdhPlusOne, g_ChanCtx.ChanDecByVdhPlusOne
	mov	r0, r4	@, p
	movw	r1, #:lower16:.LC74	@,
	sub	r2, ip, #1	@, g_ChanCtx.ChanDecByVdhPlusOne,
	movt	r1, #:upper16:.LC74	@,
	bl	seq_printf	@
	ldr	r3, [r6, #136]	@ g_ChanCtx.ChanDecByVdhPlusOne, g_ChanCtx.ChanDecByVdhPlusOne
	mov	r0, r4	@, p
	movw	r1, #:lower16:.LC74	@,
	sub	r2, r3, #1	@, g_ChanCtx.ChanDecByVdhPlusOne,
	movt	r1, #:upper16:.LC74	@,
	bl	seq_printf	@
	ldr	r2, [r6, #140]	@ g_ChanCtx.ChanDecByVdhPlusOne, g_ChanCtx.ChanDecByVdhPlusOne
	mov	r0, r4	@, p
	movw	r1, #:lower16:.LC74	@,
	sub	r2, r2, #1	@, g_ChanCtx.ChanDecByVdhPlusOne,
	movt	r1, #:upper16:.LC74	@,
	bl	seq_printf	@
	ldr	ip, [r6, #144]	@ g_ChanCtx.ChanDecByVdhPlusOne, g_ChanCtx.ChanDecByVdhPlusOne
	mov	r0, r4	@, p
	movw	r1, #:lower16:.LC74	@,
	sub	r2, ip, #1	@, g_ChanCtx.ChanDecByVdhPlusOne,
	movt	r1, #:upper16:.LC74	@,
	bl	seq_printf	@
	ldr	r3, [r6, #148]	@ g_ChanCtx.ChanDecByVdhPlusOne, g_ChanCtx.ChanDecByVdhPlusOne
	mov	r0, r4	@, p
	movw	r1, #:lower16:.LC74	@,
	sub	r2, r3, #1	@, g_ChanCtx.ChanDecByVdhPlusOne,
	movt	r1, #:upper16:.LC74	@,
	bl	seq_printf	@
	ldr	r2, [r6, #152]	@ g_ChanCtx.ChanDecByVdhPlusOne, g_ChanCtx.ChanDecByVdhPlusOne
	mov	r0, r4	@, p
	movw	r1, #:lower16:.LC74	@,
	sub	r2, r2, #1	@, g_ChanCtx.ChanDecByVdhPlusOne,
	movt	r1, #:upper16:.LC74	@,
	bl	seq_printf	@
	ldr	ip, [r6, #156]	@ g_ChanCtx.ChanDecByVdhPlusOne, g_ChanCtx.ChanDecByVdhPlusOne
	mov	r0, r4	@, p
	movw	r1, #:lower16:.LC74	@,
	sub	r2, ip, #1	@, g_ChanCtx.ChanDecByVdhPlusOne,
	movt	r1, #:upper16:.LC74	@,
	bl	seq_printf	@
	ldr	r3, [r6, #160]	@ g_ChanCtx.ChanDecByVdhPlusOne, g_ChanCtx.ChanDecByVdhPlusOne
	mov	r0, r4	@, p
	movw	r1, #:lower16:.LC74	@,
	sub	r2, r3, #1	@, g_ChanCtx.ChanDecByVdhPlusOne,
	movt	r1, #:upper16:.LC74	@,
	bl	seq_printf	@
	ldr	r2, [r6, #164]	@ g_ChanCtx.ChanDecByVdhPlusOne, g_ChanCtx.ChanDecByVdhPlusOne
	mov	r0, r4	@, p
	movw	r1, #:lower16:.LC74	@,
	sub	r2, r2, #1	@, g_ChanCtx.ChanDecByVdhPlusOne,
	movt	r1, #:upper16:.LC74	@,
	bl	seq_printf	@
	ldr	ip, [r6, #168]	@ g_ChanCtx.ChanDecByVdhPlusOne, g_ChanCtx.ChanDecByVdhPlusOne
	mov	r0, r4	@, p
	movw	r1, #:lower16:.LC74	@,
	sub	r2, ip, #1	@, g_ChanCtx.ChanDecByVdhPlusOne,
	movt	r1, #:upper16:.LC74	@,
	bl	seq_printf	@
	ldr	r3, [r6, #172]	@ g_ChanCtx.ChanDecByVdhPlusOne, g_ChanCtx.ChanDecByVdhPlusOne
	mov	r0, r4	@, p
	movw	r1, #:lower16:.LC74	@,
	sub	r2, r3, #1	@, g_ChanCtx.ChanDecByVdhPlusOne,
	movt	r1, #:upper16:.LC74	@,
	bl	seq_printf	@
	ldr	r2, [r6, #176]	@ g_ChanCtx.ChanDecByVdhPlusOne, g_ChanCtx.ChanDecByVdhPlusOne
	mov	r0, r4	@, p
	movw	r1, #:lower16:.LC74	@,
	sub	r2, r2, #1	@, g_ChanCtx.ChanDecByVdhPlusOne,
	movt	r1, #:upper16:.LC74	@,
	bl	seq_printf	@
	ldr	ip, [r6, #180]	@ g_ChanCtx.ChanDecByVdhPlusOne, g_ChanCtx.ChanDecByVdhPlusOne
	mov	r0, r4	@, p
	movw	r1, #:lower16:.LC74	@,
	sub	r2, ip, #1	@, g_ChanCtx.ChanDecByVdhPlusOne,
	movt	r1, #:upper16:.LC74	@,
	bl	seq_printf	@
	ldr	r3, [r6, #184]	@ g_ChanCtx.ChanDecByVdhPlusOne, g_ChanCtx.ChanDecByVdhPlusOne
	mov	r0, r4	@, p
	movw	r1, #:lower16:.LC74	@,
	sub	r2, r3, #1	@, g_ChanCtx.ChanDecByVdhPlusOne,
	movt	r1, #:upper16:.LC74	@,
	bl	seq_printf	@
	ldr	r2, [r6, #188]	@ g_ChanCtx.ChanDecByVdhPlusOne, g_ChanCtx.ChanDecByVdhPlusOne
	mov	r0, r4	@, p
	movw	r1, #:lower16:.LC74	@,
	sub	r2, r2, #1	@, g_ChanCtx.ChanDecByVdhPlusOne,
	movt	r1, #:upper16:.LC74	@,
	bl	seq_printf	@
	mov	r0, r4	@, p
	movw	r1, #:lower16:.LC71	@,
	movt	r1, #:upper16:.LC71	@,
	bl	seq_printf	@
	mov	r0, r4	@, p
	movw	r1, #:lower16:.LC75	@,
	movt	r1, #:upper16:.LC75	@,
	bl	seq_printf	@
	ldr	r2, [r6, #64]	@, g_ChanCtx.ChanIdTabByPrior
	mov	r0, r4	@, p
	movw	r1, #:lower16:.LC74	@,
	movt	r1, #:upper16:.LC74	@,
	movw	r5, #:lower16:.LANCHOR0	@ tmp403,
	bl	seq_printf	@
	ldr	r2, [r6, #68]	@, g_ChanCtx.ChanIdTabByPrior
	mov	r0, r4	@, p
	movw	r1, #:lower16:.LC74	@,
	movt	r1, #:upper16:.LC74	@,
	movt	r5, #:upper16:.LANCHOR0	@ tmp403,
	bl	seq_printf	@
	ldr	r2, [r6, #72]	@, g_ChanCtx.ChanIdTabByPrior
	mov	r0, r4	@, p
	movw	r1, #:lower16:.LC74	@,
	movt	r1, #:upper16:.LC74	@,
	bl	seq_printf	@
	ldr	r2, [r6, #76]	@, g_ChanCtx.ChanIdTabByPrior
	mov	r0, r4	@, p
	movw	r1, #:lower16:.LC74	@,
	movt	r1, #:upper16:.LC74	@,
	bl	seq_printf	@
	ldr	r2, [r6, #80]	@, g_ChanCtx.ChanIdTabByPrior
	mov	r0, r4	@, p
	movw	r1, #:lower16:.LC74	@,
	movt	r1, #:upper16:.LC74	@,
	bl	seq_printf	@
	ldr	r2, [r6, #84]	@, g_ChanCtx.ChanIdTabByPrior
	mov	r0, r4	@, p
	movw	r1, #:lower16:.LC74	@,
	movt	r1, #:upper16:.LC74	@,
	bl	seq_printf	@
	ldr	r2, [r6, #88]	@, g_ChanCtx.ChanIdTabByPrior
	mov	r0, r4	@, p
	movw	r1, #:lower16:.LC74	@,
	movt	r1, #:upper16:.LC74	@,
	bl	seq_printf	@
	ldr	r2, [r6, #92]	@, g_ChanCtx.ChanIdTabByPrior
	mov	r0, r4	@, p
	movw	r1, #:lower16:.LC74	@,
	movt	r1, #:upper16:.LC74	@,
	bl	seq_printf	@
	ldr	r2, [r6, #96]	@, g_ChanCtx.ChanIdTabByPrior
	mov	r0, r4	@, p
	movw	r1, #:lower16:.LC74	@,
	movt	r1, #:upper16:.LC74	@,
	bl	seq_printf	@
	ldr	r2, [r6, #100]	@, g_ChanCtx.ChanIdTabByPrior
	mov	r0, r4	@, p
	movw	r1, #:lower16:.LC74	@,
	movt	r1, #:upper16:.LC74	@,
	bl	seq_printf	@
	ldr	r2, [r6, #104]	@, g_ChanCtx.ChanIdTabByPrior
	mov	r0, r4	@, p
	movw	r1, #:lower16:.LC74	@,
	movt	r1, #:upper16:.LC74	@,
	bl	seq_printf	@
	ldr	r2, [r6, #108]	@, g_ChanCtx.ChanIdTabByPrior
	mov	r0, r4	@, p
	movw	r1, #:lower16:.LC74	@,
	movt	r1, #:upper16:.LC74	@,
	bl	seq_printf	@
	ldr	r2, [r6, #112]	@, g_ChanCtx.ChanIdTabByPrior
	mov	r0, r4	@, p
	movw	r1, #:lower16:.LC74	@,
	movt	r1, #:upper16:.LC74	@,
	bl	seq_printf	@
	ldr	r2, [r6, #116]	@, g_ChanCtx.ChanIdTabByPrior
	mov	r0, r4	@, p
	movw	r1, #:lower16:.LC74	@,
	movt	r1, #:upper16:.LC74	@,
	bl	seq_printf	@
	ldr	r2, [r6, #120]	@, g_ChanCtx.ChanIdTabByPrior
	mov	r0, r4	@, p
	movw	r1, #:lower16:.LC74	@,
	movt	r1, #:upper16:.LC74	@,
	bl	seq_printf	@
	ldr	r2, [r6, #124]	@, g_ChanCtx.ChanIdTabByPrior
	mov	r0, r4	@, p
	movw	r1, #:lower16:.LC74	@,
	movt	r1, #:upper16:.LC74	@,
	bl	seq_printf	@
	mov	r0, r4	@, p
	movw	r1, #:lower16:.LC71	@,
	movt	r1, #:upper16:.LC71	@,
	bl	seq_printf	@
	mov	r0, r4	@, p
	movw	r1, #:lower16:.LC76	@,
	movt	r1, #:upper16:.LC76	@,
	bl	seq_printf	@
	ldr	r2, [r6, #0]	@, g_ChanCtx.PriorByChanId
	mov	r0, r4	@, p
	movw	r1, #:lower16:.LC74	@,
	movt	r1, #:upper16:.LC74	@,
	bl	seq_printf	@
	ldr	r2, [r6, #4]	@, g_ChanCtx.PriorByChanId
	mov	r0, r4	@, p
	movw	r1, #:lower16:.LC74	@,
	movt	r1, #:upper16:.LC74	@,
	bl	seq_printf	@
	ldr	r2, [r6, #8]	@, g_ChanCtx.PriorByChanId
	mov	r0, r4	@, p
	movw	r1, #:lower16:.LC74	@,
	movt	r1, #:upper16:.LC74	@,
	bl	seq_printf	@
	ldr	r2, [r6, #12]	@, g_ChanCtx.PriorByChanId
	mov	r0, r4	@, p
	movw	r1, #:lower16:.LC74	@,
	movt	r1, #:upper16:.LC74	@,
	bl	seq_printf	@
	ldr	r2, [r6, #16]	@, g_ChanCtx.PriorByChanId
	mov	r0, r4	@, p
	movw	r1, #:lower16:.LC74	@,
	movt	r1, #:upper16:.LC74	@,
	bl	seq_printf	@
	ldr	r2, [r6, #20]	@, g_ChanCtx.PriorByChanId
	mov	r0, r4	@, p
	movw	r1, #:lower16:.LC74	@,
	movt	r1, #:upper16:.LC74	@,
	bl	seq_printf	@
	ldr	r2, [r6, #24]	@, g_ChanCtx.PriorByChanId
	mov	r0, r4	@, p
	movw	r1, #:lower16:.LC74	@,
	movt	r1, #:upper16:.LC74	@,
	bl	seq_printf	@
	ldr	r2, [r6, #28]	@, g_ChanCtx.PriorByChanId
	mov	r0, r4	@, p
	movw	r1, #:lower16:.LC74	@,
	movt	r1, #:upper16:.LC74	@,
	bl	seq_printf	@
	ldr	r2, [r6, #32]	@, g_ChanCtx.PriorByChanId
	mov	r0, r4	@, p
	movw	r1, #:lower16:.LC74	@,
	movt	r1, #:upper16:.LC74	@,
	bl	seq_printf	@
	ldr	r2, [r6, #36]	@, g_ChanCtx.PriorByChanId
	mov	r0, r4	@, p
	movw	r1, #:lower16:.LC74	@,
	movt	r1, #:upper16:.LC74	@,
	bl	seq_printf	@
	ldr	r2, [r6, #40]	@, g_ChanCtx.PriorByChanId
	mov	r0, r4	@, p
	movw	r1, #:lower16:.LC74	@,
	movt	r1, #:upper16:.LC74	@,
	bl	seq_printf	@
	ldr	r2, [r6, #44]	@, g_ChanCtx.PriorByChanId
	mov	r0, r4	@, p
	movw	r1, #:lower16:.LC74	@,
	movt	r1, #:upper16:.LC74	@,
	bl	seq_printf	@
	ldr	r2, [r6, #48]	@, g_ChanCtx.PriorByChanId
	mov	r0, r4	@, p
	movw	r1, #:lower16:.LC74	@,
	movt	r1, #:upper16:.LC74	@,
	bl	seq_printf	@
	ldr	r2, [r6, #52]	@, g_ChanCtx.PriorByChanId
	mov	r0, r4	@, p
	movw	r1, #:lower16:.LC74	@,
	movt	r1, #:upper16:.LC74	@,
	bl	seq_printf	@
	ldr	r2, [r6, #56]	@, g_ChanCtx.PriorByChanId
	mov	r0, r4	@, p
	movw	r1, #:lower16:.LC74	@,
	movt	r1, #:upper16:.LC74	@,
	bl	seq_printf	@
	ldr	r2, [r6, #60]	@, g_ChanCtx.PriorByChanId
	mov	r0, r4	@, p
	movw	r1, #:lower16:.LC74	@,
	movt	r1, #:upper16:.LC74	@,
	bl	seq_printf	@
	mov	r0, r4	@, p
	movw	r1, #:lower16:.LC71	@,
	movt	r1, #:upper16:.LC71	@,
	bl	seq_printf	@
	mov	r0, r4	@, p
	movw	r1, #:lower16:.LC77	@,
	movt	r1, #:upper16:.LC77	@,
	bl	seq_printf	@
	ldr	r0, [r5, #0]	@ temp.3254, s_pstVfmwChan
	cmp	r0, #0	@ temp.3254,
	beq	.L822	@,
	ldr	lr, [r0, #24]	@ <variable>.s32Priority, <variable>.s32Priority
	movw	r1, #:lower16:.LC78	@,
	ldr	r2, [r0, #12]	@ <variable>.s32IsOpen, <variable>.s32IsOpen
	movt	r1, #:upper16:.LC78	@,
	ldr	r3, [r0, #16]	@ <variable>.s32IsRun, <variable>.s32IsRun
	mov	r0, r4	@, p
	str	lr, [sp, #0]	@ <variable>.s32Priority,
	bl	seq_printf	@
.L822:
	ldr	r0, [r5, #4]	@ temp.3258, s_pstVfmwChan
	cmp	r0, #0	@ temp.3258,
	beq	.L823	@,
	ldr	ip, [r0, #24]	@ <variable>.s32Priority, <variable>.s32Priority
	movw	r1, #:lower16:.LC78	@,
	ldr	r2, [r0, #12]	@ <variable>.s32IsOpen, <variable>.s32IsOpen
	movt	r1, #:upper16:.LC78	@,
	ldr	r3, [r0, #16]	@ <variable>.s32IsRun, <variable>.s32IsRun
	mov	r0, r4	@, p
	str	ip, [sp, #0]	@ <variable>.s32Priority,
	bl	seq_printf	@
.L823:
	ldr	r0, [r5, #8]	@ temp.3262, s_pstVfmwChan
	cmp	r0, #0	@ temp.3262,
	beq	.L824	@,
	ldr	lr, [r0, #24]	@ <variable>.s32Priority, <variable>.s32Priority
	movw	r1, #:lower16:.LC78	@,
	ldr	r2, [r0, #12]	@ <variable>.s32IsOpen, <variable>.s32IsOpen
	movt	r1, #:upper16:.LC78	@,
	ldr	r3, [r0, #16]	@ <variable>.s32IsRun, <variable>.s32IsRun
	mov	r0, r4	@, p
	str	lr, [sp, #0]	@ <variable>.s32Priority,
	bl	seq_printf	@
.L824:
	ldr	r0, [r5, #12]	@ temp.3266, s_pstVfmwChan
	cmp	r0, #0	@ temp.3266,
	beq	.L825	@,
	ldr	ip, [r0, #24]	@ <variable>.s32Priority, <variable>.s32Priority
	movw	r1, #:lower16:.LC78	@,
	ldr	r2, [r0, #12]	@ <variable>.s32IsOpen, <variable>.s32IsOpen
	movt	r1, #:upper16:.LC78	@,
	ldr	r3, [r0, #16]	@ <variable>.s32IsRun, <variable>.s32IsRun
	mov	r0, r4	@, p
	str	ip, [sp, #0]	@ <variable>.s32Priority,
	bl	seq_printf	@
.L825:
	ldr	r0, [r5, #16]	@ temp.3270, s_pstVfmwChan
	cmp	r0, #0	@ temp.3270,
	beq	.L826	@,
	ldr	lr, [r0, #24]	@ <variable>.s32Priority, <variable>.s32Priority
	movw	r1, #:lower16:.LC78	@,
	ldr	r2, [r0, #12]	@ <variable>.s32IsOpen, <variable>.s32IsOpen
	movt	r1, #:upper16:.LC78	@,
	ldr	r3, [r0, #16]	@ <variable>.s32IsRun, <variable>.s32IsRun
	mov	r0, r4	@, p
	str	lr, [sp, #0]	@ <variable>.s32Priority,
	bl	seq_printf	@
.L826:
	ldr	r0, [r5, #20]	@ temp.3274, s_pstVfmwChan
	cmp	r0, #0	@ temp.3274,
	beq	.L827	@,
	ldr	ip, [r0, #24]	@ <variable>.s32Priority, <variable>.s32Priority
	movw	r1, #:lower16:.LC78	@,
	ldr	r2, [r0, #12]	@ <variable>.s32IsOpen, <variable>.s32IsOpen
	movt	r1, #:upper16:.LC78	@,
	ldr	r3, [r0, #16]	@ <variable>.s32IsRun, <variable>.s32IsRun
	mov	r0, r4	@, p
	str	ip, [sp, #0]	@ <variable>.s32Priority,
	bl	seq_printf	@
.L827:
	ldr	r0, [r5, #24]	@ temp.3278, s_pstVfmwChan
	cmp	r0, #0	@ temp.3278,
	beq	.L828	@,
	ldr	lr, [r0, #24]	@ <variable>.s32Priority, <variable>.s32Priority
	movw	r1, #:lower16:.LC78	@,
	ldr	r2, [r0, #12]	@ <variable>.s32IsOpen, <variable>.s32IsOpen
	movt	r1, #:upper16:.LC78	@,
	ldr	r3, [r0, #16]	@ <variable>.s32IsRun, <variable>.s32IsRun
	mov	r0, r4	@, p
	str	lr, [sp, #0]	@ <variable>.s32Priority,
	bl	seq_printf	@
.L828:
	ldr	r0, [r5, #28]	@ temp.3282, s_pstVfmwChan
	cmp	r0, #0	@ temp.3282,
	beq	.L829	@,
	ldr	ip, [r0, #24]	@ <variable>.s32Priority, <variable>.s32Priority
	movw	r1, #:lower16:.LC78	@,
	ldr	r2, [r0, #12]	@ <variable>.s32IsOpen, <variable>.s32IsOpen
	movt	r1, #:upper16:.LC78	@,
	ldr	r3, [r0, #16]	@ <variable>.s32IsRun, <variable>.s32IsRun
	mov	r0, r4	@, p
	str	ip, [sp, #0]	@ <variable>.s32Priority,
	bl	seq_printf	@
.L829:
	ldr	r0, [r5, #32]	@ temp.3286, s_pstVfmwChan
	cmp	r0, #0	@ temp.3286,
	beq	.L830	@,
	ldr	lr, [r0, #24]	@ <variable>.s32Priority, <variable>.s32Priority
	movw	r1, #:lower16:.LC78	@,
	ldr	r2, [r0, #12]	@ <variable>.s32IsOpen, <variable>.s32IsOpen
	movt	r1, #:upper16:.LC78	@,
	ldr	r3, [r0, #16]	@ <variable>.s32IsRun, <variable>.s32IsRun
	mov	r0, r4	@, p
	str	lr, [sp, #0]	@ <variable>.s32Priority,
	bl	seq_printf	@
.L830:
	ldr	r0, [r5, #36]	@ temp.3290, s_pstVfmwChan
	cmp	r0, #0	@ temp.3290,
	beq	.L831	@,
	ldr	ip, [r0, #24]	@ <variable>.s32Priority, <variable>.s32Priority
	movw	r1, #:lower16:.LC78	@,
	ldr	r2, [r0, #12]	@ <variable>.s32IsOpen, <variable>.s32IsOpen
	movt	r1, #:upper16:.LC78	@,
	ldr	r3, [r0, #16]	@ <variable>.s32IsRun, <variable>.s32IsRun
	mov	r0, r4	@, p
	str	ip, [sp, #0]	@ <variable>.s32Priority,
	bl	seq_printf	@
.L831:
	ldr	r0, [r5, #40]	@ temp.3294, s_pstVfmwChan
	cmp	r0, #0	@ temp.3294,
	beq	.L832	@,
	ldr	lr, [r0, #24]	@ <variable>.s32Priority, <variable>.s32Priority
	movw	r1, #:lower16:.LC78	@,
	ldr	r2, [r0, #12]	@ <variable>.s32IsOpen, <variable>.s32IsOpen
	movt	r1, #:upper16:.LC78	@,
	ldr	r3, [r0, #16]	@ <variable>.s32IsRun, <variable>.s32IsRun
	mov	r0, r4	@, p
	str	lr, [sp, #0]	@ <variable>.s32Priority,
	bl	seq_printf	@
.L832:
	ldr	r0, [r5, #44]	@ temp.3298, s_pstVfmwChan
	cmp	r0, #0	@ temp.3298,
	beq	.L833	@,
	ldr	ip, [r0, #24]	@ <variable>.s32Priority, <variable>.s32Priority
	movw	r1, #:lower16:.LC78	@,
	ldr	r2, [r0, #12]	@ <variable>.s32IsOpen, <variable>.s32IsOpen
	movt	r1, #:upper16:.LC78	@,
	ldr	r3, [r0, #16]	@ <variable>.s32IsRun, <variable>.s32IsRun
	mov	r0, r4	@, p
	str	ip, [sp, #0]	@ <variable>.s32Priority,
	bl	seq_printf	@
.L833:
	ldr	r0, [r5, #48]	@ temp.3302, s_pstVfmwChan
	cmp	r0, #0	@ temp.3302,
	beq	.L834	@,
	ldr	lr, [r0, #24]	@ <variable>.s32Priority, <variable>.s32Priority
	movw	r1, #:lower16:.LC78	@,
	ldr	r2, [r0, #12]	@ <variable>.s32IsOpen, <variable>.s32IsOpen
	movt	r1, #:upper16:.LC78	@,
	ldr	r3, [r0, #16]	@ <variable>.s32IsRun, <variable>.s32IsRun
	mov	r0, r4	@, p
	str	lr, [sp, #0]	@ <variable>.s32Priority,
	bl	seq_printf	@
.L834:
	ldr	r0, [r5, #52]	@ temp.3306, s_pstVfmwChan
	cmp	r0, #0	@ temp.3306,
	beq	.L835	@,
	ldr	ip, [r0, #24]	@ <variable>.s32Priority, <variable>.s32Priority
	movw	r1, #:lower16:.LC78	@,
	ldr	r2, [r0, #12]	@ <variable>.s32IsOpen, <variable>.s32IsOpen
	movt	r1, #:upper16:.LC78	@,
	ldr	r3, [r0, #16]	@ <variable>.s32IsRun, <variable>.s32IsRun
	mov	r0, r4	@, p
	str	ip, [sp, #0]	@ <variable>.s32Priority,
	bl	seq_printf	@
.L835:
	ldr	r0, [r5, #56]	@ temp.3310, s_pstVfmwChan
	cmp	r0, #0	@ temp.3310,
	beq	.L836	@,
	ldr	lr, [r0, #24]	@ <variable>.s32Priority, <variable>.s32Priority
	movw	r1, #:lower16:.LC78	@,
	ldr	r2, [r0, #12]	@ <variable>.s32IsOpen, <variable>.s32IsOpen
	movt	r1, #:upper16:.LC78	@,
	ldr	r3, [r0, #16]	@ <variable>.s32IsRun, <variable>.s32IsRun
	mov	r0, r4	@, p
	str	lr, [sp, #0]	@ <variable>.s32Priority,
	bl	seq_printf	@
.L836:
	ldr	r0, [r5, #60]	@ D.43700, s_pstVfmwChan
	cmp	r0, #0	@ D.43700,
	beq	.L837	@,
	ldr	ip, [r0, #24]	@ <variable>.s32Priority, <variable>.s32Priority
	movw	r1, #:lower16:.LC78	@,
	ldr	r2, [r0, #12]	@ <variable>.s32IsOpen, <variable>.s32IsOpen
	movt	r1, #:upper16:.LC78	@,
	ldr	r3, [r0, #16]	@ <variable>.s32IsRun, <variable>.s32IsRun
	mov	r0, r4	@, p
	str	ip, [sp, #0]	@ <variable>.s32Priority,
	bl	seq_printf	@
.L837:
	mov	r0, r4	@, p
	movw	r1, #:lower16:.LC71	@,
	movt	r1, #:upper16:.LC71	@,
	bl	seq_printf	@
	mov	r0, #0	@,
	sub	sp, fp, #24
	ldmfd	sp, {r4, r5, r6, fp, sp, pc}
	.fnend
	.size	vfmw_read_proc_chn, .-vfmw_read_proc_chn
	.align	2
	.global	vfmw_read_proc_prn
	.type	vfmw_read_proc_prn, %function
vfmw_read_proc_prn:
	.fnstart
.LFB1644:
	@ args = 0, pretend = 0, frame = 0
	@ frame_needed = 1, uses_anonymous_args = 0
	.movsp ip
	mov	ip, sp	@,
	stmfd	sp!, {r3, r4, r5, r6, fp, ip, lr, pc}	@,
	.pad #4
	.save {r3, r4, r5, r6, fp, ip, lr}
	.setfp fp, ip, #-4
	sub	fp, ip, #4	@,,
	push	{lr}
	bl	__gnu_mcount_nc
	movw	r6, #:lower16:.LC80	@ tmp137,
	movt	r6, #:upper16:.LC80	@ tmp137,
	mov	r4, r0	@ p, p
	movw	r1, #:lower16:.LC79	@,
	movt	r1, #:upper16:.LC79	@,
	bl	seq_printf	@
	mov	r1, r6	@, tmp137
	mov	r0, r4	@, p
	movw	r5, #:lower16:.LC90	@ tmp149,
	bl	seq_printf	@
	mov	r0, r4	@, p
	movw	r1, #:lower16:.LC81	@,
	movt	r1, #:upper16:.LC81	@,
	bl	seq_printf	@
	mov	r0, r4	@, p
	movw	r1, #:lower16:.LC82	@,
	movt	r1, #:upper16:.LC82	@,
	bl	seq_printf	@
	mov	r0, r4	@, p
	movw	r1, #:lower16:.LC83	@,
	movt	r1, #:upper16:.LC83	@,
	bl	seq_printf	@
	mov	r0, r4	@, p
	movw	r1, #:lower16:.LC84	@,
	movt	r1, #:upper16:.LC84	@,
	bl	seq_printf	@
	mov	r0, r4	@, p
	movw	r1, #:lower16:.LC85	@,
	movt	r1, #:upper16:.LC85	@,
	bl	seq_printf	@
	mov	r0, r4	@, p
	movw	r1, #:lower16:.LC86	@,
	movt	r1, #:upper16:.LC86	@,
	bl	seq_printf	@
	mov	r0, r4	@, p
	movw	r1, #:lower16:.LC87	@,
	movt	r1, #:upper16:.LC87	@,
	bl	seq_printf	@
	mov	r0, r4	@, p
	movw	r1, #:lower16:.LC88	@,
	movt	r1, #:upper16:.LC88	@,
	bl	seq_printf	@
	mov	r1, r6	@, tmp137
	mov	r0, r4	@, p
	movt	r5, #:upper16:.LC90	@ tmp149,
	bl	seq_printf	@
	mov	r0, r4	@, p
	movw	r1, #:lower16:.LC89	@,
	movt	r1, #:upper16:.LC89	@,
	bl	seq_printf	@
	mov	r1, r6	@, tmp137
	mov	r0, r4	@, p
	bl	seq_printf	@
	mov	r1, r5	@, tmp149
	mov	r0, r4	@, p
	bl	seq_printf	@
	mov	r1, r5	@, tmp149
	mov	r0, r4	@, p
	bl	seq_printf	@
	mov	r0, r4	@, p
	movw	r1, #:lower16:.LC91	@,
	movt	r1, #:upper16:.LC91	@,
	bl	seq_printf	@
	mov	r0, r4	@, p
	movw	r1, #:lower16:.LC92	@,
	movt	r1, #:upper16:.LC92	@,
	bl	seq_printf	@
	mov	r0, r4	@, p
	movw	r1, #:lower16:.LC93	@,
	movt	r1, #:upper16:.LC93	@,
	bl	seq_printf	@
	mov	r0, r4	@, p
	movw	r1, #:lower16:.LC94	@,
	movt	r1, #:upper16:.LC94	@,
	bl	seq_printf	@
	mov	r1, r6	@, tmp137
	mov	r0, r4	@, p
	bl	seq_printf	@
	mov	r0, r4	@, p
	movw	r1, #:lower16:.LC95	@,
	movt	r1, #:upper16:.LC95	@,
	bl	seq_printf	@
	mov	r1, r6	@, tmp137
	mov	r0, r4	@, p
	bl	seq_printf	@
	mov	r1, r5	@, tmp149
	mov	r0, r4	@, p
	bl	seq_printf	@
	mov	r1, r5	@, tmp149
	mov	r0, r4	@, p
	bl	seq_printf	@
	mov	r1, r5	@, tmp149
	mov	r0, r4	@, p
	bl	seq_printf	@
	mov	r1, r5	@, tmp149
	mov	r0, r4	@, p
	bl	seq_printf	@
	mov	r1, r5	@, tmp149
	mov	r0, r4	@, p
	bl	seq_printf	@
	mov	r0, r4	@, p
	movw	r1, #:lower16:.LC96	@,
	movt	r1, #:upper16:.LC96	@,
	bl	seq_printf	@
	mov	r0, r4	@, p
	mov	r1, r6	@, tmp137
	bl	seq_printf	@
	mov	r0, #0	@,
	ldmfd	sp, {r3, r4, r5, r6, fp, sp, pc}	@
	.fnend
	.size	vfmw_read_proc_prn, .-vfmw_read_proc_prn
	.align	2
	.global	vfmw_read_proc_dbg
	.type	vfmw_read_proc_dbg, %function
vfmw_read_proc_dbg:
	.fnstart
.LFB1643:
	@ args = 0, pretend = 0, frame = 0
	@ frame_needed = 1, uses_anonymous_args = 0
	.movsp ip
	mov	ip, sp	@,
	stmfd	sp!, {r4, r5, r6, fp, ip, lr, pc}	@,
	.pad #4
	.save {r4, r5, r6, fp, ip, lr}
	.setfp fp, ip, #-4
	sub	fp, ip, #4	@,,
	.pad #20
	sub	sp, sp, #20	@,,
	push	{lr}
	bl	__gnu_mcount_nc
	movw	r6, #:lower16:.LC98	@ tmp137,
	movw	r5, #:lower16:TracerPhyAddr	@ tmp139,
	movt	r6, #:upper16:.LC98	@ tmp137,
	movt	r5, #:upper16:TracerPhyAddr	@ tmp139,
	mov	r4, r0	@ p, p
	movw	r1, #:lower16:.LC97	@,
	movt	r1, #:upper16:.LC97	@,
	bl	seq_printf	@
	mov	r1, r6	@, tmp137
	ldr	r3, [r5, #0]	@, TracerPhyAddr
	mov	r0, r4	@, p
	movw	r2, #:lower16:.LC99	@,
	movt	r2, #:upper16:.LC99	@,
	bl	seq_printf	@
	mov	r0, r4	@, p
	movw	r1, #:lower16:.LC100	@,
	movw	r2, #:lower16:.LC101	@,
	movt	r1, #:upper16:.LC100	@,
	movt	r2, #:upper16:.LC101	@,
	movw	r3, #:lower16:.LANCHOR2	@,
	movt	r3, #:upper16:.LANCHOR2	@,
	bl	seq_printf	@
	movw	ip, #:lower16:g_PrintEnable	@ tmp146,
	movt	ip, #:upper16:g_PrintEnable	@ tmp146,
	mov	r1, r6	@, tmp137
	mov	r0, r4	@, p
	movw	r2, #:lower16:.LC102	@,
	ldr	r3, [ip, #0]	@, g_PrintEnable
	movt	r2, #:upper16:.LC102	@,
	bl	seq_printf	@
	movw	r3, #:lower16:g_TraceCtrl	@ tmp150,
	movt	r3, #:upper16:g_TraceCtrl	@ tmp150,
	mov	r1, r6	@, tmp137
	mov	r0, r4	@, p
	movw	r2, #:lower16:.LC103	@,
	ldr	r3, [r3, #0]	@, g_TraceCtrl
	movt	r2, #:upper16:.LC103	@,
	bl	seq_printf	@
	movw	r5, #:lower16:.LC104	@ tmp152,
	movw	r2, #:lower16:g_TraceBsPeriod	@ tmp154,
	movt	r5, #:upper16:.LC104	@ tmp152,
	movt	r2, #:upper16:g_TraceBsPeriod	@ tmp154,
	mov	r0, r4	@, p
	mov	r1, r5	@, tmp152
	movw	r6, #:lower16:.LC80	@ tmp164,
	ldr	r3, [r2, #0]	@, g_TraceBsPeriod
	movw	r2, #:lower16:.LC105	@,
	movt	r2, #:upper16:.LC105	@,
	movt	r6, #:upper16:.LC80	@ tmp164,
	bl	seq_printf	@
	movw	ip, #:lower16:g_TraceFramePeriod	@ tmp158,
	movt	ip, #:upper16:g_TraceFramePeriod	@ tmp158,
	mov	r1, r5	@, tmp152
	mov	r0, r4	@, p
	movw	r2, #:lower16:.LC106	@,
	ldr	r3, [ip, #0]	@, g_TraceFramePeriod
	movt	r2, #:upper16:.LC106	@,
	bl	seq_printf	@
	movw	r3, #:lower16:g_TraceImgPeriod	@ tmp162,
	movt	r3, #:upper16:g_TraceImgPeriod	@ tmp162,
	mov	r1, r5	@, tmp152
	mov	r0, r4	@, p
	movw	r2, #:lower16:.LC107	@,
	ldr	r3, [r3, #0]	@, g_TraceImgPeriod
	movt	r2, #:upper16:.LC107	@,
	bl	seq_printf	@
	mov	r1, r6	@, tmp164
	mov	r0, r4	@, p
	bl	seq_printf	@
	mov	r0, r4	@, p
	movw	r1, #:lower16:.LC108	@,
	movt	r1, #:upper16:.LC108	@,
	bl	seq_printf	@
	mov	r0, r4	@, p
	movw	r1, #:lower16:.LC109	@,
	movt	r1, #:upper16:.LC109	@,
	bl	seq_printf	@
	mov	r0, r4	@, p
	movw	r1, #:lower16:.LC110	@,
	movt	r1, #:upper16:.LC110	@,
	bl	seq_printf	@
	mov	r0, r4	@, p
	movw	r1, #:lower16:.LC111	@,
	movt	r1, #:upper16:.LC111	@,
	bl	seq_printf	@
	mov	r0, r4	@, p
	movw	r1, #:lower16:.LC112	@,
	movt	r1, #:upper16:.LC112	@,
	bl	seq_printf	@
	mov	r0, r4	@, p
	movw	r1, #:lower16:.LC113	@,
	movt	r1, #:upper16:.LC113	@,
	bl	seq_printf	@
	mov	r0, r4	@, p
	movw	r1, #:lower16:.LC114	@,
	movt	r1, #:upper16:.LC114	@,
	bl	seq_printf	@
	mov	r0, r4	@, p
	movw	r1, #:lower16:.LC115	@,
	movt	r1, #:upper16:.LC115	@,
	bl	seq_printf	@
	mov	r0, r4	@, p
	movw	r1, #:lower16:.LC116	@,
	movt	r1, #:upper16:.LC116	@,
	bl	seq_printf	@
	mov	r0, r4	@, p
	movw	r1, #:lower16:.LC117	@,
	movt	r1, #:upper16:.LC117	@,
	bl	seq_printf	@
	mov	r0, r4	@, p
	movw	r1, #:lower16:.LC118	@,
	movt	r1, #:upper16:.LC118	@,
	bl	seq_printf	@
	mov	r0, r4	@, p
	movw	r1, #:lower16:.LC119	@,
	movt	r1, #:upper16:.LC119	@,
	bl	seq_printf	@
	movw	ip, #:lower16:.LC121	@ tmp178,
	movt	ip, #:upper16:.LC121	@ tmp178,
	mov	r0, r4	@, p
	movw	r1, #:lower16:.LC120	@,
	movt	r1, #:upper16:.LC120	@,
	mov	r2, ip	@, tmp178
	mov	r3, ip	@, tmp2
	str	ip, [sp, #0]	@ tmp178,
	str	ip, [sp, #4]	@ tmp178,
	str	ip, [sp, #8]	@ tmp178,
	bl	seq_printf	@
	mov	r0, r4	@, p
	movw	r1, #:lower16:.LC122	@,
	movt	r1, #:upper16:.LC122	@,
	bl	seq_printf	@
	mov	r0, r4	@, p
	movw	r1, #:lower16:.LC123	@,
	movt	r1, #:upper16:.LC123	@,
	bl	seq_printf	@
	mov	r0, r4	@, p
	movw	r1, #:lower16:.LC124	@,
	movt	r1, #:upper16:.LC124	@,
	bl	seq_printf	@
	mov	r0, r4	@, p
	movw	r1, #:lower16:.LC125	@,
	movt	r1, #:upper16:.LC125	@,
	bl	seq_printf	@
	mov	r0, r4	@, p
	movw	r1, #:lower16:.LC126	@,
	movt	r1, #:upper16:.LC126	@,
	bl	seq_printf	@
	mov	r0, r4	@, p
	movw	r1, #:lower16:.LC127	@,
	movt	r1, #:upper16:.LC127	@,
	bl	seq_printf	@
	mov	r0, r4	@, p
	movw	r1, #:lower16:.LC128	@,
	movt	r1, #:upper16:.LC128	@,
	bl	seq_printf	@
	mov	r0, r4	@, p
	movw	r1, #:lower16:.LC129	@,
	movt	r1, #:upper16:.LC129	@,
	bl	seq_printf	@
	mov	r0, r4	@, p
	movw	r1, #:lower16:.LC130	@,
	movt	r1, #:upper16:.LC130	@,
	bl	seq_printf	@
	mov	r0, r4	@, p
	movw	r1, #:lower16:.LC131	@,
	movt	r1, #:upper16:.LC131	@,
	bl	seq_printf	@
	mov	r0, r4	@, p
	movw	r1, #:lower16:.LC132	@,
	movt	r1, #:upper16:.LC132	@,
	bl	seq_printf	@
	mov	r0, r4	@, p
	movw	r1, #:lower16:.LC133	@,
	movt	r1, #:upper16:.LC133	@,
	bl	seq_printf	@
	mov	r0, r4	@, p
	movw	r1, #:lower16:.LC134	@,
	movt	r1, #:upper16:.LC134	@,
	bl	seq_printf	@
	mov	r0, r4	@, p
	movw	r1, #:lower16:.LC135	@,
	movt	r1, #:upper16:.LC135	@,
	bl	seq_printf	@
	mov	r0, r4	@, p
	movw	r1, #:lower16:.LC136	@,
	movt	r1, #:upper16:.LC136	@,
	bl	seq_printf	@
	mov	r0, r4	@, p
	movw	r1, #:lower16:.LC137	@,
	movt	r1, #:upper16:.LC137	@,
	bl	seq_printf	@
	mov	r0, r4	@, p
	movw	r1, #:lower16:.LC138	@,
	movt	r1, #:upper16:.LC138	@,
	bl	seq_printf	@
	mov	r0, r4	@, p
	movw	r1, #:lower16:.LC139	@,
	movt	r1, #:upper16:.LC139	@,
	bl	seq_printf	@
	mov	r0, r4	@, p
	movw	r1, #:lower16:.LC140	@,
	movt	r1, #:upper16:.LC140	@,
	bl	seq_printf	@
	mov	r0, r4	@, p
	mov	r1, r6	@, tmp164
	bl	seq_printf	@
	mov	r0, #0	@,
	sub	sp, fp, #24
	ldmfd	sp, {r4, r5, r6, fp, sp, pc}
	.fnend
	.size	vfmw_read_proc_dbg, .-vfmw_read_proc_dbg
	.align	2
	.global	vfmw_read_proc
	.type	vfmw_read_proc, %function
vfmw_read_proc:
	.fnstart
.LFB1642:
	@ args = 0, pretend = 0, frame = 0
	@ frame_needed = 1, uses_anonymous_args = 0
	.movsp ip
	mov	ip, sp	@,
	stmfd	sp!, {r3, r4, r5, r6, fp, ip, lr, pc}	@,
	.pad #4
	.save {r3, r4, r5, r6, fp, ip, lr}
	.setfp fp, ip, #-4
	sub	fp, ip, #4	@,,
	push	{lr}
	bl	__gnu_mcount_nc
	movw	r4, #:lower16:.LC142	@ tmp137,
	movt	r4, #:upper16:.LC142	@ tmp137,
	mov	r6, r0	@ p, p
	movw	r1, #:lower16:.LC141	@,
	movw	r5, #:lower16:.LANCHOR0	@ tmp142,
	movt	r1, #:upper16:.LC141	@,
	movt	r5, #:upper16:.LANCHOR0	@ tmp142,
	bl	seq_printf	@
	mov	r1, r4	@, tmp137
	mov	r0, r6	@, p
	movw	r3, #:lower16:2015032000	@ tmp139,
	movw	r2, #:lower16:.LC143	@,
	movt	r3, #:upper16:2015032000	@,
	movt	r2, #:upper16:.LC143	@,
	bl	seq_printf	@
	ldr	r3, [r5, #68]	@, extra_ref
	mov	r1, r4	@, tmp137
	mov	r0, r6	@, p
	movw	r2, #:lower16:.LC144	@,
	movt	r2, #:upper16:.LC144	@,
	bl	seq_printf	@
	mov	r1, r4	@, tmp137
	ldr	r3, [r5, #72]	@, extra_disp
	mov	r0, r6	@, p
	movw	r2, #:lower16:.LC145	@,
	movt	r2, #:upper16:.LC145	@,
	bl	seq_printf	@
	mov	r1, r4	@, tmp137
	ldr	r3, [r5, #1352]	@, extra_cmd
	mov	r0, r6	@, p
	movw	r2, #:lower16:.LC146	@,
	movt	r2, #:upper16:.LC146	@,
	bl	seq_printf	@
	movw	r3, #:lower16:USE_FF_APT_EN	@ tmp154,
	movt	r3, #:upper16:USE_FF_APT_EN	@ tmp154,
	mov	r1, r4	@, tmp137
	mov	r0, r6	@, p
	movw	r2, #:lower16:.LC147	@,
	ldr	r3, [r3, #0]	@, USE_FF_APT_EN
	movt	r2, #:upper16:.LC147	@,
	bl	seq_printf	@
	mov	r0, r6	@, p
	mov	r1, r4	@, tmp137
	ldr	r3, [r5, #1356]	@, g_ResetCreateNewSave
	movw	r2, #:lower16:.LC148	@,
	movt	r2, #:upper16:.LC148	@,
	bl	seq_printf	@
	mov	r0, #0	@,
	ldmfd	sp, {r3, r4, r5, r6, fp, sp, pc}	@
	.fnend
	.size	vfmw_read_proc, .-vfmw_read_proc
	.align	2
	.global	vfmw_read_proc_priv
	.type	vfmw_read_proc_priv, %function
vfmw_read_proc_priv:
	.fnstart
.LFB1641:
	@ args = 0, pretend = 0, frame = 0
	@ frame_needed = 1, uses_anonymous_args = 0
	.movsp ip
	mov	ip, sp	@,
	stmfd	sp!, {r4, r5, r6, fp, ip, lr, pc}	@,
	.pad #4
	.save {r4, r5, r6, fp, ip, lr}
	.setfp fp, ip, #-4
	sub	fp, ip, #4	@,,
	.pad #12
	sub	sp, sp, #12	@,,
	push	{lr}
	bl	__gnu_mcount_nc
	movw	r1, #:lower16:.LC149	@,
	mov	r4, r0	@ p, p
	movt	r1, #:upper16:.LC149	@,
	bl	seq_printf	@
	movw	r5, #:lower16:.LANCHOR0	@ tmp274,
	mov	r0, r4	@, p
	movt	r5, #:upper16:.LANCHOR0	@ tmp274,
	movw	r1, #:lower16:.LC150	@,
	movw	r2, #:lower16:.LC151	@,
	movt	r1, #:upper16:.LC150	@,
	movt	r2, #:upper16:.LC151	@,
	movw	r3, #:lower16:2015032000	@,
	movt	r3, #:upper16:2015032000	@,
	bl	seq_printf	@
	mov	r0, r4	@, p
	movw	r1, #:lower16:.LC152	@,
	movt	r1, #:upper16:.LC152	@,
	bl	seq_printf	@
	ldr	ip, [r5, #1372]	@ D.43575, <variable>.u32VaVdmLoad
	movw	r6, #:lower16:-858993459	@ tmp164,
	movt	r6, #:upper16:-858993459	@ tmp164,
	mov	r0, r4	@, p
	movw	r1, #:lower16:.LC153	@,
	umull	r2, r3, r6, ip	@, tmp163, tmp164, D.43575
	movt	r1, #:upper16:.LC153	@,
	movw	r2, #:lower16:.LC154	@,
	movt	r2, #:upper16:.LC154	@,
	mov	r3, r3, lsr #3	@ tmp162, tmp163,
	add	lr, r3, r3, asl #2	@, tmp170, tmp162, tmp162,
	sub	ip, ip, lr, asl #1	@ tmp172, D.43575, tmp170,
	str	ip, [sp, #0]	@ tmp172,
	bl	seq_printf	@
	mov	r0, r4	@, p
	movw	r1, #:lower16:.LC155	@,
	movt	r1, #:upper16:.LC155	@,
	bl	seq_printf	@
	ldr	ip, [r5, #1436]	@ D.43583, <variable>.u32SaScdLoad
	mov	r2, #0	@,
	mov	r0, r4	@, p
	movw	r1, #:lower16:.LC156	@,
	movt	r1, #:upper16:.LC156	@,
	umull	lr, r3, r6, ip	@, tmp177, tmp164, D.43583
	mov	r3, r3, lsr #3	@ tmp176, tmp177,
	add	lr, r3, r3, asl #2	@, tmp184, tmp176, tmp176,
	sub	ip, ip, lr, asl #1	@ tmp186, D.43583, tmp184,
	str	ip, [sp, #0]	@ tmp186,
	bl	seq_printf	@
	mov	r0, r4	@, p
	movw	r1, #:lower16:.LC157	@,
	movt	r1, #:upper16:.LC157	@,
	bl	seq_printf	@
	movw	r3, #:lower16:g_DspDrvState	@ tmp189,
	movt	r3, #:upper16:g_DspDrvState	@ tmp189,
	mov	r2, #0	@,
	mov	r0, r4	@, p
	movw	r1, #:lower16:.LC158	@,
	ldr	r3, [r3, #0]	@, g_DspDrvState
	movt	r1, #:upper16:.LC158	@,
	bl	seq_printf	@
	mov	r0, r4	@, p
	movw	r1, #:lower16:.LC159	@,
	movt	r1, #:upper16:.LC159	@,
	bl	seq_printf	@
	ldr	r3, [r5, #0]	@ pChan, s_pstVfmwChan
	cmp	r3, #0	@ pChan,
	beq	.L846	@,
	ldr	ip, [r3, #32]	@ <variable>.MatchVdhIdPlus1, <variable>.MatchVdhIdPlus1
	movw	r2, #:lower16:192820	@ tmp194,
	movt	r2, #:upper16:192820	@ tmp194,
	movw	r1, #:lower16:.LC160	@,
	mov	r0, r4	@, p
	movt	r1, #:upper16:.LC160	@,
	ldr	r3, [r3, r2]	@ <variable>.SmInstArray.MatchScdIdPlus1, <variable>.SmInstArray.MatchScdIdPlus1
	mov	r2, #0	@,
	str	ip, [sp, #0]	@ <variable>.MatchVdhIdPlus1,
	bl	seq_printf	@
.L846:
	ldr	r3, [r5, #4]	@ pChan.3412, s_pstVfmwChan
	cmp	r3, #0	@ pChan.3412,
	beq	.L847	@,
	ldr	lr, [r3, #32]	@ <variable>.MatchVdhIdPlus1, <variable>.MatchVdhIdPlus1
	movw	r0, #:lower16:192820	@ tmp199,
	movt	r0, #:upper16:192820	@ tmp199,
	movw	r1, #:lower16:.LC160	@,
	mov	r2, #1	@,
	movt	r1, #:upper16:.LC160	@,
	ldr	r3, [r3, r0]	@ <variable>.SmInstArray.MatchScdIdPlus1, <variable>.SmInstArray.MatchScdIdPlus1
	mov	r0, r4	@, p
	str	lr, [sp, #0]	@ <variable>.MatchVdhIdPlus1,
	bl	seq_printf	@
.L847:
	ldr	r3, [r5, #8]	@ pChan.3415, s_pstVfmwChan
	cmp	r3, #0	@ pChan.3415,
	beq	.L848	@,
	ldr	ip, [r3, #32]	@ <variable>.MatchVdhIdPlus1, <variable>.MatchVdhIdPlus1
	movw	r2, #:lower16:192820	@ tmp204,
	movt	r2, #:upper16:192820	@ tmp204,
	movw	r1, #:lower16:.LC160	@,
	mov	r0, r4	@, p
	movt	r1, #:upper16:.LC160	@,
	ldr	r3, [r3, r2]	@ <variable>.SmInstArray.MatchScdIdPlus1, <variable>.SmInstArray.MatchScdIdPlus1
	mov	r2, #2	@,
	str	ip, [sp, #0]	@ <variable>.MatchVdhIdPlus1,
	bl	seq_printf	@
.L848:
	ldr	r3, [r5, #12]	@ pChan.3418, s_pstVfmwChan
	cmp	r3, #0	@ pChan.3418,
	beq	.L849	@,
	ldr	lr, [r3, #32]	@ <variable>.MatchVdhIdPlus1, <variable>.MatchVdhIdPlus1
	movw	r0, #:lower16:192820	@ tmp209,
	movt	r0, #:upper16:192820	@ tmp209,
	movw	r1, #:lower16:.LC160	@,
	mov	r2, #3	@,
	movt	r1, #:upper16:.LC160	@,
	ldr	r3, [r3, r0]	@ <variable>.SmInstArray.MatchScdIdPlus1, <variable>.SmInstArray.MatchScdIdPlus1
	mov	r0, r4	@, p
	str	lr, [sp, #0]	@ <variable>.MatchVdhIdPlus1,
	bl	seq_printf	@
.L849:
	ldr	r3, [r5, #16]	@ pChan.3421, s_pstVfmwChan
	cmp	r3, #0	@ pChan.3421,
	beq	.L850	@,
	ldr	ip, [r3, #32]	@ <variable>.MatchVdhIdPlus1, <variable>.MatchVdhIdPlus1
	movw	r2, #:lower16:192820	@ tmp214,
	movt	r2, #:upper16:192820	@ tmp214,
	movw	r1, #:lower16:.LC160	@,
	mov	r0, r4	@, p
	movt	r1, #:upper16:.LC160	@,
	ldr	r3, [r3, r2]	@ <variable>.SmInstArray.MatchScdIdPlus1, <variable>.SmInstArray.MatchScdIdPlus1
	mov	r2, #4	@,
	str	ip, [sp, #0]	@ <variable>.MatchVdhIdPlus1,
	bl	seq_printf	@
.L850:
	ldr	r3, [r5, #20]	@ pChan.3424, s_pstVfmwChan
	cmp	r3, #0	@ pChan.3424,
	beq	.L851	@,
	ldr	lr, [r3, #32]	@ <variable>.MatchVdhIdPlus1, <variable>.MatchVdhIdPlus1
	movw	r0, #:lower16:192820	@ tmp219,
	movt	r0, #:upper16:192820	@ tmp219,
	movw	r1, #:lower16:.LC160	@,
	mov	r2, #5	@,
	movt	r1, #:upper16:.LC160	@,
	ldr	r3, [r3, r0]	@ <variable>.SmInstArray.MatchScdIdPlus1, <variable>.SmInstArray.MatchScdIdPlus1
	mov	r0, r4	@, p
	str	lr, [sp, #0]	@ <variable>.MatchVdhIdPlus1,
	bl	seq_printf	@
.L851:
	ldr	r3, [r5, #24]	@ pChan.3427, s_pstVfmwChan
	cmp	r3, #0	@ pChan.3427,
	beq	.L852	@,
	ldr	ip, [r3, #32]	@ <variable>.MatchVdhIdPlus1, <variable>.MatchVdhIdPlus1
	movw	r2, #:lower16:192820	@ tmp224,
	movt	r2, #:upper16:192820	@ tmp224,
	movw	r1, #:lower16:.LC160	@,
	mov	r0, r4	@, p
	movt	r1, #:upper16:.LC160	@,
	ldr	r3, [r3, r2]	@ <variable>.SmInstArray.MatchScdIdPlus1, <variable>.SmInstArray.MatchScdIdPlus1
	mov	r2, #6	@,
	str	ip, [sp, #0]	@ <variable>.MatchVdhIdPlus1,
	bl	seq_printf	@
.L852:
	ldr	r3, [r5, #28]	@ pChan.3430, s_pstVfmwChan
	cmp	r3, #0	@ pChan.3430,
	beq	.L853	@,
	ldr	lr, [r3, #32]	@ <variable>.MatchVdhIdPlus1, <variable>.MatchVdhIdPlus1
	movw	r0, #:lower16:192820	@ tmp229,
	movt	r0, #:upper16:192820	@ tmp229,
	movw	r1, #:lower16:.LC160	@,
	mov	r2, #7	@,
	movt	r1, #:upper16:.LC160	@,
	ldr	r3, [r3, r0]	@ <variable>.SmInstArray.MatchScdIdPlus1, <variable>.SmInstArray.MatchScdIdPlus1
	mov	r0, r4	@, p
	str	lr, [sp, #0]	@ <variable>.MatchVdhIdPlus1,
	bl	seq_printf	@
.L853:
	ldr	r3, [r5, #32]	@ pChan.3433, s_pstVfmwChan
	cmp	r3, #0	@ pChan.3433,
	beq	.L854	@,
	ldr	ip, [r3, #32]	@ <variable>.MatchVdhIdPlus1, <variable>.MatchVdhIdPlus1
	movw	r2, #:lower16:192820	@ tmp234,
	movt	r2, #:upper16:192820	@ tmp234,
	movw	r1, #:lower16:.LC160	@,
	mov	r0, r4	@, p
	movt	r1, #:upper16:.LC160	@,
	ldr	r3, [r3, r2]	@ <variable>.SmInstArray.MatchScdIdPlus1, <variable>.SmInstArray.MatchScdIdPlus1
	mov	r2, #8	@,
	str	ip, [sp, #0]	@ <variable>.MatchVdhIdPlus1,
	bl	seq_printf	@
.L854:
	ldr	r3, [r5, #36]	@ pChan.3436, s_pstVfmwChan
	cmp	r3, #0	@ pChan.3436,
	beq	.L855	@,
	ldr	lr, [r3, #32]	@ <variable>.MatchVdhIdPlus1, <variable>.MatchVdhIdPlus1
	movw	r0, #:lower16:192820	@ tmp239,
	movt	r0, #:upper16:192820	@ tmp239,
	movw	r1, #:lower16:.LC160	@,
	mov	r2, #9	@,
	movt	r1, #:upper16:.LC160	@,
	ldr	r3, [r3, r0]	@ <variable>.SmInstArray.MatchScdIdPlus1, <variable>.SmInstArray.MatchScdIdPlus1
	mov	r0, r4	@, p
	str	lr, [sp, #0]	@ <variable>.MatchVdhIdPlus1,
	bl	seq_printf	@
.L855:
	ldr	r3, [r5, #40]	@ pChan.3439, s_pstVfmwChan
	cmp	r3, #0	@ pChan.3439,
	beq	.L856	@,
	ldr	ip, [r3, #32]	@ <variable>.MatchVdhIdPlus1, <variable>.MatchVdhIdPlus1
	movw	r2, #:lower16:192820	@ tmp244,
	movt	r2, #:upper16:192820	@ tmp244,
	movw	r1, #:lower16:.LC160	@,
	mov	r0, r4	@, p
	movt	r1, #:upper16:.LC160	@,
	ldr	r3, [r3, r2]	@ <variable>.SmInstArray.MatchScdIdPlus1, <variable>.SmInstArray.MatchScdIdPlus1
	mov	r2, #10	@,
	str	ip, [sp, #0]	@ <variable>.MatchVdhIdPlus1,
	bl	seq_printf	@
.L856:
	ldr	r3, [r5, #44]	@ pChan.3442, s_pstVfmwChan
	cmp	r3, #0	@ pChan.3442,
	beq	.L857	@,
	ldr	lr, [r3, #32]	@ <variable>.MatchVdhIdPlus1, <variable>.MatchVdhIdPlus1
	movw	r0, #:lower16:192820	@ tmp249,
	movt	r0, #:upper16:192820	@ tmp249,
	movw	r1, #:lower16:.LC160	@,
	mov	r2, #11	@,
	movt	r1, #:upper16:.LC160	@,
	ldr	r3, [r3, r0]	@ <variable>.SmInstArray.MatchScdIdPlus1, <variable>.SmInstArray.MatchScdIdPlus1
	mov	r0, r4	@, p
	str	lr, [sp, #0]	@ <variable>.MatchVdhIdPlus1,
	bl	seq_printf	@
.L857:
	ldr	r3, [r5, #48]	@ pChan.3445, s_pstVfmwChan
	cmp	r3, #0	@ pChan.3445,
	beq	.L858	@,
	ldr	ip, [r3, #32]	@ <variable>.MatchVdhIdPlus1, <variable>.MatchVdhIdPlus1
	movw	r2, #:lower16:192820	@ tmp254,
	movt	r2, #:upper16:192820	@ tmp254,
	movw	r1, #:lower16:.LC160	@,
	mov	r0, r4	@, p
	movt	r1, #:upper16:.LC160	@,
	ldr	r3, [r3, r2]	@ <variable>.SmInstArray.MatchScdIdPlus1, <variable>.SmInstArray.MatchScdIdPlus1
	mov	r2, #12	@,
	str	ip, [sp, #0]	@ <variable>.MatchVdhIdPlus1,
	bl	seq_printf	@
.L858:
	ldr	r3, [r5, #52]	@ pChan.3448, s_pstVfmwChan
	cmp	r3, #0	@ pChan.3448,
	beq	.L859	@,
	ldr	lr, [r3, #32]	@ <variable>.MatchVdhIdPlus1, <variable>.MatchVdhIdPlus1
	movw	r0, #:lower16:192820	@ tmp259,
	movt	r0, #:upper16:192820	@ tmp259,
	movw	r1, #:lower16:.LC160	@,
	mov	r2, #13	@,
	movt	r1, #:upper16:.LC160	@,
	ldr	r3, [r3, r0]	@ <variable>.SmInstArray.MatchScdIdPlus1, <variable>.SmInstArray.MatchScdIdPlus1
	mov	r0, r4	@, p
	str	lr, [sp, #0]	@ <variable>.MatchVdhIdPlus1,
	bl	seq_printf	@
.L859:
	ldr	r3, [r5, #56]	@ pChan.3451, s_pstVfmwChan
	cmp	r3, #0	@ pChan.3451,
	beq	.L860	@,
	ldr	ip, [r3, #32]	@ <variable>.MatchVdhIdPlus1, <variable>.MatchVdhIdPlus1
	movw	r2, #:lower16:192820	@ tmp264,
	movt	r2, #:upper16:192820	@ tmp264,
	movw	r1, #:lower16:.LC160	@,
	mov	r0, r4	@, p
	movt	r1, #:upper16:.LC160	@,
	ldr	r3, [r3, r2]	@ <variable>.SmInstArray.MatchScdIdPlus1, <variable>.SmInstArray.MatchScdIdPlus1
	mov	r2, #14	@,
	str	ip, [sp, #0]	@ <variable>.MatchVdhIdPlus1,
	bl	seq_printf	@
.L860:
	ldr	r3, [r5, #60]	@ pChan.3409, s_pstVfmwChan
	cmp	r3, #0	@ pChan.3409,
	beq	.L861	@,
	ldr	lr, [r3, #32]	@ <variable>.MatchVdhIdPlus1, <variable>.MatchVdhIdPlus1
	movw	r0, #:lower16:192820	@ tmp269,
	movt	r0, #:upper16:192820	@ tmp269,
	movw	r1, #:lower16:.LC160	@,
	mov	r2, #15	@,
	movt	r1, #:upper16:.LC160	@,
	ldr	r3, [r3, r0]	@ <variable>.SmInstArray.MatchScdIdPlus1, <variable>.SmInstArray.MatchScdIdPlus1
	mov	r0, r4	@, p
	str	lr, [sp, #0]	@ <variable>.MatchVdhIdPlus1,
	bl	seq_printf	@
.L861:
	mov	r0, r4	@, p
	movw	r1, #:lower16:.LC71	@,
	movt	r1, #:upper16:.LC71	@,
	bl	seq_printf	@
	mov	r0, #0	@,
	sub	sp, fp, #24
	ldmfd	sp, {r4, r5, r6, fp, sp, pc}
	.fnend
	.size	vfmw_read_proc_priv, .-vfmw_read_proc_priv
	.align	2
	.global	VCTRL_GetStreamSize
	.type	VCTRL_GetStreamSize, %function
VCTRL_GetStreamSize:
	.fnstart
.LFB1556:
	@ args = 0, pretend = 0, frame = 0
	@ frame_needed = 1, uses_anonymous_args = 0
	.movsp ip
	mov	ip, sp	@,
	stmfd	sp!, {fp, ip, lr, pc}	@,
	.pad #4
	.save {fp, ip, lr}
	.setfp fp, ip, #-4
	sub	fp, ip, #4	@,,
	push	{lr}
	bl	__gnu_mcount_nc
	cmp	r0, #15	@ ChanID,
	bhi	.L869	@,
	movw	r3, #:lower16:.LANCHOR0	@ tmp140,
	movt	r3, #:upper16:.LANCHOR0	@ tmp140,
	ldr	r0, [r3, r0, asl #2]	@ D.39240, s_pstVfmwChan
	cmp	r0, #0	@ D.39240,
	beq	.L870	@,
	ldr	r2, [r0, #12]	@ <variable>.s32IsOpen, <variable>.s32IsOpen
	cmp	r2, #1	@ <variable>.s32IsOpen,
	bne	.L871	@,
	add	r0, r0, #100352	@, D.39240,
	add	r0, r0, #128	@,,
	bl	GetSegStreamSize	@
	ldmfd	sp, {fp, sp, pc}	@
.L871:
	mov	r0, #0	@,
	movw	r1, #:lower16:.LC5	@,
	movw	r2, #1110	@,
	movt	r1, #:upper16:.LC5	@,
	movw	r3, #:lower16:.LC162	@,
	movt	r3, #:upper16:.LC162	@,
	bl	dprint_vfmw	@
	mvn	r0, #0	@ ret,
	ldmfd	sp, {fp, sp, pc}	@
.L869:
	mov	r0, #0	@,
	movw	r1, #:lower16:.LC5	@,
	movw	r2, #1108	@,
	movt	r1, #:upper16:.LC5	@,
	movw	r3, #:lower16:.LC6	@,
	movt	r3, #:upper16:.LC6	@,
	bl	dprint_vfmw	@
	mvn	r0, #0	@ ret,
	ldmfd	sp, {fp, sp, pc}	@
.L870:
	movw	r1, #:lower16:.LC5	@,
	movw	r2, #1109	@,
	movt	r1, #:upper16:.LC5	@,
	movw	r3, #:lower16:.LC161	@,
	movt	r3, #:upper16:.LC161	@,
	bl	dprint_vfmw	@
	mvn	r0, #0	@ ret,
	ldmfd	sp, {fp, sp, pc}	@
	.fnend
	.size	VCTRL_GetStreamSize, .-VCTRL_GetStreamSize
	.global	__aeabi_idiv
	.align	2
	.global	vfmw_read_proc_info
	.type	vfmw_read_proc_info, %function
vfmw_read_proc_info:
	.fnstart
.LFB1640:
	@ args = 0, pretend = 0, frame = 16
	@ frame_needed = 1, uses_anonymous_args = 0
	.movsp ip
	mov	ip, sp	@,
	stmfd	sp!, {r4, r5, r6, r7, r8, r9, sl, fp, ip, lr, pc}	@,
	.pad #4
	.save {r4, r5, r6, r7, r8, r9, sl, fp, ip, lr}
	.setfp fp, ip, #-4
	sub	fp, ip, #4	@,,
	.pad #28
	sub	sp, sp, #28	@,,
	push	{lr}
	bl	__gnu_mcount_nc
	movw	r1, #:lower16:g_pSmIISBase	@ tmp163,
	movt	r1, #:upper16:g_pSmIISBase	@ tmp163,
	movw	r5, #:lower16:.LANCHOR0	@ tmp262,
	movt	r5, #:upper16:.LANCHOR0	@ tmp262,
	movw	r3, #:lower16:s_pFspInst	@ tmp161,
	ldr	r2, [r1, #0]	@ g_pSmIISBase, g_pSmIISBase
	movt	r3, #:upper16:s_pFspInst	@ tmp161,
	ldr	sl, [r5, #1348]	@ chanID, g_CurProcChan
	mov	r4, r0	@ p, p
	ldr	r8, [r2, #40]	@ pInst, <variable>.pSmInstArray
	ldr	r7, [r3, sl, asl #2]	@ pFsp, s_pFspInst
	cmp	r8, #0	@ pInst,
	beq	.L873	@,
	movw	ip, #:lower16:190872	@ tmp164,
	movt	ip, #:upper16:190872	@ tmp164,
	ldr	r0, [r8, ip]	@ <variable>.Mode, <variable>.Mode
	cmp	r0, #0	@ <variable>.Mode,
	bne	.L903	@,
.L873:
	mov	r0, #0	@,
	sub	sp, fp, #40
	ldmfd	sp, {r4, r5, r6, r7, r8, r9, sl, fp, sp, pc}
.L903:
	add	r6, r8, #200	@ D.43505, pInst,
	sub	r1, fp, #52	@,,
	mov	r0, r6	@, D.43505
	bl	GetRawStreamSize	@
	cmp	r0, #0	@,
	bne	.L904	@,
.L874:
	mov	r0, r6	@, D.43505
	sub	r1, fp, #48	@,,
	bl	GetRawStreamNum	@
	cmp	r0, #0	@,
	bne	.L905	@,
.L875:
	add	r6, r8, #98304	@ D.43513, pInst,
	sub	r1, fp, #60	@,,
	add	r6, r6, #224	@ D.43513, D.43513,
	mov	r0, r6	@, D.43513
	bl	GetSegStreamSize	@
	cmp	r0, #0	@,
	bne	.L906	@,
.L876:
	mov	r0, r6	@, D.43513
	sub	r1, fp, #56	@,,
	bl	GetSegStreamNum	@
	cmp	r0, #0	@,
	bne	.L907	@,
.L877:
	movw	lr, #:lower16:190716	@ tmp183,
	movt	lr, #:upper16:190716	@ tmp183,
	ldr	r8, [r8, lr]	@ BufSize, <variable>.StreamSegArray.SegBufSize
	cmp	r8, #0	@ BufSize,
	moveq	r9, r8	@ s32percent, BufSize
	bne	.L908	@,
.L879:
	mov	r2, sl	@, chanID
	mov	r0, r4	@, p
	movw	r1, #:lower16:.LC164	@,
	movt	r1, #:upper16:.LC164	@,
	bl	seq_printf	@
	mov	r0, r4	@, p
	movw	r1, #:lower16:.LC150	@,
	movw	r2, #:lower16:.LC151	@,
	movt	r1, #:upper16:.LC150	@,
	movt	r2, #:upper16:.LC151	@,
	movw	r3, #:lower16:2015032000	@,
	movt	r3, #:upper16:2015032000	@,
	bl	seq_printf	@
	mov	r3, sl	@, chanID
	mov	r0, r4	@, p
	movw	r1, #:lower16:.LC150	@,
	movw	r2, #:lower16:.LC165	@,
	movt	r1, #:upper16:.LC150	@,
	movt	r2, #:upper16:.LC165	@,
	movw	r6, #:lower16:-858993459	@ tmp214,
	bl	seq_printf	@
	mov	r0, r4	@, p
	movw	r1, #:lower16:.LC166	@,
	movt	r1, #:upper16:.LC166	@,
	bl	seq_printf	@
	ldr	ip, [fp, #-48]	@ RawNum, RawNum
	ldr	r3, [fp, #-52]	@, RawSize
	mov	r0, r4	@, p
	movw	r1, #:lower16:.LC167	@,
	movw	r2, #:lower16:.LC168	@,
	movt	r1, #:upper16:.LC167	@,
	movt	r2, #:upper16:.LC168	@,
	str	ip, [sp, #0]	@ RawNum,
	bl	seq_printf	@
	ldr	ip, [fp, #-56]	@ SegNum, SegNum
	mov	r0, r4	@, p
	ldr	r3, [fp, #-60]	@, SegSize
	movw	r1, #:lower16:.LC167	@,
	movw	r2, #:lower16:.LC169	@,
	movt	r1, #:upper16:.LC167	@,
	movt	r2, #:upper16:.LC169	@,
	str	ip, [sp, #0]	@ SegNum,
	bl	seq_printf	@
	ldr	ip, [fp, #-60]	@ SegSize, SegSize
	mov	r3, r8	@, BufSize
	mov	r0, r4	@, p
	movw	r1, #:lower16:.LC170	@,
	movw	r2, #:lower16:.LC171	@,
	movt	r1, #:upper16:.LC170	@,
	movt	r2, #:upper16:.LC171	@,
	str	ip, [sp, #0]	@ SegSize,
	movt	r6, #:upper16:-858993459	@ tmp214,
	str	r9, [sp, #4]	@ s32percent,
	bl	seq_printf	@
	mov	r0, r4	@, p
	movw	r1, #:lower16:.LC172	@,
	movt	r1, #:upper16:.LC172	@,
	bl	seq_printf	@
	ldr	lr, [r5, #1372]	@ D.43530, <variable>.u32VaVdmLoad
	mov	r0, r4	@, p
	movw	r1, #:lower16:.LC153	@,
	movw	r2, #:lower16:.LC154	@,
	movt	r1, #:upper16:.LC153	@,
	umull	ip, r3, r6, lr	@, tmp213, tmp214, D.43530
	movt	r2, #:upper16:.LC154	@,
	mov	r3, r3, lsr #3	@ tmp212, tmp213,
	add	ip, r3, r3, asl #2	@, tmp220, tmp212, tmp212,
	sub	ip, lr, ip, asl #1	@ tmp222, D.43530, tmp220,
	str	ip, [sp, #0]	@ tmp222,
	bl	seq_printf	@
	ldr	ip, [r7, #72]	@ <variable>.stInstCfg.s32DecFsHeight, <variable>.stInstCfg.s32DecFsHeight
	ldr	r3, [r7, #68]	@ <variable>.stInstCfg.s32DecFsWidth, <variable>.stInstCfg.s32DecFsWidth
	mov	r0, r4	@, p
	movw	r1, #:lower16:.LC173	@,
	movw	r2, #:lower16:.LC174	@,
	movt	r1, #:upper16:.LC173	@,
	movt	r2, #:upper16:.LC174	@,
	str	ip, [sp, #0]	@ <variable>.stInstCfg.s32DecFsHeight,
	bl	seq_printf	@
	ldr	ip, [r7, #88]	@ <variable>.stInstCfg.s32DispFsHeight, <variable>.stInstCfg.s32DispFsHeight
	mov	r0, r4	@, p
	ldr	r3, [r7, #84]	@ <variable>.stInstCfg.s32DispFsWidth, <variable>.stInstCfg.s32DispFsWidth
	movw	r1, #:lower16:.LC173	@,
	movw	r2, #:lower16:.LC175	@,
	movt	r1, #:upper16:.LC173	@,
	movt	r2, #:upper16:.LC175	@,
	str	ip, [sp, #0]	@ <variable>.stInstCfg.s32DispFsHeight,
	bl	seq_printf	@
	ldr	ip, [r5, #1452]	@ D.43542, <variable>.u32FrFrameRate
	mov	r0, r4	@, p
	movw	r1, #:lower16:.LC176	@,
	movw	r2, #:lower16:.LC177	@,
	movt	r1, #:upper16:.LC176	@,
	umull	lr, r3, r6, ip	@, tmp235, tmp214, D.43542
	movt	r2, #:upper16:.LC177	@,
	mov	r3, r3, lsr #3	@ tmp234, tmp235,
	add	r6, r3, r3, asl #2	@, tmp242, tmp234, tmp234,
	sub	ip, ip, r6, asl #1	@ tmp244, D.43542, tmp242,
	str	ip, [sp, #0]	@ tmp244,
	bl	seq_printf	@
	ldrb	ip, [r7, #10]	@ zero_extendqisi2	@ D.43551, <variable>.s32DecFsNum
	sxtb	r6, ip	@ D.43552, D.43551
	cmp	r6, #0	@ D.43552,
	movle	r5, #0	@ usedFrameNum,
	ble	.L881	@,
	add	r3, r7, #34304	@ ivtmp.3505, pFsp,
	rsb	r0, r6, r6, asl #4	@, tmp249, D.43552, D.43552,
	mov	r5, #0	@ usedFrameNum,
	ldrsb	r1, [r3, #158]!	@ <variable>.DispState, <variable>.DispState
	mov	lr, r0, asl #2	@ D.47702, tmp249,
	sub	r2, lr, #60	@ tmp266, D.47702,
	cmp	r1, #3	@ <variable>.DispState,
	ubfx	r1, r2, #2, #1	@ tmp270, tmp266,,
	beq	.L889	@,
	ldrsb	r2, [r3, #-2]	@ <variable>.IsDecRef, <variable>.IsDecRef
	cmp	r2, #1	@ <variable>.IsDecRef,
	beq	.L889	@,
.L890:
	mov	r2, #60	@ ivtmp.3506,
	cmp	r2, lr	@ ivtmp.3506, D.47702
	add	r3, r3, r2	@ ivtmp.3505, ivtmp.3505,
	beq	.L881	@,
	cmp	r1, #0	@ tmp270,
	beq	.L884	@,
	ldrsb	r1, [r3, #0]	@ <variable>.DispState, <variable>.DispState
	cmp	r1, #3	@ <variable>.DispState,
	beq	.L892	@,
	ldrsb	r0, [r3, #-2]	@ <variable>.IsDecRef, <variable>.IsDecRef
	cmp	r0, #1	@ <variable>.IsDecRef,
	beq	.L892	@,
	add	r2, r2, #60	@ ivtmp.3506, ivtmp.3506,
	add	r3, r3, #60	@ ivtmp.3505, ivtmp.3505,
	cmp	r2, lr	@ ivtmp.3506, D.47702
	bne	.L884	@,
.L881:
	cmp	ip, #0	@ D.43551,
	bne	.L909	@,
.L886:
	mov	r3, r6	@, D.43552
	mov	r0, r4	@, p
	movw	r1, #:lower16:.LC170	@,
	movw	r2, #:lower16:.LC178	@,
	movt	r1, #:upper16:.LC170	@,
	movt	r2, #:upper16:.LC178	@,
	stmia	sp, {r5, ip}	@ phole stm
	bl	seq_printf	@
	mov	r0, r4	@, p
	movw	r1, #:lower16:.LC179	@,
	movt	r1, #:upper16:.LC179	@,
	bl	seq_printf	@
	b	.L873	@
.L910:
	ldrsb	r0, [r3, #-2]	@ <variable>.IsDecRef, <variable>.IsDecRef
	cmp	r0, #1	@ <variable>.IsDecRef,
	beq	.L882	@,
	ldrsb	r3, [r3, #60]	@ <variable>.DispState, <variable>.DispState
	cmp	r3, #3	@ <variable>.DispState,
	beq	.L896	@,
.L901:
	ldrsb	r3, [r1, #-2]	@ <variable>.IsDecRef, <variable>.IsDecRef
	cmp	r3, #1	@ <variable>.IsDecRef,
	beq	.L896	@,
.L897:
	add	r2, r2, #60	@ ivtmp.3506, tmp272,
	add	r3, r1, #60	@ ivtmp.3505, tmp271,
	cmp	r2, lr	@ ivtmp.3506, D.47702
	beq	.L881	@,
.L884:
	ldrsb	r0, [r3, #0]	@ <variable>.DispState, <variable>.DispState
	add	r2, r2, #60	@ tmp272, ivtmp.3506,
	add	r1, r3, #60	@ tmp271, ivtmp.3505,
	cmp	r0, #3	@ <variable>.DispState,
	bne	.L910	@,
.L882:
	ldrsb	r3, [r3, #60]	@ <variable>.DispState, <variable>.DispState
	add	r5, r5, #1	@ usedFrameNum, usedFrameNum,
	cmp	r3, #3	@ <variable>.DispState,
	bne	.L901	@,
.L896:
	add	r5, r5, #1	@ usedFrameNum, usedFrameNum,
	b	.L897	@
.L909:
	mov	lr, #100	@ tmp254,
	mov	r1, r6	@, D.43552
	mul	r0, lr, r5	@, tmp254, usedFrameNum
	bl	__aeabi_idiv	@
	mov	ip, r0	@ s32percent.3509,
	b	.L886	@
.L908:
	ldr	r3, [fp, #-60]	@ SegSize, SegSize
	mov	r9, #100	@ tmp186,
	mov	r1, r8	@, BufSize
	mul	r0, r9, r3	@, tmp186, SegSize
	bl	__aeabi_idiv	@
	mov	r9, r0	@ s32percent,
	b	.L879	@
.L889:
	mov	r5, #1	@ usedFrameNum,
	b	.L890	@
.L892:
	add	r2, r2, #60	@ ivtmp.3506, ivtmp.3506,
	add	r5, r5, #1	@ usedFrameNum, usedFrameNum,
	cmp	r2, lr	@ ivtmp.3506, D.47702
	add	r3, r3, #60	@ ivtmp.3505, ivtmp.3505,
	bne	.L884	@,
	b	.L881	@
.L907:
	movw	r1, #:lower16:.LC163	@,
	ldr	r2, .L911	@,
	movt	r1, #:upper16:.LC163	@,
	movw	r3, #8691	@,
	mov	r0, #0	@,
	bl	dprint_vfmw	@
	b	.L877	@
.L906:
	movw	r1, #:lower16:.LC163	@,
	ldr	r2, .L911	@,
	movt	r1, #:upper16:.LC163	@,
	movw	r3, #8686	@,
	mov	r0, #0	@,
	bl	dprint_vfmw	@
	b	.L876	@
.L905:
	movw	r1, #:lower16:.LC163	@,
	ldr	r2, .L911	@,
	movt	r1, #:upper16:.LC163	@,
	movw	r3, #8681	@,
	mov	r0, #0	@,
	bl	dprint_vfmw	@
	b	.L875	@
.L904:
	movw	r1, #:lower16:.LC163	@,
	ldr	r2, .L911	@,
	movt	r1, #:upper16:.LC163	@,
	movw	r3, #8676	@,
	mov	r0, #0	@,
	bl	dprint_vfmw	@
	b	.L874	@
.L912:
	.align	2
.L911:
	.word	.LANCHOR1+188
	.fnend
	.size	vfmw_read_proc_info, .-vfmw_read_proc_info
	.align	2
	.global	VCTRL_OutputLastFrame
	.type	VCTRL_OutputLastFrame, %function
VCTRL_OutputLastFrame:
	.fnstart
.LFB1633:
	@ args = 0, pretend = 0, frame = 0
	@ frame_needed = 1, uses_anonymous_args = 0
	.movsp ip
	mov	ip, sp	@,
	stmfd	sp!, {r4, r5, fp, ip, lr, pc}	@,
	.pad #4
	.save {r4, r5, fp, ip, lr}
	.setfp fp, ip, #-4
	sub	fp, ip, #4	@,,
	push	{lr}
	bl	__gnu_mcount_nc
	movw	r1, #:lower16:.LANCHOR0	@ tmp137,
	movt	r1, #:upper16:.LANCHOR0	@ tmp137,
	mov	r5, r0	@ ChanId, ChanId
	movw	r2, #:lower16:251488	@ tmp138,
	movt	r2, #:upper16:251488	@ tmp138,
	ldr	r0, [r1, r0, asl #2]	@ D.43289, s_pstVfmwChan
	ldr	r3, [r0, r2]	@ <variable>.stSynCtx.eVidStd, <variable>.stSynCtx.eVidStd
	cmp	r3, #16	@ <variable>.stSynCtx.eVidStd,
	ldrls	pc, [pc, r3, asl #2]	@ <variable>.stSynCtx.eVidStd
	b	.L914	@
.L927:
	.word	.L915
	.word	.L916
	.word	.L917
	.word	.L918
	.word	.L914
	.word	.L919
	.word	.L920
	.word	.L914
	.word	.L921
	.word	.L922
	.word	.L923
	.word	.L923
	.word	.L923
	.word	.L924
	.word	.L914
	.word	.L925
	.word	.L926
.L926:
	add	lr, r0, #250880	@, D.43289,
	add	r0, lr, #616	@,,
	bl	HEVCDEC_GetRemainImg	@
	mov	r4, r0	@ ret,
.L928:
	cmn	r4, #1	@ ret,
	beq	.L930	@,
	cmp	r4, #0	@ ret,
	bne	.L938	@,
	mov	r0, r5	@, ChanId
	mov	r1, r4	@, ret
	bl	VCTRL_ReportLastFrame	@
	movw	r1, #:lower16:.LC181	@,
	mov	r0, #2	@,
	movt	r1, #:upper16:.LC181	@,
	bl	dprint_vfmw	@
.L932:
	mov	r0, r4	@, ret
	ldmfd	sp, {r4, r5, fp, sp, pc}	@
.L914:
	mvn	r4, #0	@ ret,
.L930:
	mov	r0, r5	@, ChanId
	mov	r1, #1	@,
	bl	VCTRL_ReportLastFrame	@
	movw	r1, #:lower16:.LC180	@,
	mov	r0, #2	@,
	movt	r1, #:upper16:.LC180	@,
	bl	dprint_vfmw	@
	mov	r0, r4	@, ret
	ldmfd	sp, {r4, r5, fp, sp, pc}	@
.L915:
	add	ip, r0, #250880	@, D.43289,
	add	r0, ip, #616	@,,
	bl	H264DEC_GetRemainImg	@
	mov	r4, r0	@ ret,
	b	.L928	@
.L916:
	add	r4, r0, #250880	@, D.43289,
	add	r0, r4, #616	@,,
	bl	VC1DEC_GetRemainImg	@
	mov	r4, r0	@ ret,
	b	.L928	@
.L917:
	add	r4, r0, #250880	@, D.43289,
	add	r0, r4, #616	@,,
	bl	MPEG4DEC_GetRemainImg	@
	mov	r4, r0	@ ret,
	b	.L928	@
.L918:
	add	r0, r0, #250880	@, D.43289,
	add	r0, r0, #616	@,,
	bl	MPEG2DEC_GetRemainImg	@
	mov	r4, r0	@ ret,
	b	.L928	@
.L919:
	add	r0, r0, #250880	@, D.43289,
	add	r0, r0, #616	@,,
	bl	DIVX3DEC_GetRemainImg	@
	mov	r4, r0	@ ret,
	b	.L928	@
.L920:
	add	r3, r0, #250880	@, D.43289,
	add	r0, r3, #616	@,,
	bl	AVSDEC_GetRemainImg	@
	mov	r4, r0	@ ret,
	b	.L928	@
.L921:
	add	r2, r0, #250880	@, D.43289,
	add	r0, r2, #616	@,,
	bl	REAL8DEC_GetRemainImg	@
	mov	r4, r0	@ ret,
	b	.L928	@
.L922:
	add	r1, r0, #250880	@, D.43289,
	add	r0, r1, #616	@,,
	bl	REAL9DEC_GetRemainImg	@
	mov	r4, r0	@ ret,
	b	.L928	@
.L923:
	add	ip, r0, #250880	@, D.43289,
	add	r0, ip, #616	@,,
	bl	VP6DEC_GetRemainImg	@
	mov	r4, r0	@ ret,
	b	.L928	@
.L924:
	add	lr, r0, #250880	@, D.43289,
	add	r0, lr, #616	@,,
	bl	VP8DEC_GetRemainImg	@
	mov	r4, r0	@ ret,
	b	.L928	@
.L925:
	add	r3, r0, #250880	@, D.43289,
	add	r0, r3, #616	@,,
	bl	MVC_DEC_GetRemainImg	@
	mov	r4, r0	@ ret,
	b	.L928	@
.L938:
	movw	r2, #:lower16:g_chipID	@ tmp166,
	movt	r2, #:upper16:g_chipID	@ tmp166,
	ldr	r3, [r2, #0]	@ g_chipID, g_chipID
	cmp	r3, #10	@ g_chipID,
	bgt	.L935	@,
	cmp	r3, #8	@ g_chipID,
	bge	.L934	@,
	cmp	r3, #0	@ g_chipID,
	blt	.L932	@,
	cmp	r3, #5	@ g_chipID,
	bgt	.L939	@,
	mov	r0, r5	@, ChanId
	mov	r1, r4	@, ret
	bl	VCTRL_ReportLastFrame	@
	sub	r2, r4, #2	@, ret,
	movw	r1, #:lower16:.LC182	@,
	mov	r0, #2	@,
	movt	r1, #:upper16:.LC182	@,
	bl	dprint_vfmw	@
	mov	r0, r4	@, ret
	ldmfd	sp, {r4, r5, fp, sp, pc}	@
.L935:
	cmp	r3, #51	@ g_chipID,
	blt	.L932	@,
	cmp	r3, #52	@ g_chipID,
	bgt	.L940	@,
.L934:
	mov	r0, r5	@, ChanId
	mov	r1, r4	@, ret
	bl	VCTRL_ReportLastFrame	@
	sub	r2, r4, #2	@, ret,
	movw	r1, #:lower16:.LC182	@,
	mov	r0, #2	@,
	movt	r1, #:upper16:.LC182	@,
	bl	dprint_vfmw	@
	mov	r0, r4	@, ret
	ldmfd	sp, {r4, r5, fp, sp, pc}	@
.L940:
	sub	r1, r3, #100	@ tmp168, g_chipID,
	cmp	r1, #1	@ tmp168,
	bhi	.L932	@,
	b	.L934	@
.L939:
	cmp	r3, #6	@ g_chipID,
	bne	.L932	@,
	b	.L934	@
	.fnend
	.size	VCTRL_OutputLastFrame, .-VCTRL_OutputLastFrame
	.align	2
	.global	VCTRL_RlsAllFrameNode
	.type	VCTRL_RlsAllFrameNode, %function
VCTRL_RlsAllFrameNode:
	.fnstart
.LFB1563:
	@ args = 0, pretend = 0, frame = 0
	@ frame_needed = 1, uses_anonymous_args = 0
	.movsp ip
	mov	ip, sp	@,
	stmfd	sp!, {r3, r4, r5, r6, r7, r8, r9, sl, fp, ip, lr, pc}	@,
	.pad #4
	.save {r3, r4, r5, r6, r7, r8, r9, sl, fp, ip, lr}
	.setfp fp, ip, #-4
	sub	fp, ip, #4	@,,
	push	{lr}
	bl	__gnu_mcount_nc
	mov	r8, #0	@ i,
	movw	r5, #:lower16:.LANCHOR0	@ tmp199,
	mov	r6, r0	@ ChanID, ChanID
	movt	r5, #:upper16:.LANCHOR0	@ tmp199,
	mov	r0, r8	@ s32Ret, i
	b	.L944	@
.L943:
	add	r2, r9, r8	@ tmp166, tmp203, i
	mov	r8, r2, asl #2	@ tmp167, tmp166,
	add	r1, r8, sl	@ tmp168, tmp167, D.39426
	add	r0, r1, #248832	@ tmp177, tmp168,
	add	lr, r0, #400	@ tmp177, tmp177,
	add	sl, r0, #408	@ tmp169, tmp169,
	ldr	r1, [lr, #4]	@, <variable>.stFrameBuffer.VirAddr
	ldmia	sl, {r0, r2}	@ phole ldm
	bl	MEM_DelMemRecord	@
	ldr	r3, [r5, r6, asl #2]	@ tmp188, s_pstVfmwChan
	mvn	r1, #0	@,
	add	ip, r8, r3	@ tmp194, tmp167, tmp188
	add	r2, ip, #248832	@ tmp195, tmp194,
	add	r8, r2, #416	@ tmp195, tmp195,
	strb	r1, [r8, #0]	@, <variable>.u8BufferNodeState
.L942:
	ldr	r8, [r5, r6, asl #2]	@ D.39426, s_pstVfmwChan
	add	r1, r7, r4	@ tmp213, tmp212, tmp208
	add	r2, r8, r1, asl #2	@, tmp215, D.39426, tmp213,
	add	r3, r2, #248832	@ tmp216, tmp215,
	add	ip, r3, #416	@ tmp216, tmp216,
	ldrb	r3, [ip, #0]	@ zero_extendqisi2	@ D.39428, <variable>.u8BufferNodeState
	cmp	r3, #255	@ D.39428,
	beq	.L948	@,
	cmp	r3, #1	@ D.39428,
	beq	.L952	@,
.L949:
	add	r2, r7, r4	@ tmp219, tmp212, tmp208
	mov	r7, r2, asl #2	@ tmp220, tmp219,
	add	r8, r7, r8	@ tmp221, tmp220, D.39426
	add	r3, r8, #248832	@ tmp225, tmp221,
	mvn	r8, #0	@,
	add	lr, r3, #408	@ tmp222, tmp222,
	add	r0, r3, #400	@ tmp225, tmp225,
	ldr	r2, [lr, #4]	@, <variable>.stFrameBuffer.Length
	ldr	r1, [r0, #4]	@, <variable>.stFrameBuffer.VirAddr
	ldr	r0, [lr, #0]	@, <variable>.stFrameBuffer.PhyAddr
	bl	MEM_DelMemRecord	@
	ldr	ip, [r5, r6, asl #2]	@ tmp228, s_pstVfmwChan
	add	r2, r7, ip	@ tmp230, tmp220, tmp228
	add	r7, r2, #248832	@ tmp231, tmp230,
	add	r7, r7, #416	@ tmp231, tmp231,
	strb	r8, [r7, #0]	@, <variable>.u8BufferNodeState
.L948:
	add	r8, r4, #1	@ i, tmp208,
	cmp	r8, #64	@ i,
	beq	.L954	@,
.L944:
	mov	r9, r8, asl #2	@ tmp203, i,
	ldr	sl, [r5, r6, asl #2]	@ D.39426, s_pstVfmwChan
	add	r2, r9, r8	@ tmp143, tmp203, i
	add	r4, r8, #1	@ tmp208, i,
	add	r2, sl, r2, asl #2	@, tmp145, D.39426, tmp143,
	mov	r7, r4, asl #2	@ tmp212, tmp208,
	add	r1, r2, #248832	@ tmp146, tmp145,
	add	r3, r1, #416	@ tmp146, tmp146,
	ldrb	r3, [r3, #0]	@ zero_extendqisi2	@ D.39428, <variable>.u8BufferNodeState
	cmp	r3, #255	@ D.39428,
	beq	.L942	@,
	cmp	r3, #1	@ D.39428,
	bne	.L943	@,
	add	r0, r2, #248832	@ tmp161, tmp145,
	add	ip, r0, #400	@ tmp161, tmp161,
	add	lr, r0, #408	@ tmp153, tmp153,
	ldr	r1, [ip, #4]	@, <variable>.stFrameBuffer.VirAddr
	ldr	r0, [lr, #0]	@, <variable>.stFrameBuffer.PhyAddr
	bl	MEM_ReleaseMemBlock	@
	b	.L943	@
.L952:
	add	r0, r2, #248832	@ tmp235, tmp215,
	add	ip, r0, #400	@ tmp235, tmp235,
	add	lr, r0, #408	@ tmp233, tmp233,
	ldr	r1, [ip, #4]	@, <variable>.stFrameBuffer.VirAddr
	ldr	r0, [lr, #0]	@, <variable>.stFrameBuffer.PhyAddr
	bl	MEM_ReleaseMemBlock	@
	b	.L949	@
.L954:
	ldmfd	sp, {r3, r4, r5, r6, r7, r8, r9, sl, fp, sp, pc}	@
	.fnend
	.size	VCTRL_RlsAllFrameNode, .-VCTRL_RlsAllFrameNode
	.align	2
	.type	VCTRL_AllocMemPre, %function
VCTRL_AllocMemPre:
	.fnstart
.LFB1663:
	@ args = 0, pretend = 0, frame = 16
	@ frame_needed = 1, uses_anonymous_args = 0
	.movsp ip
	mov	ip, sp	@,
	stmfd	sp!, {r4, r5, r6, r7, r8, r9, sl, fp, ip, lr, pc}	@,
	.pad #4
	.save {r4, r5, r6, r7, r8, r9, sl, fp, ip, lr}
	.setfp fp, ip, #-4
	sub	fp, ip, #4	@,,
	.pad #28
	sub	sp, sp, #28	@,,
	push	{lr}
	bl	__gnu_mcount_nc
	movw	r8, #:lower16:.LANCHOR0	@ tmp249,
	movt	r8, #:upper16:.LANCHOR0	@ tmp249,
	mov	r5, r1	@ s32FrmNum, s32FrmNum
	movw	r3, #:lower16:249200	@ tmp150,
	movt	r3, #:upper16:249200	@ tmp150,
	ldr	r2, [r8, r0, asl #2]	@ prephitmp.3597, s_pstVfmwChan
	mov	r4, r0	@ ChanID, ChanID
	ldr	r1, [r2, #216]	@, <variable>.stChanMem_vdh.PhyAddr
	str	r1, [fp, #-52]	@, %sfp
	ldr	ip, [r2, #212]	@, <variable>.stChanMem_vdh.VirAddr
	cmp	ip, #0	@,
	cmpne	r1, #0	@,,
	str	ip, [fp, #-48]	@, %sfp
	ldr	r9, [r2, r3]	@ s32FrameSize, <variable>.s32CurFsSize
	beq	.L956	@,
	cmp	r5, #63	@ s32FrmNum,
	bgt	.L956	@,
	mov	sl, #0	@ ivtmp.3623,
	str	sl, [fp, #-56]	@ ivtmp.3623, %sfp
	mov	r6, sl	@ i, ivtmp.3623
	mov	r7, sl	@ s32AllocedFrameNum, ivtmp.3623
	b	.L961	@
.L957:
	cmp	r5, r7	@ s32FrmNum, s32AllocedFrameNum
	ble	.L959	@,
	add	r6, r6, #1	@ i, i,
	add	ip, sl, r9	@ ivtmp.3623, ivtmp.3623, s32FrameSize
	cmp	r6, #64	@ i,
	mov	sl, r6	@ tmp252, i
	beq	.L974	@,
.L960:
	add	r1, r6, r6, asl #2	@, tmp259, tmp252, tmp252,
	ldr	r0, [r8, r4, asl #2]	@ prephitmp.3597, s_pstVfmwChan
	cmp	r7, r5	@ s32AllocedFrameNum, s32FrmNum
	movge	r3, #0	@, prephitmp.3599
	movlt	r3, #1	@, prephitmp.3599
	mov	r1, r1, asl #2	@ tmp260, tmp259,
	add	r0, r1, r0	@ tmp261, tmp260, prephitmp.3597
	add	r2, r0, #248832	@ tmp262, tmp261,
	add	r2, r2, #416	@ tmp262, tmp262,
	ldrb	r2, [r2, #0]	@ zero_extendqisi2	@ <variable>.u8BufferNodeState, <variable>.u8BufferNodeState
	cmp	r2, #255	@ <variable>.u8BufferNodeState,
	movne	r2, #0	@, tmp267
	andeq	r2, r3, #1	@,, tmp267, prephitmp.3599
	cmp	r2, #0	@ tmp267,
	bne	.L975	@,
	cmp	r5, r7	@ s32FrmNum, s32AllocedFrameNum
	ble	.L959	@,
.L970:
	add	r6, sl, #1	@ i, tmp252,
	ldr	r0, [r8, r4, asl #2]	@ prephitmp.3597, s_pstVfmwChan
	cmp	r7, r5	@ s32AllocedFrameNum, s32FrmNum
	movge	r3, #0	@, prephitmp.3599
	movlt	r3, #1	@, prephitmp.3599
	add	ip, ip, r9	@ ivtmp.3623, ivtmp.3623, s32FrameSize
	add	r1, r6, r6, asl #2	@, tmp294, i, i,
	mov	r1, r1, asl #2	@ tmp295, tmp294,
	add	r0, r1, r0	@ tmp296, tmp295, prephitmp.3597
	add	r2, r0, #248832	@ tmp297, tmp296,
	add	r2, r2, #416	@ tmp297, tmp297,
	ldrb	r2, [r2, #0]	@ zero_extendqisi2	@ <variable>.u8BufferNodeState, <variable>.u8BufferNodeState
	cmp	r2, #255	@ <variable>.u8BufferNodeState,
	movne	r2, #0	@, tmp302
	andeq	r2, r3, #1	@,, tmp302, prephitmp.3599
	cmp	r2, #0	@ tmp302,
	bne	.L971	@,
	cmp	r5, r7	@ s32FrmNum, s32AllocedFrameNum
	ble	.L959	@,
.L972:
	ldr	r2, [r8, r4, asl #2]	@ prephitmp.3597, s_pstVfmwChan
	add	r6, sl, #2	@ i, tmp252,
	add	sl, ip, r9	@ ivtmp.3623, ivtmp.3623, s32FrameSize
.L961:
	add	r0, r6, r6, asl #2	@, tmp163, i, i,
	cmp	r7, r5	@ s32AllocedFrameNum, s32FrmNum
	movge	r3, #0	@, prephitmp.3599
	movlt	r3, #1	@, prephitmp.3599
	mov	r0, r0, asl #2	@ tmp164, tmp163,
	add	r2, r0, r2	@ tmp165, tmp164, prephitmp.3597
	add	ip, r2, #248832	@ tmp166, tmp165,
	add	r1, ip, #416	@ tmp166, tmp166,
	ldrb	ip, [r1, #0]	@ zero_extendqisi2	@ <variable>.u8BufferNodeState, <variable>.u8BufferNodeState
	cmp	ip, #255	@ <variable>.u8BufferNodeState,
	movne	r1, #0	@, tmp172
	andeq	r1, r3, #1	@,, tmp172, prephitmp.3599
	cmp	r1, #0	@ tmp172,
	beq	.L957	@,
	add	ip, r2, #248832	@ tmp179, tmp165,
	ldr	lr, [fp, #-52]	@, %sfp
	add	r2, ip, #408	@ tmp179, tmp179,
	ldr	r1, [fp, #-48]	@, %sfp
	add	r3, sl, lr	@ tmp180, ivtmp.3623,
	add	r6, r6, #1	@ i, i,
	str	r3, [r2, #0]	@ tmp180, <variable>.stFrameBuffer.PhyAddr
	add	lr, sl, r1	@ tmp190, ivtmp.3623,
	ldr	ip, [r8, r4, asl #2]	@ tmp182, s_pstVfmwChan
	add	r7, r7, #1	@ s32AllocedFrameNum, s32AllocedFrameNum,
	add	r1, r0, ip	@ tmp188, tmp164, tmp182
	add	r2, r1, #248832	@ tmp189, tmp188,
	add	r3, r2, #400	@ tmp189, tmp189,
	str	lr, [r3, #4]	@ tmp190, <variable>.stFrameBuffer.VirAddr
	ldr	ip, [r8, r4, asl #2]	@ tmp192, s_pstVfmwChan
	add	r1, r0, ip	@ tmp198, tmp164, tmp192
	add	r2, r1, #248832	@ tmp199, tmp198,
	add	r3, r2, #408	@ tmp199, tmp199,
	mov	r2, #0	@,
	str	r9, [r3, #4]	@ s32FrameSize, <variable>.stFrameBuffer.Length
	ldr	lr, [r8, r4, asl #2]	@ tmp201, s_pstVfmwChan
	add	ip, r0, lr	@ tmp207, tmp164, tmp201
	add	r1, ip, #248832	@ tmp208, tmp207,
	add	r3, r1, #416	@ tmp208, tmp208,
	strb	r2, [r3, #0]	@, <variable>.u8BufferNodeState
	ldr	lr, [r8, r4, asl #2]	@ temp.3629, s_pstVfmwChan
	add	ip, r0, lr	@ tmp217, tmp164, temp.3629
	add	r2, ip, #248832	@ tmp226, tmp217,
	add	lr, r2, #408	@ tmp218, tmp218,
	add	r3, r2, #400	@ tmp226, tmp226,
	ldmia	lr, {r0, r2}	@ phole ldm
	ldr	r1, [r3, #4]	@, <variable>.stFrameBuffer.VirAddr
	bl	MEM_AddMemRecord	@
	cmp	r6, #64	@ i,
	add	ip, sl, r9	@ ivtmp.3623, ivtmp.3623, s32FrameSize
	mov	sl, r6	@ tmp252, i
	str	r0, [fp, #-56]	@, %sfp
	bne	.L960	@,
.L974:
	cmp	r7, r5	@ s32AllocedFrameNum, s32FrmNum
	movge	r3, #0	@, prephitmp.3599
	movlt	r3, #1	@, prephitmp.3599
.L959:
	cmp	r6, #64	@ i,
	movne	r3, #0	@, tmp244
	andeq	r3, r3, #1	@,, tmp244, prephitmp.3599
	cmp	r3, #0	@ tmp244,
	bne	.L976	@,
.L962:
	ldr	r0, [fp, #-56]	@, %sfp
	sub	sp, fp, #40
	ldmfd	sp, {r4, r5, r6, r7, r8, r9, sl, fp, sp, pc}
.L975:
	ldr	r2, [fp, #-52]	@, %sfp
	add	r6, r0, #248832	@ tmp268, tmp261,
	ldr	lr, [fp, #-48]	@, %sfp
	add	r7, r7, #1	@ s32AllocedFrameNum, s32AllocedFrameNum,
	add	r3, ip, r2	@ tmp269, ivtmp.3623,
	add	r2, r6, #408	@ tmp268, tmp268,
	add	r6, ip, lr	@ tmp273, ivtmp.3623,
	str	r3, [r2, #0]	@ tmp269, <variable>.stFrameBuffer.PhyAddr
	ldr	r0, [r8, r4, asl #2]	@ tmp270, s_pstVfmwChan
	add	r2, r1, r0	@ tmp271, tmp260, tmp270
	add	lr, r2, #248832	@ tmp272, tmp271,
	add	r3, lr, #400	@ tmp272, tmp272,
	str	r6, [r3, #4]	@ tmp273, <variable>.stFrameBuffer.VirAddr
	ldr	r0, [r8, r4, asl #2]	@ tmp274, s_pstVfmwChan
	add	r2, r1, r0	@ tmp275, tmp260, tmp274
	add	lr, r2, #248832	@ tmp276, tmp275,
	add	r6, lr, #408	@ tmp276, tmp276,
	str	r9, [r6, #4]	@ s32FrameSize, <variable>.stFrameBuffer.Length
	mov	r6, #0	@,
	ldr	r3, [r8, r4, asl #2]	@ tmp277, s_pstVfmwChan
	add	r0, r1, r3	@ tmp278, tmp260, tmp277
	add	r2, r0, #248832	@ tmp279, tmp278,
	add	lr, r2, #416	@ tmp279, tmp279,
	strb	r6, [lr, #0]	@, <variable>.u8BufferNodeState
	ldr	r3, [r8, r4, asl #2]	@ temp.3629, s_pstVfmwChan
	add	r1, r1, r3	@ tmp282, tmp260, temp.3629
	add	r2, r1, #248832	@ tmp285, tmp282,
	add	lr, r2, #400	@ tmp285, tmp285,
	add	r6, r2, #408	@ tmp283, tmp283,
	ldr	r1, [lr, #4]	@, <variable>.stFrameBuffer.VirAddr
	ldmia	r6, {r0, r2}	@ phole ldm
	str	ip, [fp, #-60]	@,
	bl	MEM_AddMemRecord	@
	ldr	ip, [fp, #-60]	@,
	str	r0, [fp, #-56]	@, %sfp
	b	.L970	@
.L971:
	ldr	r2, [fp, #-52]	@, %sfp
	add	r6, r0, #248832	@ tmp303, tmp296,
	ldr	lr, [fp, #-48]	@, %sfp
	add	r7, r7, #1	@ s32AllocedFrameNum, s32AllocedFrameNum,
	add	r3, ip, r2	@ tmp304, ivtmp.3623,
	add	r2, r6, #408	@ tmp303, tmp303,
	add	r6, ip, lr	@ tmp308, ivtmp.3623,
	str	r3, [r2, #0]	@ tmp304, <variable>.stFrameBuffer.PhyAddr
	ldr	r0, [r8, r4, asl #2]	@ tmp305, s_pstVfmwChan
	add	r2, r1, r0	@ tmp306, tmp295, tmp305
	add	lr, r2, #248832	@ tmp307, tmp306,
	add	r3, lr, #400	@ tmp307, tmp307,
	str	r6, [r3, #4]	@ tmp308, <variable>.stFrameBuffer.VirAddr
	ldr	r0, [r8, r4, asl #2]	@ tmp309, s_pstVfmwChan
	add	r2, r1, r0	@ tmp310, tmp295, tmp309
	add	r6, r2, #248832	@ tmp311, tmp310,
	add	lr, r6, #408	@ tmp311, tmp311,
	str	r9, [lr, #4]	@ s32FrameSize, <variable>.stFrameBuffer.Length
	mov	lr, #0	@,
	ldr	r3, [r8, r4, asl #2]	@ tmp312, s_pstVfmwChan
	add	r0, r1, r3	@ tmp313, tmp295, tmp312
	add	r2, r0, #248832	@ tmp314, tmp313,
	add	r6, r2, #416	@ tmp314, tmp314,
	strb	lr, [r6, #0]	@, <variable>.u8BufferNodeState
	ldr	r3, [r8, r4, asl #2]	@ temp.3629, s_pstVfmwChan
	add	r0, r1, r3	@ tmp317, tmp295, temp.3629
	add	r6, r0, #248832	@ tmp320, tmp317,
	add	r3, r6, #408	@ tmp318, tmp318,
	add	lr, r6, #400	@ tmp320, tmp320,
	ldr	r2, [r3, #4]	@, <variable>.stFrameBuffer.Length
	ldr	r1, [lr, #4]	@, <variable>.stFrameBuffer.VirAddr
	ldr	r0, [r3, #0]	@, <variable>.stFrameBuffer.PhyAddr
	str	ip, [fp, #-60]	@,
	bl	MEM_AddMemRecord	@
	ldr	ip, [fp, #-60]	@,
	str	r0, [fp, #-56]	@, %sfp
	b	.L972	@
.L956:
	ldr	r3, [fp, #-48]	@, %sfp
	mov	r0, #31	@,
	ldr	r2, [fp, #-52]	@, %sfp
	movw	r1, #:lower16:.LC183	@,
	movt	r1, #:upper16:.LC183	@,
	str	r5, [sp, #0]	@ s32FrmNum,
	bl	dprint_vfmw	@
	mvn	r3, #0	@,
	str	r3, [fp, #-56]	@, %sfp
	b	.L962	@
.L976:
	mov	r2, r5	@, s32FrmNum
	mov	r3, r7	@, s32AllocedFrameNum
	mov	r0, #31	@,
	movw	r1, #:lower16:.LC184	@,
	movt	r1, #:upper16:.LC184	@,
	bl	dprint_vfmw	@
	mov	r0, r4	@, ChanID
	bl	VCTRL_RlsAllFrameNode	@
	cmp	r0, #0	@,
	mvneq	r2, #0	@,
	streq	r2, [fp, #-56]	@, %sfp
	beq	.L962	@,
	mov	r2, r4	@, ChanID
	mov	r0, #31	@,
	movw	r1, #:lower16:.LC185	@,
	movt	r1, #:upper16:.LC185	@,
	bl	dprint_vfmw	@
	mvn	ip, #0	@,
	str	ip, [fp, #-56]	@, %sfp
	b	.L962	@
	.fnend
	.size	VCTRL_AllocMemPre, .-VCTRL_AllocMemPre
	.align	2
	.type	VCTRL_AllocMemMMZ, %function
VCTRL_AllocMemMMZ:
	.fnstart
.LFB1664:
	@ args = 0, pretend = 0, frame = 32
	@ frame_needed = 1, uses_anonymous_args = 0
	.movsp ip
	mov	ip, sp	@,
	stmfd	sp!, {r4, r5, r6, r7, r8, r9, sl, fp, ip, lr, pc}	@,
	.pad #4
	.save {r4, r5, r6, r7, r8, r9, sl, fp, ip, lr}
	.setfp fp, ip, #-4
	sub	fp, ip, #4	@,,
	.pad #44
	sub	sp, sp, #44	@,,
	push	{lr}
	bl	__gnu_mcount_nc
	movw	r5, #:lower16:.LANCHOR0	@ tmp218,
	movt	r5, #:upper16:.LANCHOR0	@ tmp218,
	str	r1, [fp, #-60]	@ s32FrmNum, %sfp
	mov	r6, r0	@ ChanID, ChanID
	movw	r8, #:lower16:249200	@ tmp147,
	ldr	r7, [r5, r0, asl #2]	@ prephitmp.3652, s_pstVfmwChan
	mov	r0, #0	@,
	str	r0, [fp, #-52]	@, %sfp
	movt	r8, #:upper16:249200	@ tmp147,
	mov	r4, r0	@ s32Times,
	mov	sl, r0	@ i, s32Times
	ldr	r2, [r7, #1892]	@ <variable>.stSynExtraData.stChanOption.s32DelayTime, <variable>.stSynExtraData.stChanOption.s32DelayTime
	ldr	r9, [r7, r8]	@ s32FrameSize, <variable>.s32CurFsSize
	mov	r8, r0	@ tmp227, s32Ret
	str	r4, [fp, #-72]	@ s32Times, %sfp
	add	r1, r2, r2, lsr #31	@, tmp150, <variable>.stSynExtraData.stChanOption.s32DelayTime, <variable>.stSynExtraData.stChanOption.s32DelayTime,
	mov	r3, r1, asr #1	@, tmp150,
	str	r3, [fp, #-48]	@, %sfp
	b	.L984	@
.L978:
	ldr	r3, [fp, #-60]	@, %sfp
	ldr	r1, [fp, #-52]	@, %sfp
	cmp	r3, r1	@,
	ble	.L983	@,
	add	sl, sl, #1	@ i, i,
	cmp	sl, #64	@ i,
	beq	.L981	@,
.L991:
	ldr	r7, [r5, r6, asl #2]	@ prephitmp.3652, s_pstVfmwChan
.L984:
	mov	ip, sl, asl #2	@, i,
	str	ip, [fp, #-56]	@, %sfp
	add	r2, ip, sl	@ tmp157,, i
	ldr	ip, [fp, #-52]	@, %sfp
	mov	r2, r2, asl #2	@ tmp158, tmp157,
	add	r1, r2, r7	@ tmp159, tmp158, prephitmp.3652
	add	r3, r1, #248832	@ tmp160, tmp159,
	ldr	r1, [fp, #-60]	@, %sfp
	add	r4, r3, #416	@ tmp160, tmp160,
	ldrb	r3, [r4, #0]	@ zero_extendqisi2	@ <variable>.u8BufferNodeState, <variable>.u8BufferNodeState
	cmp	ip, r1	@,
	movge	r4, #0	@,
	movlt	r4, #1	@,
	cmp	r3, #255	@ <variable>.u8BufferNodeState,
	movne	r4, #0	@,,
	cmp	r4, #0	@ tmp166,
	beq	.L978	@,
	add	r3, r2, #248832	@ tmp171, tmp158,
	mov	r1, r8	@, tmp227
	add	lr, r3, #400	@ tmp171, tmp171,
	movw	r0, #:lower16:.LC186	@,
	add	r7, r7, lr	@ MEM_RECORD, prephitmp.3652, tmp171
	movt	r0, #:upper16:.LC186	@,
	mov	r2, r9	@, s32FrameSize
	str	r8, [sp, #0]	@ tmp227,
	mov	r3, r7	@, MEM_RECORD
	str	lr, [fp, #-68]	@,
	bl	MEM_AllocMemBlock	@
	ldr	r1, [fp, #-48]	@, %sfp
	ldr	r3, [fp, #-72]	@, %sfp
	ldr	ip, [fp, #-68]	@,
	cmp	r0, #0	@ s32Ret,
	cmpne	r1, r3	@,,
	ble	.L979	@,
	str	sl, [fp, #-64]	@ i, %sfp
	mov	r4, r3	@ s32Times,
	mov	sl, ip	@ tmp223, tmp223
.L987:
	mov	r0, #2	@,
	add	r4, r4, #1	@ s32Times, s32Times,
	bl	msleep	@
	ldr	r7, [r5, r6, asl #2]	@ tmp188, s_pstVfmwChan
	mov	r2, r9	@, s32FrameSize
	movw	r0, #:lower16:.LC186	@,
	add	r7, sl, r7	@ MEM_RECORD, tmp223, tmp188
	movt	r0, #:upper16:.LC186	@,
	mov	r1, r8	@, tmp227
	str	r8, [sp, #0]	@ tmp227,
	mov	r3, r7	@, MEM_RECORD
	bl	MEM_AllocMemBlock	@
	ldr	r2, [fp, #-48]	@, %sfp
	cmp	r0, #0	@ s32Ret,
	cmpne	r2, r4	@,, s32Times
	bgt	.L987	@,
	ldr	sl, [fp, #-64]	@ i, %sfp
	str	r4, [fp, #-72]	@ s32Times, %sfp
.L979:
	cmp	r0, #0	@ s32Ret,
	bne	.L981	@,
	ldr	lr, [fp, #-52]	@, %sfp
	ldr	r2, [r7, #12]	@, <variable>.Length
	add	r0, lr, #1	@,,
	str	r0, [fp, #-52]	@, %sfp
	ldr	r1, [r7, #4]	@, <variable>.VirAddr
	ldr	r0, [r7, #8]	@, <variable>.PhyAddr
	bl	MEM_AddMemRecord	@
	ldr	ip, [fp, #-56]	@, %sfp
	ldr	r3, [r5, r6, asl #2]	@ tmp201, s_pstVfmwChan
	add	r2, ip, sl	@ tmp205,, i
	add	sl, sl, #1	@ i, i,
	cmp	sl, #64	@ i,
	add	r1, r3, r2, asl #2	@, tmp207, tmp201, tmp205,
	add	r4, r1, #248832	@ tmp208, tmp207,
	add	ip, r4, #416	@ tmp208, tmp208,
	mov	r4, #1	@,
	strb	r4, [ip, #0]	@, <variable>.u8BufferNodeState
	bne	.L991	@,
.L981:
	ldr	r2, [fp, #-60]	@, %sfp
	ldr	r3, [fp, #-52]	@, %sfp
	cmp	r2, r3	@,
	bgt	.L992	@,
.L983:
	sub	sp, fp, #40
	ldmfd	sp, {r4, r5, r6, r7, r8, r9, sl, fp, sp, pc}
.L992:
	ldr	r4, [fp, #-60]	@, %sfp
	mov	r2, r6	@, ChanID
	mov	r0, #31	@,
	movw	r1, #:lower16:.LC187	@,
	movt	r1, #:upper16:.LC187	@,
	stmia	sp, {r4, sl}	@ phole stm
	bl	dprint_vfmw	@
	mov	r0, r6	@, ChanID
	bl	VCTRL_RlsAllFrameNode	@
	cmp	r0, #0	@,
	mvneq	r0, #0	@ s32Ret,
	beq	.L983	@
.L985:
	mov	r0, #31	@,
	movw	r1, #:lower16:.LC188	@,
	movt	r1, #:upper16:.LC188	@,
	bl	dprint_vfmw	@
	mvn	r0, #0	@ s32Ret,
	b	.L983	@
	.fnend
	.size	VCTRL_AllocMemMMZ, .-VCTRL_AllocMemMMZ
	.align	2
	.global	VCTRL_RequestChanMem
	.type	VCTRL_RequestChanMem, %function
VCTRL_RequestChanMem:
	.fnstart
.LFB1665:
	@ args = 0, pretend = 0, frame = 0
	@ frame_needed = 1, uses_anonymous_args = 0
	.movsp ip
	mov	ip, sp	@,
	stmfd	sp!, {r4, r5, r6, r7, r8, sl, fp, ip, lr, pc}	@,
	.pad #4
	.save {r4, r5, r6, r7, r8, sl, fp, ip, lr}
	.setfp fp, ip, #-4
	sub	fp, ip, #4	@,,
	push	{lr}
	bl	__gnu_mcount_nc
	movw	r5, #:lower16:.LANCHOR0	@ tmp210,
	movt	r5, #:upper16:.LANCHOR0	@ tmp210,
	movw	r2, #:lower16:249200	@ tmp154,
	movt	r2, #:upper16:249200	@ tmp154,
	movw	ip, #:lower16:249208	@ tmp153,
	ldr	r3, [r5, r0, asl #2]	@ D.44513, s_pstVfmwChan
	movt	ip, #:upper16:249208	@ tmp153,
	mov	r6, r0	@ ChanID, ChanID
	ldr	r1, [r3, r2]	@ s32FrameSize, <variable>.s32CurFsSize
	ldr	r7, [r3, ip]	@ s32NeededFrmNum, <variable>.s32NeededFrameNum
	cmp	r1, #0	@ s32FrameSize,
	ldr	r2, [r3, #272]	@ s32PreAllocSize, <variable>.s32VdmChanMemSize
	ble	.L1003	@,
	ldr	r4, [r3, #268]	@ <variable>.s32VdmChanMemAddr, <variable>.s32VdmChanMemAddr
	cmp	r4, #0	@ <variable>.s32VdmChanMemAddr,
	cmpne	r2, #0	@, s32PreAllocSize,
	bgt	.L1004	@,
	movw	r4, #:lower16:249220	@ tmp197,
	movt	r4, #:upper16:249220	@ tmp197,
	ldr	r3, [r3, r4]	@ temp.3712, <variable>.s32NeedMMZ
	cmp	r3, #1	@ temp.3712,
	bne	.L1001	@,
	mov	r1, r7	@, s32NeededFrmNum
	bl	VCTRL_AllocMemMMZ	@
	ldr	r8, [r5, r6, asl #2]	@ temp.3713, s_pstVfmwChan
	mov	r4, r0	@ s32Ret,
	bl	OSAL_GetTimeInMs	@
	movw	ip, #:lower16:251468	@ tmp199,
	movt	ip, #:upper16:251468	@ tmp199,
	movw	r3, #:lower16:249216	@ tmp202,
	cmp	r4, #0	@ s32Ret,
	movt	r3, #:upper16:249216	@ tmp202,
	str	r0, [r8, ip]	@, <variable>.stDynamicFSTimestamp.u32MMZEndTime
	ldr	r1, [r5, r6, asl #2]	@ tmp201, s_pstVfmwChan
	str	r7, [r1, r3]	@ s32NeededFrmNum, <variable>.s32MMZFrmNum
	bne	.L1005	@,
.L995:
	mov	r0, r4	@, s32Ret
	ldmfd	sp, {r4, r5, r6, r7, r8, sl, fp, sp, pc}	@
.L1004:
	mov	r0, r2	@, s32PreAllocSize
	bl	__aeabi_idiv	@
	cmp	r7, r0	@ s32NeededFrmNum, tmp166
	mov	r8, r0	@ tmp166,
	bgt	.L1006	@,
.L997:
	mov	r1, r7	@, s32NeededFrmNum
	mov	r0, r6	@, ChanID
	bl	VCTRL_AllocMemPre	@
	ldr	r8, [r5, r6, asl #2]	@ temp.3709, s_pstVfmwChan
	mov	r4, r0	@ s32Ret,
	bl	OSAL_GetTimeInMs	@
	movw	r2, #:lower16:251464	@ tmp190,
	movt	r2, #:upper16:251464	@ tmp190,
	movw	ip, #:lower16:249212	@ tmp193,
	cmp	r4, #0	@ s32Ret,
	movt	ip, #:upper16:249212	@ tmp193,
	str	r0, [r8, r2]	@, <variable>.stDynamicFSTimestamp.u32PreEndTime
	ldr	r0, [r5, r6, asl #2]	@ tmp192, s_pstVfmwChan
	str	r7, [r0, ip]	@ s32NeededFrmNum, <variable>.s32PreAllocFrmNum
	beq	.L995	@,
	movw	r1, #:lower16:.LC192	@,
	ldr	r2, .L1008	@,
	movt	r1, #:upper16:.LC192	@,
	movw	r3, #10246	@,
	mov	r0, #31	@,
	bl	dprint_vfmw	@
	b	.L995	@
.L1006:
	rsb	sl, r0, r7	@ s32MMZFrmNum, tmp166, s32NeededFrmNum
	cmp	sl, #0	@ s32MMZFrmNum,
	ble	.L997	@,
	mov	r1, r0	@, tmp166
	mov	r0, r6	@, ChanID
	bl	VCTRL_AllocMemPre	@
	ldr	r7, [r5, r6, asl #2]	@ temp.3704, s_pstVfmwChan
	mov	r4, r0	@ s32Ret,
	bl	OSAL_GetTimeInMs	@
	movw	r1, #:lower16:251464	@ tmp168,
	movt	r1, #:upper16:251464	@ tmp168,
	movw	r3, #:lower16:249212	@ tmp171,
	cmp	r4, #0	@ s32Ret,
	movt	r3, #:upper16:249212	@ tmp171,
	str	r0, [r7, r1]	@, <variable>.stDynamicFSTimestamp.u32PreEndTime
	ldr	r0, [r5, r6, asl #2]	@ tmp170, s_pstVfmwChan
	str	r8, [r0, r3]	@ tmp166, <variable>.s32PreAllocFrmNum
	bne	.L998	@,
	ldr	ip, [r5, r6, asl #2]	@ tmp173, s_pstVfmwChan
	movw	lr, #:lower16:249220	@ tmp174,
	movt	lr, #:upper16:249220	@ tmp174,
	ldr	r3, [ip, lr]	@ D.44534, <variable>.s32NeedMMZ
	cmp	r3, #1	@ D.44534,
	bne	.L999	@,
	mov	r0, r6	@, ChanID
	mov	r1, sl	@, s32MMZFrmNum
	bl	VCTRL_AllocMemMMZ	@
	subs	r4, r0, #0	@ s32Ret,
	bne	.L1007	@,
	ldr	r7, [r5, r6, asl #2]	@ temp.3707, s_pstVfmwChan
	bl	OSAL_GetTimeInMs	@
	movw	r1, #:lower16:251468	@ tmp179,
	movt	r1, #:upper16:251468	@ tmp179,
	movw	r3, #:lower16:249216	@ tmp182,
	movt	r3, #:upper16:249216	@ tmp182,
	str	r0, [r7, r1]	@, <variable>.stDynamicFSTimestamp.u32MMZEndTime
	mov	r0, r4	@, s32Ret
	ldr	r2, [r5, r6, asl #2]	@ tmp181, s_pstVfmwChan
	str	sl, [r2, r3]	@ s32MMZFrmNum, <variable>.s32MMZFrmNum
	ldmfd	sp, {r4, r5, r6, r7, r8, sl, fp, sp, pc}	@
.L1005:
