	.arch armv7-a
	.fpu softvfp
	.eabi_attribute 20, 1
	.eabi_attribute 21, 1
	.eabi_attribute 23, 3
	.eabi_attribute 24, 1
	.eabi_attribute 25, 1
	.eabi_attribute 26, 2
	.eabi_attribute 30, 2
	.eabi_attribute 18, 4
	.file	"mvc.c"
@ GNU C (Hisilicon_v200(gcc4.4-290+glibc-2.11+eabi+nptl)) version 4.4.1 (arm-hisiv200-linux-gnueabi)
@	compiled by GNU C version 4.1.1 20061011 (Red Hat 4.1.1-30), GMP version 4.3.1, MPFR version 2.4.2.
@ GGC heuristics: --param ggc-min-expand=100 --param ggc-min-heapsize=131072
@ options passed:  -nostdinc
@ -I/hihome/HiSTBAndroidV5/images_and_tools/release/hi3798mv100/master_4.4/HiSTBAndroidV5_release/HiSTBAndroidV600R001C00SPC060/device/hisilicon/bigfish/sdk/source/kernel/linux-3.10.y/arch/arm/include
@ -Iarch/arm/include/generated
@ -I/hihome/HiSTBAndroidV5/images_and_tools/release/hi3798mv100/master_4.4/HiSTBAndroidV5_release/HiSTBAndroidV600R001C00SPC060/device/hisilicon/bigfish/sdk/source/kernel/linux-3.10.y/include
@ -Iinclude
@ -I/hihome/HiSTBAndroidV5/images_and_tools/release/hi3798mv100/master_4.4/HiSTBAndroidV5_release/HiSTBAndroidV600R001C00SPC060/device/hisilicon/bigfish/sdk/source/kernel/linux-3.10.y/arch/arm/include/uapi
@ -Iarch/arm/include/generated/uapi
@ -I/hihome/HiSTBAndroidV5/images_and_tools/release/hi3798mv100/master_4.4/HiSTBAndroidV5_release/HiSTBAndroidV600R001C00SPC060/device/hisilicon/bigfish/sdk/source/kernel/linux-3.10.y/include/uapi
@ -Iinclude/generated/uapi
@ -I/hihome/HiSTBAndroidV5/images_and_tools/release/hi3798mv100/master_4.4/HiSTBAndroidV5_release/HiSTBAndroidV600R001C00SPC060/device/hisilicon/bigfish/sdk/source/kernel/linux-3.10.y/drivers/msp/vfmw/vfmw_v4.0
@ -Idrivers/msp/vfmw/vfmw_v4.0
@ -I/hihome/HiSTBAndroidV5/images_and_tools/release/hi3798mv100/master_4.4/HiSTBAndroidV5_release/HiSTBAndroidV600R001C00SPC060/device/hisilicon/bigfish/sdk/source/kernel/linux-3.10.y/arch/arm/mach-hi3798mx/include
@ -I/hihome/HiSTBAndroidV5/images_and_tools/release/hi3798mv100/master_4.4/HiSTBAndroidV5_release/HiSTBAndroidV600R001C00SPC060/device/hisilicon/bigfish/sdk/source/kernel/linux-3.10.y/../../../source/common/include
@ -I/hihome/HiSTBAndroidV5/images_and_tools/release/hi3798mv100/master_4.4/HiSTBAndroidV5_release/HiSTBAndroidV600R001C00SPC060/device/hisilicon/bigfish/sdk/source/kernel/linux-3.10.y/../../../source/common/drv/include
@ -I/hihome/HiSTBAndroidV5/images_and_tools/release/hi3798mv100/master_4.4/HiSTBAndroidV5_release/HiSTBAndroidV600R001C00SPC060/device/hisilicon/bigfish/sdk/source/kernel/linux-3.10.y/../../../source/msp/drv/vfmw/vfmw_v4.0
@ -I/hihome/HiSTBAndroidV5/images_and_tools/release/hi3798mv100/master_4.4/HiSTBAndroidV5_release/HiSTBAndroidV600R001C00SPC060/device/hisilicon/bigfish/sdk/source/kernel/linux-3.10.y/../../../source/msp/drv/vfmw/vfmw_v4.0/scene/stb
@ -I/hihome/HiSTBAndroidV5/images_and_tools/release/hi3798mv100/master_4.4/HiSTBAndroidV5_release/HiSTBAndroidV600R001C00SPC060/device/hisilicon/bigfish/sdk/source/kernel/linux-3.10.y/../../../source/msp/drv/vfmw/vfmw_v4.0/firmware/common
@ -I/hihome/HiSTBAndroidV5/images_and_tools/release/hi3798mv100/master_4.4/HiSTBAndroidV5_release/HiSTBAndroidV600R001C00SPC060/device/hisilicon/bigfish/sdk/source/kernel/linux-3.10.y/../../../source/msp/drv/vfmw/vfmw_v4.0/firmware/osal/linux_kernel
@ -I/hihome/HiSTBAndroidV5/images_and_tools/release/hi3798mv100/master_4.4/HiSTBAndroidV5_release/HiSTBAndroidV600R001C00SPC060/device/hisilicon/bigfish/sdk/source/kernel/linux-3.10.y/../../../source/msp/drv/vfmw/vfmw_v4.0/firmware/common/softlib
@ -I/hihome/HiSTBAndroidV5/images_and_tools/release/hi3798mv100/master_4.4/HiSTBAndroidV5_release/HiSTBAndroidV600R001C00SPC060/device/hisilicon/bigfish/sdk/source/kernel/linux-3.10.y/../../../source/msp/drv/vfmw/vfmw_v4.0/firmware/common/syntax
@ -I/hihome/HiSTBAndroidV5/images_and_tools/release/hi3798mv100/master_4.4/HiSTBAndroidV5_release/HiSTBAndroidV600R001C00SPC060/device/hisilicon/bigfish/sdk/source/kernel/linux-3.10.y/../../../source/msp/drv/vfmw/vfmw_v4.0/firmware/driver/HiSCDV200
@ -I/hihome/HiSTBAndroidV5/images_and_tools/release/hi3798mv100/master_4.4/HiSTBAndroidV5_release/HiSTBAndroidV600R001C00SPC060/device/hisilicon/bigfish/sdk/source/kernel/linux-3.10.y/../../../source/msp/drv/vfmw/vfmw_v4.0/firmware/driver/HiVDHV300R001
@ -I/hihome/HiSTBAndroidV5/images_and_tools/release/hi3798mv100/master_4.4/HiSTBAndroidV5_release/HiSTBAndroidV600R001C00SPC060/device/hisilicon/bigfish/sdk/source/kernel/linux-3.10.y/../../../source/msp/drv/vfmw/vfmw_v4.0/firmware/product/Hi3798MV100
@ -I/hihome/HiSTBAndroidV5/images_and_tools/release/hi3798mv100/master_4.4/HiSTBAndroidV5_release/HiSTBAndroidV600R001C00SPC060/device/hisilicon/bigfish/sdk/source/kernel/linux-3.10.y/../../../source/msp/drv/vfmw/vfmw_v4.0/firmware/common_test/vdecko
@ -imultilib armv7a_soft -iprefix
@ /opt/hisi-linux/x86-arm/arm-hisiv200-linux/bin/../lib/gcc/arm-hisiv200-linux-gnueabi/4.4.1/
@ -isysroot /opt/hisi-linux/x86-arm/arm-hisiv200-linux/bin/../target
@ -D__KERNEL__ -D__LINUX_ARM_ARCH__=7 -Uarm -DCHIP_TYPE_hi3796mv100
@ -DSDK_VERSION=HiSTBAndroidV600R001C00SPC060_v2015040918 -DHI_MCE_SUPPORT
@ -DHI_GPIOI2C_SUPPORT -DHI_LOG_SUPPORT=1 -DHI_LOG_LEVEL=4
@ -DHI_PROC_SUPPORT=1 -DHI_HDMI_SUPPORT_1_4 -DHI_KEYLED_SUPPORT
@ -DHI_HDCP_SUPPORT -DHI_SCI_SUPPORT -DHI_PVR_SUPPORT -DHI_VI_SUPPORT
@ -DHI_VENC_SUPPORT -DHI_AENC_SUPPORT -DHI_PQ_V3_0 -DENV_ARMLINUX_KERNEL
@ -DDNR_DISABLE -DSCD_MP4_SLICE_ENABLE -DSUPPORT_JPEG_444
@ -DVFMW_EXTRA_TYPE_DEFINE -DPRODUCT_STB -D__VFMW_REGISTER_ISR__
@ -DQ_MATRIX_FIXED -DVFMW_VDH_V300R001_SUPPORT -DCFG_SCD_TIME_OUT=2000
@ -DCFG_VDH_TIME_OUT=500 -DVFMW_H264_SUPPORT -DVFMW_HEVC_SUPPORT
@ -DVFMW_MVC_SUPPORT -DVFMW_MPEG2_SUPPORT -DVFMW_MPEG4_SUPPORT
@ -DVFMW_AVS_SUPPORT -DVFMW_VC1_SUPPORT -DVFMW_BPD_H_SUPPORT
@ -DVFMW_REAL8_SUPPORT -DVFMW_REAL9_SUPPORT -DVFMW_VP6_SUPPORT
@ -DVFMW_VP8_SUPPORT -DVFMW_DIVX3_SUPPORT -DVFMW_H263_SUPPORT
@ -DVFMW_JPEG_SUPPORT -DVFMW_RAW_SUPPORT -DVFMW_USER_SUPPORT
@ -DCFG_MAX_CHAN_NUM=16 -DVFMW_DPRINT_SUPPORT -DVFMW_SCD_LOWDLY_SUPPORT
@ -DVFMW_AVSPLUS_SUPPORT -DVFMW_MODULE_LOWDLY_SUPPORT
@ -DVFMW_SYSTEM_REG_DISABLE -DHI_VDEC_SVDEC_BUILTIN -DKBUILD_STR(s)=#s
@ -DKBUILD_BASENAME=KBUILD_STR(mvc) -DKBUILD_MODNAME=KBUILD_STR(hi_vfmw)
@ -isystem
@ /opt/hisi-linux/x86-arm/arm-hisiv200-linux/bin/../lib/gcc/arm-hisiv200-linux-gnueabi/4.4.1/include
@ -include
@ /hihome/HiSTBAndroidV5/images_and_tools/release/hi3798mv100/master_4.4/HiSTBAndroidV5_release/HiSTBAndroidV600R001C00SPC060/device/hisilicon/bigfish/sdk/source/kernel/linux-3.10.y/include/linux/kconfig.h
@ -MD drivers/msp/vfmw/vfmw_v4.0/firmware/common/syntax/.mvc.o.d
@ /hihome/HiSTBAndroidV5/images_and_tools/release/hi3798mv100/master_4.4/HiSTBAndroidV5_release/HiSTBAndroidV600R001C00SPC060/device/hisilicon/bigfish/sdk/source/kernel/linux-3.10.y/drivers/msp/vfmw/vfmw_v4.0/firmware/common/syntax/mvc.c
@ -mlittle-endian -mapcs -mno-sched-prolog -mabi=aapcs-linux
@ -mno-thumb-interwork -marm -march=armv7-a -msoft-float -auxbase-strip
@ drivers/msp/vfmw/vfmw_v4.0/firmware/common/syntax/mvc.o -O2 -Wall -Wundef
@ -Wstrict-prototypes -Wno-trigraphs -Werror-implicit-function-declaration
@ -Wno-format-security -Wframe-larger-than=1024
@ -Wdeclaration-after-statement -Wno-pointer-sign -p -fno-strict-aliasing
@ -fno-common -fno-delete-null-pointer-checks -fno-dwarf2-cfi-asm
@ -funwind-tables -fno-stack-protector -fno-omit-frame-pointer
@ -fno-optimize-sibling-calls -fno-strict-overflow -fconserve-stack
@ -fno-pic -fverbose-asm
@ options enabled:  -falign-loops -fargument-alias -fauto-inc-dec
@ -fbranch-count-reg -fcaller-saves -fcprop-registers -fcrossjumping
@ -fcse-follow-jumps -fdefer-pop -fearly-inlining
@ -feliminate-unused-debug-types -fexpensive-optimizations
@ -fforward-propagate -ffunction-cse -fgcse -fgcse-lm
@ -fguess-branch-probability -fident -fif-conversion -fif-conversion2
@ -findirect-inlining -finline -finline-functions-called-once
@ -finline-small-functions -fipa-cp -fipa-pure-const -fipa-reference
@ -fira-share-save-slots -fira-share-spill-slots -fivopts
@ -fkeep-static-consts -fleading-underscore -fmath-errno -fmerge-constants
@ -fmerge-debug-strings -fmove-loop-invariants -foptimize-register-move
@ -fpeephole -fpeephole2 -fprofile -fpromote-loop-indices
@ -freg-struct-return -fregmove -frename-registers -freorder-blocks
@ -freorder-functions -frerun-cse-after-loop -fsched-interblock
@ -fsched-spec -fsched-stalled-insns-dep -fschedule-insns -fschedule-insns2
@ -fsection-anchors -fsigned-zeros -fsplit-ivs-in-unroller
@ -fsplit-wide-types -fthread-jumps -ftoplevel-reorder -ftrapping-math
@ -ftree-builtin-call-dce -ftree-ccp -ftree-ch -ftree-copy-prop
@ -ftree-copyrename -ftree-cselim -ftree-dce -ftree-dominator-opts
@ -ftree-dse -ftree-fre -ftree-loop-im -ftree-loop-ivcanon
@ -ftree-loop-optimize -ftree-parallelize-loops= -ftree-pre -ftree-reassoc
@ -ftree-scev-cprop -ftree-sink -ftree-sra -ftree-switch-conversion
@ -ftree-ter -ftree-vect-loop-version -ftree-vrp -funit-at-a-time
@ -funroll-loops -funwind-tables -fverbose-asm -fweb
@ -fzero-initialized-in-bss -mapcs-frame -mglibc -mlittle-endian

@ Compiler executable checksum: fa59e0bd179ef45b3a3c3e6f3383fdac

	.text
	.align	2
	.global	MVC_FrameStoreRefFlg
	.type	MVC_FrameStoreRefFlg, %function
MVC_FrameStoreRefFlg:
	.fnstart
.LFB1540:
	@ args = 0, pretend = 0, frame = 0
	@ frame_needed = 1, uses_anonymous_args = 0
	.movsp ip
	mov	ip, sp	@,
	stmfd	sp!, {fp, ip, lr, pc}	@,
	.pad #4
	.save {fp, ip, lr}
	.setfp fp, ip, #-4
	sub	fp, ip, #4	@,,
	push	{lr}
	bl	__gnu_mcount_nc
	ldrb	r0, [r0, #3]	@ zero_extendqisi2	@ <variable>.is_reference, <variable>.is_reference
	subs	r0, r0, #0	@, <variable>.is_reference,
	movne	r0, #1	@
	ldmfd	sp, {fp, sp, pc}	@
	.fnend
	.size	MVC_FrameStoreRefFlg, .-MVC_FrameStoreRefFlg
	.align	2
	.global	MVC_NonLongTermRefFlg
	.type	MVC_NonLongTermRefFlg, %function
MVC_NonLongTermRefFlg:
	.fnstart
.LFB1541:
	@ args = 0, pretend = 0, frame = 0
	@ frame_needed = 1, uses_anonymous_args = 0
	.movsp ip
	mov	ip, sp	@,
	stmfd	sp!, {fp, ip, lr, pc}	@,
	.pad #4
	.save {fp, ip, lr}
	.setfp fp, ip, #-4
	sub	fp, ip, #4	@,,
	push	{lr}
	bl	__gnu_mcount_nc
	ldrb	r3, [r0, #3]	@ zero_extendqisi2	@ D.38759, <variable>.is_reference
	cmp	r3, #3	@ D.38759,
	beq	.L12	@,
	tst	r3, #1	@ D.38759,
	bne	.L6	@,
.L7:
	ands	r3, r3, #2	@ tmp141, D.38759,
	moveq	r0, r3	@ D.38765, tmp141
	ldmeqfd	sp, {fp, sp, pc}	@
	ldrb	r0, [r0, #641]	@ zero_extendqisi2	@ <variable>.bottom_field.is_long_term, <variable>.bottom_field.is_long_term
	rsbs	r0, r0, #1	@ D.38765, <variable>.bottom_field.is_long_term
	movcc	r0, #0	@ D.38765
	ldmfd	sp, {fp, sp, pc}	@
.L12:
	ldrb	r2, [r0, #569]	@ zero_extendqisi2	@ <variable>.frame.is_long_term, <variable>.frame.is_long_term
	cmp	r2, #0	@ <variable>.frame.is_long_term,
	beq	.L5	@,
.L6:
	ldrb	r1, [r0, #605]	@ zero_extendqisi2	@ <variable>.top_field.is_long_term, <variable>.top_field.is_long_term
	cmp	r1, #0	@ <variable>.top_field.is_long_term,
	bne	.L7	@,
.L5:
	mov	r0, #1	@ D.38765,
	ldmfd	sp, {fp, sp, pc}	@
	.fnend
	.size	MVC_NonLongTermRefFlg, .-MVC_NonLongTermRefFlg
	.align	2
	.global	MVC_ShortTermRefFlg
	.type	MVC_ShortTermRefFlg, %function
MVC_ShortTermRefFlg:
	.fnstart
.LFB1542:
	@ args = 0, pretend = 0, frame = 0
	@ frame_needed = 1, uses_anonymous_args = 0
	.movsp ip
	mov	ip, sp	@,
	stmfd	sp!, {fp, ip, lr, pc}	@,
	.pad #4
	.save {fp, ip, lr}
	.setfp fp, ip, #-4
	sub	fp, ip, #4	@,,
	push	{lr}
	bl	__gnu_mcount_nc
	ldrb	r3, [r0, #3]	@ zero_extendqisi2	@ D.38783, <variable>.is_reference
	cmp	r3, #3	@ D.38783,
	beq	.L21	@,
	tst	r3, #1	@ D.38783,
	bne	.L16	@,
.L17:
	ands	r3, r3, #2	@ tmp145, D.38783,
	moveq	r0, r3	@ D.38790, tmp145
	ldmeqfd	sp, {fp, sp, pc}	@
	ldr	r1, [r0, #640]	@ tmp148,
	bic	r2, r1, #-16777216	@ tmp146, tmp148,
	bic	r0, r2, #255	@ tmp146, tmp146,
	cmp	r0, #65536	@ tmp146,
	movne	r0, #0	@, D.38790
	moveq	r0, #1	@, D.38790
	ldmfd	sp, {fp, sp, pc}	@
.L21:
	ldr	ip, [r0, #568]	@ tmp140,
	bic	r1, ip, #-16777216	@ tmp138, tmp140,
	bic	r2, r1, #255	@ tmp138, tmp138,
	cmp	r2, #65536	@ tmp138,
	beq	.L15	@,
.L16:
	ldr	ip, [r0, #604]	@ tmp144,
	bic	r1, ip, #-16777216	@ tmp142, tmp144,
	bic	r2, r1, #255	@ tmp142, tmp142,
	cmp	r2, #65536	@ tmp142,
	bne	.L17	@,
.L15:
	mov	r0, #1	@ D.38790,
	ldmfd	sp, {fp, sp, pc}	@
	.fnend
	.size	MVC_ShortTermRefFlg, .-MVC_ShortTermRefFlg
	.align	2
	.global	MVC_LongTermRefFlg
	.type	MVC_LongTermRefFlg, %function
MVC_LongTermRefFlg:
	.fnstart
.LFB1543:
	@ args = 0, pretend = 0, frame = 0
	@ frame_needed = 1, uses_anonymous_args = 0
	.movsp ip
	mov	ip, sp	@,
	stmfd	sp!, {fp, ip, lr, pc}	@,
	.pad #4
	.save {fp, ip, lr}
	.setfp fp, ip, #-4
	sub	fp, ip, #4	@,,
	push	{lr}
	bl	__gnu_mcount_nc
	ldrb	r3, [r0, #3]	@ zero_extendqisi2	@ D.38810, <variable>.is_reference
	cmp	r3, #3	@ D.38810,
	beq	.L30	@,
	tst	r3, #1	@ D.38810,
	bne	.L25	@,
.L26:
	ands	r3, r3, #2	@ tmp145, D.38810,
	moveq	r0, r3	@ D.38817, tmp145
	ldmeqfd	sp, {fp, sp, pc}	@
	ldr	r1, [r0, #640]	@ tmp148,
	bic	r2, r1, #-16777216	@ tmp146, tmp148,
	bic	r0, r2, #255	@ tmp146, tmp146,
	cmp	r0, #256	@ tmp146,
	movne	r0, #0	@, D.38817
	moveq	r0, #1	@, D.38817
	ldmfd	sp, {fp, sp, pc}	@
.L30:
	ldr	ip, [r0, #568]	@ tmp140,
	bic	r1, ip, #-16777216	@ tmp138, tmp140,
	bic	r2, r1, #255	@ tmp138, tmp138,
	cmp	r2, #256	@ tmp138,
	beq	.L24	@,
.L25:
	ldr	ip, [r0, #604]	@ tmp144,
	bic	r1, ip, #-16777216	@ tmp142, tmp144,
	bic	r2, r1, #255	@ tmp142, tmp142,
	cmp	r2, #256	@ tmp142,
	bne	.L26	@,
.L24:
	mov	r0, #1	@ D.38817,
	ldmfd	sp, {fp, sp, pc}	@
	.fnend
	.size	MVC_LongTermRefFlg, .-MVC_LongTermRefFlg
	.align	2
	.global	MVC_UpdateLTReflist
	.type	MVC_UpdateLTReflist, %function
MVC_UpdateLTReflist:
	.fnstart
.LFB1544:
	@ args = 0, pretend = 0, frame = 0
	@ frame_needed = 1, uses_anonymous_args = 0
	.movsp ip
	mov	ip, sp	@,
	stmfd	sp!, {r3, r4, r5, r6, r7, r8, r9, sl, fp, ip, lr, pc}	@,
	.pad #4
	.save {r3, r4, r5, r6, r7, r8, r9, sl, fp, ip, lr}
	.setfp fp, ip, #-4
	sub	fp, ip, #4	@,,
	push	{lr}
	bl	__gnu_mcount_nc
	movw	r8, #:lower16:11122984	@ tmp170,
	movt	r8, #:upper16:11122984	@ tmp170,
	mov	r7, r0	@ pMvcCtx, pMvcCtx
	ldr	sl, [r0, r8]	@ <variable>.DPB.size, <variable>.DPB.size
	cmp	sl, #0	@ <variable>.DPB.size,
	beq	.L33	@,
	movw	r5, #:lower16:11122792	@ ivtmp.1062,
	movt	r5, #:upper16:11122792	@ ivtmp.1062,
	mov	sl, #0	@ j,
	movw	r9, #:lower16:11151144	@ tmp188,
	add	r5, r0, r5	@ ivtmp.1062, pMvcCtx, ivtmp.1062
	movt	r9, #:upper16:11151144	@ tmp188,
	mov	r6, sl	@ i, j
.L35:
	ldr	r4, [r5, #0]	@ D.38846, <variable>.DPB.fs
	add	r6, r6, #1	@ i, i,
	add	r5, r5, #4	@ ivtmp.1062, ivtmp.1062,
	cmp	r4, #0	@ D.38846,
	mov	r0, r4	@, D.38846
	beq	.L34	@,
	bl	MVC_LongTermRefFlg	@
	cmp	r0, #0	@,
	beq	.L34	@,
	ldr	r3, [r7, r9]	@ <variable>.CurrPic.view_id, <variable>.CurrPic.view_id
	ldr	r2, [r4, #56]	@ <variable>.view_id, <variable>.view_id
	cmp	r2, r3	@ <variable>.view_id, <variable>.CurrPic.view_id
	movweq	r3, #:lower16:2780730	@ tmp176,
	movteq	r3, #:upper16:2780730	@ tmp176,
	addeq	r3, sl, r3	@ tmp176, j, tmp176
	addeq	sl, sl, #1	@ j, j,
	streq	r4, [r7, r3, asl #2]	@ D.38846, <variable>.DPB.fs_ltref
.L34:
	ldr	r0, [r7, r8]	@ <variable>.DPB.size, <variable>.DPB.size
	cmp	r0, r6	@ <variable>.DPB.size, i
	bhi	.L35	@,
.L33:
	movw	ip, #:lower16:11122984	@ tmp181,
	movt	ip, #:upper16:11122984	@ tmp181,
	movw	r1, #:lower16:11122996	@ tmp180,
	movt	r1, #:upper16:11122996	@ tmp180,
	ldr	r0, [r7, ip]	@ temp.1065, <variable>.DPB.size
	str	sl, [r7, r1]	@ j, <variable>.DPB.ltref_frames_in_buffer
	cmp	r0, sl	@ temp.1065, j
	ldmlsfd	sp, {r3, r4, r5, r6, r7, r8, r9, sl, fp, sp, pc}	@
	movw	r2, #:lower16:2780730	@ tmp182,
	movt	r2, #:upper16:2780730	@ tmp182,
	add	r3, sl, r2	@ tmp182, j, tmp182
	add	r2, sl, #1	@ j, j,
	cmp	r0, r2	@ temp.1065, j
	mvn	r1, sl	@ tmp191, j
	add	r7, r7, r3, asl #2	@, ivtmp.1057, pMvcCtx, tmp182,
	add	sl, r1, r0	@ tmp190, tmp191, temp.1065
	and	sl, sl, #1	@ tmp192, tmp190,
	mov	r1, #0	@ tmp187,
	str	r1, [r7], #4	@ tmp187, <variable>.DPB.fs_ltref
	ldmlsfd	sp, {r3, r4, r5, r6, r7, r8, r9, sl, fp, sp, pc}	@
	cmp	sl, #0	@ tmp192,
	beq	.L37	@,
	add	r2, r2, #1	@ j, j,
	str	r1, [r7], #4	@ tmp187, <variable>.DPB.fs_ltref
	cmp	r0, r2	@ temp.1065, j
	ldmlsfd	sp, {r3, r4, r5, r6, r7, r8, r9, sl, fp, sp, pc}	@
.L37:
	add	r2, r2, #2	@ j, j,
	mov	ip, r7	@ tmp193, ivtmp.1057
	cmp	r0, r2	@ temp.1065, j
	str	r1, [ip], #4	@ tmp187, <variable>.DPB.fs_ltref
	str	r1, [r7, #4]	@ tmp187, <variable>.DPB.fs_ltref
	add	r7, ip, #4	@ ivtmp.1057, tmp193,
	bhi	.L37	@,
	ldmfd	sp, {r3, r4, r5, r6, r7, r8, r9, sl, fp, sp, pc}	@
	.fnend
	.size	MVC_UpdateLTReflist, .-MVC_UpdateLTReflist
	.align	2
	.global	MVC_UpdateReflist
	.type	MVC_UpdateReflist, %function
MVC_UpdateReflist:
	.fnstart
.LFB1545:
	@ args = 0, pretend = 0, frame = 0
	@ frame_needed = 1, uses_anonymous_args = 0
	.movsp ip
	mov	ip, sp	@,
	stmfd	sp!, {r3, r4, r5, r6, r7, r8, r9, sl, fp, ip, lr, pc}	@,
	.pad #4
	.save {r3, r4, r5, r6, r7, r8, r9, sl, fp, ip, lr}
	.setfp fp, ip, #-4
	sub	fp, ip, #4	@,,
	push	{lr}
	bl	__gnu_mcount_nc
	movw	r8, #:lower16:11122984	@ tmp141,
	movt	r8, #:upper16:11122984	@ tmp141,
	mov	r7, r0	@ pMvcCtx, pMvcCtx
	ldr	sl, [r0, r8]	@ <variable>.DPB.size, <variable>.DPB.size
	cmp	sl, #0	@ <variable>.DPB.size,
	beq	.L48	@,
	movw	r5, #:lower16:11122792	@ ivtmp.1100,
	movt	r5, #:upper16:11122792	@ ivtmp.1100,
	mov	sl, #0	@ j,
	movw	r9, #:lower16:11151144	@ tmp159,
	add	r5, r0, r5	@ ivtmp.1100, pMvcCtx, ivtmp.1100
	movt	r9, #:upper16:11151144	@ tmp159,
	mov	r6, sl	@ i, j
.L50:
	ldr	r4, [r5, #0]	@ D.38870, <variable>.DPB.fs
	add	r6, r6, #1	@ i, i,
	add	r5, r5, #4	@ ivtmp.1100, ivtmp.1100,
	cmp	r4, #0	@ D.38870,
	mov	r0, r4	@, D.38870
	beq	.L49	@,
	bl	MVC_ShortTermRefFlg	@
	cmp	r0, #0	@,
	beq	.L49	@,
	ldr	r3, [r7, r9]	@ <variable>.CurrPic.view_id, <variable>.CurrPic.view_id
	ldr	r2, [r4, #56]	@ <variable>.view_id, <variable>.view_id
	cmp	r2, r3	@ <variable>.view_id, <variable>.CurrPic.view_id
	movweq	r3, #:lower16:2780714	@ tmp147,
	movteq	r3, #:upper16:2780714	@ tmp147,
	addeq	r3, sl, r3	@ tmp147, j, tmp147
	addeq	sl, sl, #1	@ j, j,
	streq	r4, [r7, r3, asl #2]	@ D.38870, <variable>.DPB.fs_ref
.L49:
	ldr	r0, [r7, r8]	@ <variable>.DPB.size, <variable>.DPB.size
	cmp	r0, r6	@ <variable>.DPB.size, i
	bhi	.L50	@,
.L48:
	movw	ip, #:lower16:11122984	@ tmp152,
	movt	ip, #:upper16:11122984	@ tmp152,
	movw	r1, #:lower16:11122992	@ tmp151,
	movt	r1, #:upper16:11122992	@ tmp151,
	ldr	r0, [r7, ip]	@ temp.1103, <variable>.DPB.size
	str	sl, [r7, r1]	@ j, <variable>.DPB.ref_frames_in_buffer
	cmp	r0, sl	@ temp.1103, j
	ldmlsfd	sp, {r3, r4, r5, r6, r7, r8, r9, sl, fp, sp, pc}	@
	movw	r2, #:lower16:2780714	@ tmp153,
	movt	r2, #:upper16:2780714	@ tmp153,
	add	r3, sl, r2	@ tmp153, j, tmp153
	add	r2, sl, #1	@ j, j,
	cmp	r0, r2	@ temp.1103, j
	mvn	r1, sl	@ tmp162, j
	add	r7, r7, r3, asl #2	@, ivtmp.1096, pMvcCtx, tmp153,
	add	sl, r1, r0	@ tmp161, tmp162, temp.1103
	and	sl, sl, #1	@ tmp163, tmp161,
	mov	r1, #0	@ tmp158,
	str	r1, [r7], #4	@ tmp158, <variable>.DPB.fs_ref
	ldmlsfd	sp, {r3, r4, r5, r6, r7, r8, r9, sl, fp, sp, pc}	@
	cmp	sl, #0	@ tmp163,
	beq	.L52	@,
	add	r2, r2, #1	@ j, j,
	str	r1, [r7], #4	@ tmp158, <variable>.DPB.fs_ref
	cmp	r0, r2	@ temp.1103, j
	ldmlsfd	sp, {r3, r4, r5, r6, r7, r8, r9, sl, fp, sp, pc}	@
.L52:
	add	r2, r2, #2	@ j, j,
	mov	ip, r7	@ tmp165, ivtmp.1096
	cmp	r0, r2	@ temp.1103, j
	str	r1, [ip], #4	@ tmp158, <variable>.DPB.fs_ref
	str	r1, [r7, #4]	@ tmp158, <variable>.DPB.fs_ref
	add	r7, ip, #4	@ ivtmp.1096, tmp165,
	bhi	.L52	@,
	ldmfd	sp, {r3, r4, r5, r6, r7, r8, r9, sl, fp, sp, pc}	@
	.fnend
	.size	MVC_UpdateReflist, .-MVC_UpdateReflist
	.align	2
	.global	MVC_GetPicNumX
	.type	MVC_GetPicNumX, %function
MVC_GetPicNumX:
	.fnstart
.LFB1546:
	@ args = 0, pretend = 0, frame = 0
	@ frame_needed = 1, uses_anonymous_args = 0
	.movsp ip
	mov	ip, sp	@,
	stmfd	sp!, {fp, ip, lr, pc}	@,
	.pad #4
	.save {fp, ip, lr}
	.setfp fp, ip, #-4
	sub	fp, ip, #4	@,,
	push	{lr}
	bl	__gnu_mcount_nc
	ldrb	r3, [r0, #3]	@ zero_extendqisi2	@ <variable>.structure, <variable>.structure
	ldr	r0, [r0, #520]	@ CurrPicNum, <variable>.frame_num
	mvn	r1, r1	@ tmp141, difference_of_pic_nums_minus1
	cmp	r3, #0	@ <variable>.structure,
	movne	r0, r0, asl #1	@ tmp138, <variable>.frame_num,
	addne	r0, r0, #1	@ CurrPicNum, tmp138,
	add	r0, r0, r1	@, CurrPicNum, tmp141
	ldmfd	sp, {fp, sp, pc}	@
	.fnend
	.size	MVC_GetPicNumX, .-MVC_GetPicNumX
	.align	2
	.global	MVC_MarkPicLTRef
	.type	MVC_MarkPicLTRef, %function
MVC_MarkPicLTRef:
	.fnstart
.LFB1552:
	@ args = 0, pretend = 0, frame = 8
	@ frame_needed = 1, uses_anonymous_args = 0
	.movsp ip
	mov	ip, sp	@,
	stmfd	sp!, {r4, r5, r6, r7, r8, r9, sl, fp, ip, lr, pc}	@,
	.pad #4
	.save {r4, r5, r6, r7, r8, r9, sl, fp, ip, lr}
	.setfp fp, ip, #-4
	sub	fp, ip, #4	@,,
	.pad #12
	sub	sp, sp, #12	@,,
	push	{lr}
	bl	__gnu_mcount_nc
	ldrb	r3, [r3, #3]	@ zero_extendqisi2	@ D.39149, <variable>.structure
	mov	r9, r1	@ long_term_frame_idx, long_term_frame_idx
	cmp	r3, #0	@ D.39149,
	beq	.L66	@,
	movw	r1, #:lower16:11122992	@ tmp155,
	movt	r1, #:upper16:11122992	@ tmp155,
	ldr	r8, [r0, r1]	@ D.39169, <variable>.DPB.ref_frames_in_buffer
	cmp	r8, #0	@ D.39169,
	beq	.L76	@,
	movw	r6, #:lower16:11122856	@ ivtmp.1165,
	movt	r6, #:upper16:11122856	@ ivtmp.1165,
	add	r6, r0, r6	@ ivtmp.1165, pMvcCtx, ivtmp.1165
	sub	r7, r8, #1	@ tmp291, D.39169,
	and	r7, r7, #1	@, tmp291,
	str	r7, [fp, #-48]	@, %sfp
	ldr	r1, [r6, #0]	@ temp.1175, <variable>.DPB.fs_ref
	movw	sl, #:lower16:11151144	@ tmp285,
	mov	ip, #0	@ i.1185,
	movt	sl, #:upper16:11151144	@ tmp285,
	ldrb	r4, [r1, #3]	@ zero_extendqisi2	@ D.39171, <variable>.is_reference
	tst	r4, #1	@ D.39171,
	beq	.L86	@,
	ldr	r5, [r1, #604]	@ tmp334,
	bic	r5, r5, #-16777216	@ tmp335, tmp334,
	bic	r5, r5, #255	@ tmp335, tmp335,
	cmp	r5, #65536	@ tmp335,
	beq	.L115	@,
.L86:
	tst	r4, #2	@ D.39171,
	beq	.L87	@,
	ldr	r4, [r1, #640]	@ tmp326,
	bic	r4, r4, #-16777216	@ tmp327, tmp326,
	bic	r4, r4, #255	@ tmp327, tmp327,
	cmp	r4, #65536	@ tmp327,
	beq	.L116	@,
.L87:
	mov	ip, #1	@ i.1185,
	cmp	r8, ip	@ D.39169, i.1185
	add	r6, r6, #4	@ ivtmp.1165, ivtmp.1165,
	bls	.L76	@,
	ldr	r1, [fp, #-48]	@, %sfp
	cmp	r1, #0	@,
	beq	.L110	@,
	ldr	r1, [r6, #0]	@ temp.1175, <variable>.DPB.fs_ref
	ldrb	r4, [r1, #3]	@ zero_extendqisi2	@ D.39171, <variable>.is_reference
	tst	r4, #1	@ D.39171,
	beq	.L89	@,
	ldr	r5, [r1, #604]	@ tmp353,
	bic	r5, r5, #-16777216	@ tmp354, tmp353,
	bic	r5, r5, #255	@ tmp354, tmp354,
	cmp	r5, #65536	@ tmp354,
	beq	.L117	@,
.L89:
	tst	r4, #2	@ D.39171,
	beq	.L90	@,
	ldr	r4, [r1, #640]	@ tmp345,
	bic	r4, r4, #-16777216	@ tmp346, tmp345,
	bic	r4, r4, #255	@ tmp346, tmp346,
	cmp	r4, #65536	@ tmp346,
	beq	.L118	@,
.L90:
	add	ip, ip, #1	@ i.1185, i.1185,
	add	r6, r6, #4	@ ivtmp.1165, ivtmp.1165,
	cmp	r8, ip	@ D.39169, i.1185
	bls	.L76	@,
.L110:
	str	r3, [fp, #-48]	@ D.39149, %sfp
	b	.L75	@
.L71:
	tst	r3, #2	@ D.39171,
	beq	.L73	@,
	ldr	r3, [r1, #640]	@ tmp245,
	bic	r3, r3, #-16777216	@ tmp243, tmp245,
	bic	r3, r3, #255	@ tmp243, tmp243,
	cmp	r3, #65536	@ tmp243,
	beq	.L119	@,
.L73:
	ldr	r1, [r6, #4]	@ temp.1175, <variable>.DPB.fs_ref
	add	ip, ip, #1	@ i.1185, i.1185,
	add	r6, r6, #4	@ tmp295, ivtmp.1165,
	mov	r5, ip	@ tmp294, i.1185
	ldrb	r3, [r1, #3]	@ zero_extendqisi2	@ D.39171, <variable>.is_reference
	tst	r3, #1	@ D.39171,
	beq	.L93	@,
	ldr	r4, [r1, #604]	@ tmp370,
	bic	r4, r4, #-16777216	@ tmp371, tmp370,
	bic	r4, r4, #255	@ tmp371, tmp371,
	cmp	r4, #65536	@ tmp371,
	beq	.L120	@,
.L93:
	tst	r3, #2	@ D.39171,
	beq	.L94	@,
	ldr	r3, [r1, #640]	@ tmp362,
	bic	r3, r3, #-16777216	@ tmp363, tmp362,
	bic	r3, r3, #255	@ tmp363, tmp363,
	cmp	r3, #65536	@ tmp363,
	beq	.L121	@,
.L94:
	add	ip, r5, #1	@ i.1185, tmp294,
	add	r6, r6, #4	@ ivtmp.1165, tmp295,
	cmp	r8, ip	@ D.39169, i.1185
	bls	.L76	@,
.L75:
	ldr	r1, [r6, #0]	@ temp.1175, <variable>.DPB.fs_ref
	ldrb	r3, [r1, #3]	@ zero_extendqisi2	@ D.39171, <variable>.is_reference
	tst	r3, #1	@ D.39171,
	beq	.L71	@,
	ldr	r4, [r1, #604]	@ tmp203,
	bic	r4, r4, #-16777216	@ tmp201, tmp203,
	bic	r4, r4, #255	@ tmp201, tmp201,
	cmp	r4, #65536	@ tmp201,
	bne	.L71	@,
	ldr	r4, [r1, #616]	@ <variable>.top_field.pic_num, <variable>.top_field.pic_num
	cmp	r4, r2	@ <variable>.top_field.pic_num, picNumX
	bne	.L71	@,
	ldr	r5, [r1, #56]	@ <variable>.view_id, <variable>.view_id
	ldr	r4, [r0, sl]	@ <variable>.CurrPic.view_id, <variable>.CurrPic.view_id
	cmp	r5, r4	@ <variable>.view_id, <variable>.CurrPic.view_id
	bne	.L71	@,
	ldrb	r3, [r1, #641]	@ zero_extendqisi2	@ <variable>.bottom_field.is_long_term, <variable>.bottom_field.is_long_term
	cmp	r3, #1	@ <variable>.bottom_field.is_long_term,
	bne	.L113	@,
	ldr	r3, [r1, #28]	@ <variable>.long_term_frame_idx, <variable>.long_term_frame_idx
	cmp	r3, r9	@ <variable>.long_term_frame_idx, long_term_frame_idx
	bne	.L73	@,
.L113:
	ldr	r3, [fp, #-48]	@ D.39149, %sfp
.L72:
	movw	r2, #:lower16:2780714	@ tmp210,
	movt	r2, #:upper16:2780714	@ tmp210,
	add	r2, ip, r2	@ tmp210, i.1185, tmp210
	str	r9, [r1, #28]	@ long_term_frame_idx, <variable>.long_term_frame_idx
	cmp	r3, #1	@ D.39149,
	movne	r3, #0	@, tmp215
	moveq	r3, #1	@, tmp215
	ldr	r1, [r0, r2, asl #2]	@ tmp212, <variable>.DPB.fs_ref
	add	r9, r3, r9, asl #1	@, tmp216, tmp215, long_term_frame_idx,
	str	r9, [r1, #612]	@ tmp216, <variable>.top_field.long_term_pic_num
	mov	r1, #1	@ tmp220,
	ldr	ip, [r0, r2, asl #2]	@ tmp219, <variable>.DPB.fs_ref
	strb	r1, [ip, #605]	@ tmp220, <variable>.top_field.is_long_term
	mov	ip, #0	@ tmp225,
	ldr	r3, [r0, r2, asl #2]	@ tmp224, <variable>.DPB.fs_ref
	strb	ip, [r3, #606]	@ tmp225, <variable>.top_field.is_short_term
	ldr	r3, [r0, r2, asl #2]	@ temp.1182, <variable>.DPB.fs_ref
	ldrb	r1, [r3, #568]	@ zero_extendqisi2	@ D.39194, <variable>.frame.structure
	cmp	r1, #3	@ D.39194,
	cmpne	r1, #0	@, D.39194,
	bne	.L76	@,
	ldrb	ip, [r3, #605]	@ zero_extendqisi2	@ D.39200, <variable>.top_field.is_long_term
	ldrb	r1, [r3, #641]	@ zero_extendqisi2	@ <variable>.bottom_field.is_long_term, <variable>.bottom_field.is_long_term
	cmp	r1, ip	@ <variable>.bottom_field.is_long_term, D.39200
	streqb	r1, [r3, #569]	@ <variable>.bottom_field.is_long_term, <variable>.frame.is_long_term
	ldreq	r1, [r0, r2, asl #2]	@ temp.1184, <variable>.DPB.fs_ref
	ldreqb	r0, [r1, #606]	@ zero_extendqisi2	@ <variable>.top_field.is_short_term, <variable>.top_field.is_short_term
	streqb	r0, [r1, #570]	@ <variable>.top_field.is_short_term, <variable>.frame.is_short_term
.L76:
	sub	sp, fp, #40
	ldmfd	sp, {r4, r5, r6, r7, r8, r9, sl, fp, sp, pc}
.L66:
	movw	ip, #:lower16:11122992	@ tmp156,
	movt	ip, #:upper16:11122992	@ tmp156,
	ldr	r6, [r0, ip]	@ temp.1186, <variable>.DPB.ref_frames_in_buffer
	cmp	r6, #0	@ temp.1186,
	beq	.L76	@,
	movw	r5, #:lower16:11122856	@ ivtmp.1160,
	movt	r5, #:upper16:11122856	@ ivtmp.1160,
	add	ip, r0, r5	@ ivtmp.1160, pMvcCtx, ivtmp.1160
	sub	r4, r6, #1	@ tmp286, temp.1186,
	and	r5, r4, #1	@ tmp288, tmp286,
	movw	r7, #:lower16:11151144	@ tmp284,
	ldr	r1, [ip, #0]	@ D.39153, <variable>.DPB.fs_ref
	movt	r7, #:upper16:11151144	@ tmp284,
	ldrb	r4, [r1, #3]	@ zero_extendqisi2	@ <variable>.is_reference, <variable>.is_reference
	cmp	r4, #3	@ <variable>.is_reference,
	beq	.L122	@,
.L79:
	mov	r3, #1	@ i,
	cmp	r3, r6	@ i, temp.1186
	add	ip, ip, #4	@ ivtmp.1160, ivtmp.1160,
	bcs	.L76	@,
	cmp	r5, #0	@ tmp288,
	beq	.L70	@,
	ldr	r1, [ip, #0]	@ D.39153, <variable>.DPB.fs_ref
	ldrb	r4, [r1, #3]	@ zero_extendqisi2	@ <variable>.is_reference, <variable>.is_reference
	cmp	r4, #3	@ <variable>.is_reference,
	beq	.L123	@,
.L81:
	add	r3, r3, #1	@ i, i,
	add	ip, ip, #4	@ ivtmp.1160, ivtmp.1160,
	cmp	r3, r6	@ i, temp.1186
	bcc	.L70	@,
	b	.L76	@
.L69:
	ldr	r1, [ip, #4]	@ D.39153, <variable>.DPB.fs_ref
	add	r3, r3, #1	@ i, i,
	mov	ip, r3	@ tmp289, i
	ldrb	r5, [r1, #3]	@ zero_extendqisi2	@ <variable>.is_reference, <variable>.is_reference
	cmp	r5, #3	@ <variable>.is_reference,
	beq	.L124	@,
.L84:
	add	r3, ip, #1	@ i, tmp289,
	add	ip, r4, #4	@ ivtmp.1160, tmp290,
	cmp	r3, r6	@ i, temp.1186
	bcs	.L76	@,
.L70:
	ldr	r1, [ip, #0]	@ D.39153, <variable>.DPB.fs_ref
	add	r4, ip, #4	@ tmp290, ivtmp.1160,
	ldrb	r5, [r1, #3]	@ zero_extendqisi2	@ <variable>.is_reference, <variable>.is_reference
	cmp	r5, #3	@ <variable>.is_reference,
	bne	.L69	@,
	ldr	r5, [r1, #568]	@ tmp161,
	bic	r5, r5, #-16777216	@ tmp159, tmp161,
	bic	r5, r5, #255	@ tmp159, tmp159,
	cmp	r5, #65536	@ tmp159,
	bne	.L69	@,
	ldr	r5, [r1, #580]	@ <variable>.frame.pic_num, <variable>.frame.pic_num
	cmp	r5, r2	@ <variable>.frame.pic_num, picNumX
	bne	.L69	@,
	ldr	r8, [r1, #56]	@ <variable>.view_id, <variable>.view_id
	ldr	r5, [r0, r7]	@ <variable>.CurrPic.view_id, <variable>.CurrPic.view_id
	cmp	r8, r5	@ <variable>.view_id, <variable>.CurrPic.view_id
	beq	.L102	@,
	ldr	r1, [ip, #4]	@ D.39153, <variable>.DPB.fs_ref
	add	r3, r3, #1	@ i, i,
	mov	ip, r3	@ tmp289, i
	ldrb	r5, [r1, #3]	@ zero_extendqisi2	@ <variable>.is_reference, <variable>.is_reference
	cmp	r5, #3	@ <variable>.is_reference,
	bne	.L84	@,
.L124:
	ldr	r5, [r1, #568]	@ tmp319,
	bic	r5, r5, #-16777216	@ tmp320, tmp319,
	bic	r5, r5, #255	@ tmp320, tmp320,
	cmp	r5, #65536	@ tmp320,
	bne	.L84	@,
	ldr	r5, [r1, #580]	@ <variable>.frame.pic_num, <variable>.frame.pic_num
	cmp	r5, r2	@ <variable>.frame.pic_num, picNumX
	bne	.L84	@,
	ldr	r8, [r1, #56]	@ <variable>.view_id, <variable>.view_id
	ldr	r5, [r0, r7]	@ <variable>.CurrPic.view_id, <variable>.CurrPic.view_id
	cmp	r8, r5	@ <variable>.view_id, <variable>.CurrPic.view_id
	bne	.L84	@,
	b	.L102	@
.L120:
	ldr	r4, [r1, #616]	@ <variable>.top_field.pic_num, <variable>.top_field.pic_num
	cmp	r4, r2	@ <variable>.top_field.pic_num, picNumX
	bne	.L93	@,
	ldr	r4, [r1, #56]	@, <variable>.view_id
	ldr	r7, [r0, sl]	@, <variable>.CurrPic.view_id
	cmp	r4, r7	@,
	bne	.L93	@,
	ldrb	r3, [r1, #641]	@ zero_extendqisi2	@ <variable>.bottom_field.is_long_term, <variable>.bottom_field.is_long_term
	cmp	r3, #1	@ <variable>.bottom_field.is_long_term,
	bne	.L113	@,
	ldr	r3, [r1, #28]	@ <variable>.long_term_frame_idx, <variable>.long_term_frame_idx
	cmp	r3, r9	@ <variable>.long_term_frame_idx, long_term_frame_idx
	bne	.L94	@,
	b	.L113	@
.L119:
	ldr	r3, [r1, #652]	@ <variable>.bottom_field.pic_num, <variable>.bottom_field.pic_num
	cmp	r3, r2	@ <variable>.bottom_field.pic_num, picNumX
	bne	.L73	@,
	ldr	r4, [r1, #56]	@ <variable>.view_id, <variable>.view_id
	ldr	r3, [r0, sl]	@ <variable>.CurrPic.view_id, <variable>.CurrPic.view_id
	cmp	r4, r3	@ <variable>.view_id, <variable>.CurrPic.view_id
	bne	.L73	@,
	ldrb	r3, [r1, #605]	@ zero_extendqisi2	@ <variable>.top_field.is_long_term, <variable>.top_field.is_long_term
	cmp	r3, #1	@ <variable>.top_field.is_long_term,
	bne	.L111	@,
	ldr	r3, [r1, #28]	@ <variable>.long_term_frame_idx, <variable>.long_term_frame_idx
	cmp	r3, r9	@ <variable>.long_term_frame_idx, long_term_frame_idx
	bne	.L73	@,
.L111:
	ldr	r3, [fp, #-48]	@ D.39149, %sfp
.L74:
	movw	r2, #:lower16:2780714	@ tmp252,
	movt	r2, #:upper16:2780714	@ tmp252,
	add	r2, ip, r2	@ tmp252, i.1185, tmp252
	str	r9, [r1, #28]	@ long_term_frame_idx, <variable>.long_term_frame_idx
	cmp	r3, #2	@ D.39149,
	movne	r3, #0	@, tmp257
	moveq	r3, #1	@, tmp257
	ldr	ip, [r0, r2, asl #2]	@ tmp254, <variable>.DPB.fs_ref
	add	r9, r3, r9, asl #1	@, tmp258, tmp257, long_term_frame_idx,
	str	r9, [ip, #648]	@ tmp258, <variable>.bottom_field.long_term_pic_num
	mov	ip, #1	@ tmp262,
	ldr	r1, [r0, r2, asl #2]	@ tmp261, <variable>.DPB.fs_ref
	strb	ip, [r1, #641]	@ tmp262, <variable>.bottom_field.is_long_term
	mov	r1, #0	@ tmp267,
	ldr	r3, [r0, r2, asl #2]	@ tmp266, <variable>.DPB.fs_ref
	strb	r1, [r3, #642]	@ tmp267, <variable>.bottom_field.is_short_term
	ldr	r3, [r0, r2, asl #2]	@ temp.1195, <variable>.DPB.fs_ref
	ldrb	ip, [r3, #568]	@ zero_extendqisi2	@ D.39222, <variable>.frame.structure
	cmp	ip, #3	@ D.39222,
	cmpne	ip, #0	@, D.39222,
	bne	.L76	@,
	ldrb	ip, [r3, #605]	@ zero_extendqisi2	@ temp.1196, <variable>.top_field.is_long_term
	ldrb	r1, [r3, #641]	@ zero_extendqisi2	@ <variable>.bottom_field.is_long_term, <variable>.bottom_field.is_long_term
	cmp	r1, ip	@ <variable>.bottom_field.is_long_term, temp.1196
	streqb	r1, [r3, #569]	@ <variable>.bottom_field.is_long_term, <variable>.frame.is_long_term
	ldreq	r1, [r0, r2, asl #2]	@ temp.1198, <variable>.DPB.fs_ref
	ldreqb	r0, [r1, #642]	@ zero_extendqisi2	@ <variable>.bottom_field.is_short_term, <variable>.bottom_field.is_short_term
	streqb	r0, [r1, #570]	@ <variable>.bottom_field.is_short_term, <variable>.frame.is_short_term
	b	.L76	@
.L121:
	ldr	r3, [r1, #652]	@ <variable>.bottom_field.pic_num, <variable>.bottom_field.pic_num
	cmp	r3, r2	@ <variable>.bottom_field.pic_num, picNumX
	bne	.L94	@,
	ldr	r4, [r1, #56]	@ <variable>.view_id, <variable>.view_id
	ldr	r3, [r0, sl]	@ <variable>.CurrPic.view_id, <variable>.CurrPic.view_id
	cmp	r4, r3	@ <variable>.view_id, <variable>.CurrPic.view_id
	bne	.L94	@,
	ldrb	r3, [r1, #605]	@ zero_extendqisi2	@ <variable>.top_field.is_long_term, <variable>.top_field.is_long_term
	cmp	r3, #1	@ <variable>.top_field.is_long_term,
	bne	.L111	@,
	ldr	r3, [r1, #28]	@ <variable>.long_term_frame_idx, <variable>.long_term_frame_idx
	cmp	r3, r9	@ <variable>.long_term_frame_idx, long_term_frame_idx
	bne	.L94	@,
	b	.L111	@
.L115:
	ldr	r5, [r1, #616]	@ <variable>.top_field.pic_num, <variable>.top_field.pic_num
	cmp	r5, r2	@ <variable>.top_field.pic_num, picNumX
	bne	.L86	@,
	ldr	r5, [r1, #56]	@, <variable>.view_id
	ldr	r7, [r0, sl]	@, <variable>.CurrPic.view_id
	cmp	r5, r7	@,
	bne	.L86	@,
	ldrb	r4, [r1, #641]	@ zero_extendqisi2	@ <variable>.bottom_field.is_long_term, <variable>.bottom_field.is_long_term
	cmp	r4, #1	@ <variable>.bottom_field.is_long_term,
	bne	.L72	@,
	ldr	r4, [r1, #28]	@ <variable>.long_term_frame_idx, <variable>.long_term_frame_idx
	cmp	r4, r9	@ <variable>.long_term_frame_idx, long_term_frame_idx
	bne	.L87	@,
	b	.L72	@
.L116:
	ldr	r4, [r1, #652]	@ <variable>.bottom_field.pic_num, <variable>.bottom_field.pic_num
	cmp	r4, r2	@ <variable>.bottom_field.pic_num, picNumX
	bne	.L87	@,
	ldr	r5, [r1, #56]	@ <variable>.view_id, <variable>.view_id
	ldr	r4, [r0, sl]	@ <variable>.CurrPic.view_id, <variable>.CurrPic.view_id
	cmp	r5, r4	@ <variable>.view_id, <variable>.CurrPic.view_id
	bne	.L87	@,
	ldrb	r4, [r1, #605]	@ zero_extendqisi2	@ <variable>.top_field.is_long_term, <variable>.top_field.is_long_term
	cmp	r4, #1	@ <variable>.top_field.is_long_term,
	bne	.L74	@,
	ldr	r4, [r1, #28]	@ <variable>.long_term_frame_idx, <variable>.long_term_frame_idx
	cmp	r4, r9	@ <variable>.long_term_frame_idx, long_term_frame_idx
	bne	.L87	@,
	b	.L74	@
.L117:
	ldr	r5, [r1, #616]	@ <variable>.top_field.pic_num, <variable>.top_field.pic_num
	cmp	r5, r2	@ <variable>.top_field.pic_num, picNumX
	bne	.L89	@,
	ldr	r7, [r1, #56]	@ <variable>.view_id, <variable>.view_id
	ldr	r5, [r0, sl]	@ <variable>.CurrPic.view_id, <variable>.CurrPic.view_id
	cmp	r7, r5	@ <variable>.view_id, <variable>.CurrPic.view_id
	bne	.L89	@,
	ldrb	r4, [r1, #641]	@ zero_extendqisi2	@ <variable>.bottom_field.is_long_term, <variable>.bottom_field.is_long_term
	cmp	r4, #1	@ <variable>.bottom_field.is_long_term,
	bne	.L72	@,
	ldr	r4, [r1, #28]	@ <variable>.long_term_frame_idx, <variable>.long_term_frame_idx
	cmp	r4, r9	@ <variable>.long_term_frame_idx, long_term_frame_idx
	bne	.L90	@,
	b	.L72	@
.L118:
	ldr	r4, [r1, #652]	@ <variable>.bottom_field.pic_num, <variable>.bottom_field.pic_num
	cmp	r4, r2	@ <variable>.bottom_field.pic_num, picNumX
	bne	.L90	@,
	ldr	r5, [r1, #56]	@ <variable>.view_id, <variable>.view_id
	ldr	r4, [r0, sl]	@ <variable>.CurrPic.view_id, <variable>.CurrPic.view_id
	cmp	r5, r4	@ <variable>.view_id, <variable>.CurrPic.view_id
	bne	.L90	@,
	ldrb	r4, [r1, #605]	@ zero_extendqisi2	@ <variable>.top_field.is_long_term, <variable>.top_field.is_long_term
	cmp	r4, #1	@ <variable>.top_field.is_long_term,
	bne	.L74	@,
	ldr	r4, [r1, #28]	@ <variable>.long_term_frame_idx, <variable>.long_term_frame_idx
	cmp	r4, r9	@ <variable>.long_term_frame_idx, long_term_frame_idx
	bne	.L90	@,
	b	.L74	@
.L122:
	ldr	r4, [r1, #568]	@ tmp306,
	bic	r4, r4, #-16777216	@ tmp307, tmp306,
	bic	r4, r4, #255	@ tmp307, tmp307,
	cmp	r4, #65536	@ tmp307,
	bne	.L79	@,
	ldr	r4, [r1, #580]	@ <variable>.frame.pic_num, <variable>.frame.pic_num
	cmp	r4, r2	@ <variable>.frame.pic_num, picNumX
	bne	.L79	@,
	ldr	r8, [r1, #56]	@ <variable>.view_id, <variable>.view_id
	ldr	r4, [r0, r7]	@ <variable>.CurrPic.view_id, <variable>.CurrPic.view_id
	cmp	r8, r4	@ <variable>.view_id, <variable>.CurrPic.view_id
	bne	.L79	@,
.L102:
	movw	r2, #:lower16:2780714	@ tmp166,
	movt	r2, #:upper16:2780714	@ tmp166,
	add	r2, r3, r2	@ tmp166, i, tmp166
	str	r9, [r1, #28]	@ long_term_frame_idx, <variable>.long_term_frame_idx
	mov	r1, #1	@ tmp172,
	mov	r3, #0	@ tmp187,
	ldr	ip, [r0, r2, asl #2]	@ tmp168, <variable>.DPB.fs_ref
	str	r9, [ip, #576]	@ long_term_frame_idx, <variable>.frame.long_term_pic_num
	ldr	ip, [r0, r2, asl #2]	@ tmp171, <variable>.DPB.fs_ref
	strb	r1, [ip, #569]	@ tmp172, <variable>.frame.is_long_term
	ldr	ip, [r0, r2, asl #2]	@ tmp176, <variable>.DPB.fs_ref
	strb	r1, [ip, #605]	@ tmp172, <variable>.top_field.is_long_term
	ldr	ip, [r0, r2, asl #2]	@ tmp181, <variable>.DPB.fs_ref
	strb	r1, [ip, #641]	@ tmp172, <variable>.bottom_field.is_long_term
	ldr	ip, [r0, r2, asl #2]	@ tmp186, <variable>.DPB.fs_ref
	strb	r3, [ip, #570]	@ tmp187, <variable>.frame.is_short_term
	ldr	r1, [r0, r2, asl #2]	@ tmp191, <variable>.DPB.fs_ref
	strb	r3, [r1, #606]	@ tmp187, <variable>.top_field.is_short_term
	ldr	r2, [r0, r2, asl #2]	@ tmp196, <variable>.DPB.fs_ref
	strb	r3, [r2, #642]	@ tmp187, <variable>.bottom_field.is_short_term
	b	.L76	@
.L123:
	ldr	r4, [r1, #568]	@ tmp313,
	bic	r4, r4, #-16777216	@ tmp314, tmp313,
	bic	r4, r4, #255	@ tmp314, tmp314,
	cmp	r4, #65536	@ tmp314,
	bne	.L81	@,
	ldr	r4, [r1, #580]	@ <variable>.frame.pic_num, <variable>.frame.pic_num
	cmp	r4, r2	@ <variable>.frame.pic_num, picNumX
	bne	.L81	@,
	ldr	r5, [r1, #56]	@ <variable>.view_id, <variable>.view_id
	ldr	r4, [r0, r7]	@ <variable>.CurrPic.view_id, <variable>.CurrPic.view_id
	cmp	r5, r4	@ <variable>.view_id, <variable>.CurrPic.view_id
	bne	.L81	@,
	b	.L102	@
	.fnend
	.size	MVC_MarkPicLTRef, .-MVC_MarkPicLTRef
	.align	2
	.global	MVC_SetFrmRepeatCount
	.type	MVC_SetFrmRepeatCount, %function
MVC_SetFrmRepeatCount:
	.fnstart
.LFB1562:
	@ args = 0, pretend = 0, frame = 0
	@ frame_needed = 1, uses_anonymous_args = 0
	.movsp ip
	mov	ip, sp	@,
	stmfd	sp!, {fp, ip, lr, pc}	@,
	.pad #4
	.save {fp, ip, lr}
	.setfp fp, ip, #-4
	sub	fp, ip, #4	@,,
	push	{lr}
	bl	__gnu_mcount_nc
	ldr	r3, [r0, #224]	@ <variable>.pstExtraData, <variable>.pstExtraData
	ldr	ip, [r3, #692]	@ <variable>.s32FastForwardBackwardSpeed, <variable>.s32FastForwardBackwardSpeed
	add	r2, ip, #2032	@ tmp138, <variable>.s32FastForwardBackwardSpeed,
	add	r3, r2, #15	@ tmp138, tmp138,
	cmp	r3, #4096	@ tmp138,
	bcc	.L126	@,
	movw	r3, #:lower16:11122984	@ tmp145,
	movt	r3, #:upper16:11122984	@ tmp145,
	ldr	ip, [r0, #136]	@ <variable>.PicOutCounter, <variable>.PicOutCounter
	ldr	r2, [r0, r3]	@ <variable>.DPB.size, <variable>.DPB.size
	ldr	r3, [r0, #132]	@ <variable>.NewPicCounter, <variable>.NewPicCounter
	add	r2, r2, ip, lsr #1	@, D.39664, <variable>.DPB.size, <variable>.PicOutCounter,
	add	ip, r2, #1	@ tmp147, D.39664,
	mov	r3, r3, lsr #1	@ D.39660, <variable>.NewPicCounter,
	cmp	r3, ip	@ D.39660, tmp147
	bcc	.L126	@,
	mvn	r2, r2	@ tmp148, D.39664
	add	ip, r2, r3	@ tmp149, tmp148, D.39660
	cmp	ip, #1	@ tmp149,
	movhi	ip, #2	@ tmp150,
	movls	ip, #1	@ tmp153,
	strhi	ip, [r1, #84]	@ tmp150, <variable>.u32RepeatCnt
	strls	ip, [r1, #84]	@ tmp153, <variable>.u32RepeatCnt
	ldrhi	ip, [r0, #136]	@ <variable>.PicOutCounter, <variable>.PicOutCounter
	ldrls	ip, [r0, #136]	@ <variable>.PicOutCounter, <variable>.PicOutCounter
	addhi	ip, ip, #4	@ tmp152, <variable>.PicOutCounter,
	addls	ip, ip, #2	@ tmp155, <variable>.PicOutCounter,
	str	ip, [r0, #136]	@ tmp155, <variable>.PicOutCounter
	ldmfd	sp, {fp, sp, pc}	@
.L126:
	mov	r0, #0	@ tmp157,
	str	r0, [r1, #84]	@ tmp157, <variable>.u32RepeatCnt
	ldmfd	sp, {fp, sp, pc}	@
	.fnend
	.size	MVC_SetFrmRepeatCount, .-MVC_SetFrmRepeatCount
	.align	2
	.global	MVC_SplitFrmToFlds
	.type	MVC_SplitFrmToFlds, %function
MVC_SplitFrmToFlds:
	.fnstart
.LFB1565:
	@ args = 0, pretend = 0, frame = 0
	@ frame_needed = 1, uses_anonymous_args = 0
	.movsp ip
	mov	ip, sp	@,
	stmfd	sp!, {r4, r5, fp, ip, lr, pc}	@,
	.pad #4
	.save {r4, r5, fp, ip, lr}
	.setfp fp, ip, #-4
	sub	fp, ip, #4	@,,
	push	{lr}
	bl	__gnu_mcount_nc
	ldrb	r4, [r0, #569]	@ zero_extendqisi2	@ <variable>.frame.is_long_term, <variable>.frame.is_long_term
	ldrb	ip, [r0, #570]	@ zero_extendqisi2	@ <variable>.frame.is_short_term, <variable>.frame.is_short_term
	mov	r5, #1	@ tmp138,
	ldr	r1, [r0, #592]	@ <variable>.frame.err_level, <variable>.frame.err_level
	ldrb	r2, [r0, #571]	@ zero_extendqisi2	@ <variable>.frame.pic_type, <variable>.frame.pic_type
	ldr	r3, [r0, #572]	@ <variable>.frame.frame_store, <variable>.frame.frame_store
	strb	r5, [r0, #604]	@ tmp138, <variable>.top_field.structure
	mov	r5, #2	@ tmp148,
	strb	r4, [r0, #641]	@ <variable>.frame.is_long_term, <variable>.bottom_field.is_long_term
	str	r3, [r0, #644]	@ <variable>.frame.frame_store, <variable>.bottom_field.frame_store
	strb	ip, [r0, #642]	@ <variable>.frame.is_short_term, <variable>.bottom_field.is_short_term
	strb	r5, [r0, #640]	@ tmp148, <variable>.bottom_field.structure
	str	r1, [r0, #664]	@ <variable>.frame.err_level, <variable>.bottom_field.err_level
	strb	r2, [r0, #643]	@ <variable>.frame.pic_type, <variable>.bottom_field.pic_type
	strb	r4, [r0, #605]	@ <variable>.frame.is_long_term, <variable>.top_field.is_long_term
	strb	ip, [r0, #606]	@ <variable>.frame.is_short_term, <variable>.top_field.is_short_term
	str	r1, [r0, #628]	@ <variable>.frame.err_level, <variable>.top_field.err_level
	strb	r2, [r0, #607]	@ <variable>.frame.pic_type, <variable>.top_field.pic_type
	str	r3, [r0, #608]	@ <variable>.frame.frame_store, <variable>.top_field.frame_store
	ldmfd	sp, {r4, r5, fp, sp, pc}	@
	.fnend
	.size	MVC_SplitFrmToFlds, .-MVC_SplitFrmToFlds
	.align	2
	.global	MVC_CombineFldsToFrm
	.type	MVC_CombineFldsToFrm, %function
MVC_CombineFldsToFrm:
	.fnstart
.LFB1566:
	@ args = 0, pretend = 0, frame = 0
	@ frame_needed = 1, uses_anonymous_args = 0
	.movsp ip
	mov	ip, sp	@,
	stmfd	sp!, {r3, r4, fp, ip, lr, pc}	@,
	.pad #4
	.save {r3, r4, fp, ip, lr}
	.setfp fp, ip, #-4
	sub	fp, ip, #4	@,,
	push	{lr}
	bl	__gnu_mcount_nc
	ldr	r1, [r0, #656]	@ <variable>.bottom_field.poc, <variable>.bottom_field.poc
	ldr	r3, [r0, #620]	@ <variable>.top_field.poc, <variable>.top_field.poc
	ldr	r4, [r0, #664]	@ <variable>.bottom_field.err_level, <variable>.bottom_field.err_level
	cmp	r1, r3	@ <variable>.bottom_field.poc, <variable>.top_field.poc
	movlt	r3, r1	@ D.39783, <variable>.bottom_field.poc
	movge	r3, r3	@ D.39783, <variable>.top_field.poc
	ldr	r2, [r0, #628]	@ <variable>.top_field.err_level, <variable>.top_field.err_level
	ldrb	r1, [r0, #641]	@ zero_extendqisi2	@ <variable>.bottom_field.is_long_term, <variable>.bottom_field.is_long_term
	ldr	ip, [r0, #608]	@ <variable>.top_field.frame_store, <variable>.top_field.frame_store
	add	r2, r4, r2	@ tmp144, <variable>.bottom_field.err_level, <variable>.top_field.err_level
	cmp	r1, #0	@ <variable>.bottom_field.is_long_term,
	mov	r4, #3	@ tmp142,
	mov	r2, r2, lsr #1	@ D.39788, tmp144,
	str	r3, [r0, #32]	@ D.39783, <variable>.poc
	strb	r4, [r0, #568]	@ tmp142, <variable>.frame.structure
	str	ip, [r0, #572]	@ <variable>.top_field.frame_store, <variable>.frame.frame_store
	str	r3, [r0, #584]	@ D.39783, <variable>.frame.poc
	str	r2, [r0, #592]	@ D.39788, <variable>.frame.err_level
	beq	.L135	@,
	ldrb	ip, [r0, #605]	@ zero_extendqisi2	@ <variable>.top_field.is_long_term, <variable>.top_field.is_long_term
	subs	r1, ip, #0	@ prephitmp.1276, <variable>.top_field.is_long_term,
	movne	r1, #1	@ prephitmp.1276
.L135:
	ldr	r3, [r0, #640]	@ tmp154,
	strb	r1, [r0, #569]	@ prephitmp.1276, <variable>.frame.is_long_term
	bic	ip, r3, #-16777216	@ tmp152, tmp154,
	bic	r3, ip, #255	@ tmp152, tmp152,
	cmp	r3, #0	@ tmp152,
	beq	.L136	@,
	ldr	ip, [r0, #604]	@ tmp157,
	bic	r3, ip, #-16777216	@ tmp155, tmp157,
	bic	ip, r3, #255	@ tmp155, tmp155,
	cmp	ip, #0	@ tmp155,
	bne	.L139	@,
.L136:
	mov	r1, #0	@ prephitmp.1265,
.L137:
	ldrb	ip, [r0, #643]	@ zero_extendqisi2	@ <variable>.bottom_field.pic_type, <variable>.bottom_field.pic_type
	ldrb	r3, [r0, #607]	@ zero_extendqisi2	@ <variable>.top_field.pic_type, <variable>.top_field.pic_type
	str	r2, [r0, #44]	@ D.39788, <variable>.err_level
	cmp	ip, r3	@ <variable>.bottom_field.pic_type, <variable>.top_field.pic_type
	movcs	r3, ip	@ D.39812, <variable>.bottom_field.pic_type
	strb	r1, [r0, #570]	@ prephitmp.1265, <variable>.frame.is_short_term
	strb	r3, [r0, #0]	@ D.39812, <variable>.pic_type
	strb	r3, [r0, #571]	@ D.39812, <variable>.frame.pic_type
	ldmfd	sp, {r3, r4, fp, sp, pc}	@
.L139:
	rsbs	r1, r1, #1	@ prephitmp.1265, prephitmp.1276
	movcc	r1, #0	@ prephitmp.1265
	b	.L137	@
	.fnend
	.size	MVC_CombineFldsToFrm, .-MVC_CombineFldsToFrm
	.align	2
	.global	MVC_UpdateCurrFrameInfo
	.type	MVC_UpdateCurrFrameInfo, %function
MVC_UpdateCurrFrameInfo:
	.fnstart
.LFB1577:
	@ args = 0, pretend = 0, frame = 0
	@ frame_needed = 1, uses_anonymous_args = 0
	.movsp ip
	mov	ip, sp	@,
	stmfd	sp!, {r3, r4, r5, r6, r7, r8, r9, sl, fp, ip, lr, pc}	@,
	.pad #4
	.save {r3, r4, r5, r6, r7, r8, r9, sl, fp, ip, lr}
	.setfp fp, ip, #-4
	sub	fp, ip, #4	@,,
	push	{lr}
	bl	__gnu_mcount_nc
	movw	r6, #:lower16:11151064	@ tmp152,
	movw	r5, #:lower16:11150554	@ tmp153,
	movt	r6, #:upper16:11151064	@ tmp152,
	movt	r5, #:upper16:11150554	@ tmp153,
	mov	r3, r0	@ pMvcCtx, pMvcCtx
	ldr	r4, [r3, r6]	@ pCurrFrame, <variable>.CurrPic.frame_store
	movw	r0, #:lower16:11150556	@ tmp156,
	ldrb	r1, [r3, r5]	@ zero_extendqisi2	@ <variable>.CurrPic.non_existing, <variable>.CurrPic.non_existing
	movt	r0, #:upper16:11150556	@ tmp156,
	strb	r1, [r4, #1]	@ <variable>.CurrPic.non_existing, <variable>.non_existing
	ldrb	r2, [r3, r0]	@ zero_extendqisi2	@ <variable>.CurrPic.is_long_term, <variable>.CurrPic.is_long_term
	cmp	r2, #0	@ <variable>.CurrPic.is_long_term,
	bne	.L141	@,
	movw	r7, #:lower16:11150557	@ tmp158,
	movt	r7, #:upper16:11150557	@ tmp158,
	ldrb	r1, [r3, r7]	@ zero_extendqisi2	@ <variable>.CurrPic.is_short_term, <variable>.CurrPic.is_short_term
	cmp	r1, #0	@ <variable>.CurrPic.is_short_term,
	bne	.L141	@,
.L142:
	movw	r5, #:lower16:11151072	@ tmp161,
	movt	r5, #:upper16:11151072	@ tmp161,
	strb	r1, [r4, #3]	@ iftmp.556, <variable>.is_reference
	movw	ip, #:lower16:11151116	@ tmp163,
	ldr	r2, [r3, r5]	@ <variable>.CurrPic.frame_num, <variable>.CurrPic.frame_num
	movt	ip, #:upper16:11151116	@ tmp163,
	movw	r5, #:lower16:11150564	@ tmp165,
	movt	r5, #:upper16:11150564	@ tmp165,
	movw	r8, #:lower16:11151084	@ tmp168,
	movt	r8, #:upper16:11151084	@ tmp168,
	str	r2, [r4, #20]	@ <variable>.CurrPic.frame_num, <variable>.frame_num
	movw	r7, #:lower16:11151140	@ tmp170,
	ldr	sl, [r3, ip]	@ <variable>.CurrPic.err_level, <variable>.CurrPic.err_level
	movt	r7, #:upper16:11151140	@ tmp170,
	movw	r6, #:lower16:11151076	@ tmp172,
	movt	r6, #:upper16:11151076	@ tmp172,
	movw	r0, #:lower16:11150561	@ tmp174,
	movt	r0, #:upper16:11150561	@ tmp174,
	str	sl, [r4, #44]	@ <variable>.CurrPic.err_level, <variable>.err_level
	movw	r2, #:lower16:11150559	@ tmp176,
	ldrb	sl, [r3, r5]	@ zero_extendqisi2	@ <variable>.CurrPic.pic_type, <variable>.CurrPic.pic_type
	movt	r2, #:upper16:11150559	@ tmp176,
	movw	r1, #:lower16:11150555	@ tmp179,
	movt	r1, #:upper16:11150555	@ tmp179,
	strb	sl, [r4, #0]	@ <variable>.CurrPic.pic_type, <variable>.pic_type
	ldr	r8, [r3, r8]	@ <variable>.CurrPic.thispoc, <variable>.CurrPic.thispoc
	str	r8, [r4, #32]	@ <variable>.CurrPic.thispoc, <variable>.poc
	ldr	r7, [r3, r7]	@ <variable>.CurrPic.pmv_address_idc, <variable>.CurrPic.pmv_address_idc
	str	r7, [r4, #48]	@ <variable>.CurrPic.pmv_address_idc, <variable>.pmv_address_idc
	ldr	r6, [r3, r6]	@ <variable>.CurrPic.long_term_frame_idx, <variable>.CurrPic.long_term_frame_idx
	str	r6, [r4, #28]	@ <variable>.CurrPic.long_term_frame_idx, <variable>.long_term_frame_idx
	ldrb	r0, [r3, r0]	@ zero_extendqisi2	@ <variable>.CurrPic.MbaffFrameFlag, <variable>.CurrPic.MbaffFrameFlag
	str	r0, [r4, #40]	@ <variable>.CurrPic.MbaffFrameFlag, <variable>.MbaffFrameFlag
	ldrb	r0, [r3, r2]	@ zero_extendqisi2	@ <variable>.CurrPic.mode_skip_flag, <variable>.CurrPic.mode_skip_flag
	cmp	r0, #1	@ <variable>.CurrPic.mode_skip_flag,
	moveq	r0, #3	@ iftmp.558,
	movne	r0, #0	@ iftmp.558,
	strb	r0, [r4, #4]	@ iftmp.558, <variable>.mode_skip_flag
	ldrb	r1, [r3, r1]	@ zero_extendqisi2	@ <variable>.CurrPic.structure, <variable>.CurrPic.structure
	cmp	r1, #1	@ <variable>.CurrPic.structure,
	beq	.L147	@,
	bcs	.L161	@,
	movw	r6, #:lower16:11150556	@ tmp185,
	movt	r6, #:upper16:11150556	@ tmp185,
	str	r4, [r4, #572]	@ pCurrFrame, <variable>.frame.frame_store
	mov	sl, #3	@ tmp181,
	mov	r8, #0	@ tmp183,
	strb	sl, [r4, #2]	@ tmp181, <variable>.is_used
	strb	r8, [r4, #568]	@ tmp183, <variable>.frame.structure
	movw	r0, #:lower16:11150557	@ tmp187,
	ldrb	r8, [r3, r6]	@ zero_extendqisi2	@ temp.1307, <variable>.CurrPic.is_long_term
	movt	r0, #:upper16:11150557	@ tmp187,
	movw	r7, #:lower16:11151088	@ tmp189,
	movt	r7, #:upper16:11151088	@ tmp189,
	movw	r6, #:lower16:11151092	@ tmp194,
	movt	r6, #:upper16:11151092	@ tmp194,
	strb	r8, [r4, #569]	@ temp.1307, <variable>.frame.is_long_term
	movw	lr, #:lower16:11151096	@ tmp196,
	ldrb	sl, [r3, r0]	@ zero_extendqisi2	@ temp.1308, <variable>.CurrPic.is_short_term
	movt	lr, #:upper16:11151096	@ tmp196,
	movw	r1, #:lower16:11150568	@,
	movt	r1, #:upper16:11150568	@,
	add	r1, r3, r1	@, pMvcCtx,
	add	r0, r4, #72	@, pCurrFrame,
	strb	sl, [r4, #570]	@ temp.1308, <variable>.frame.is_short_term
	mov	r2, #496	@,
	ldr	r7, [r3, r7]	@ <variable>.CurrPic.framepoc, <variable>.CurrPic.framepoc
	str	r7, [r4, #584]	@ <variable>.CurrPic.framepoc, <variable>.frame.poc
	ldrb	r7, [r3, r5]	@ zero_extendqisi2	@ temp.1309, <variable>.CurrPic.pic_type
	strb	r7, [r4, #571]	@ temp.1309, <variable>.frame.pic_type
	ldr	r5, [r3, ip]	@ temp.1310, <variable>.CurrPic.err_level
	str	r5, [r4, #592]	@ temp.1310, <variable>.frame.err_level
	ldr	ip, [r3, r6]	@ <variable>.CurrPic.toppoc, <variable>.CurrPic.toppoc
	str	ip, [r4, #620]	@ <variable>.CurrPic.toppoc, <variable>.top_field.poc
	ldr	r3, [r3, lr]	@ <variable>.CurrPic.bottompoc, <variable>.CurrPic.bottompoc
	str	r3, [r4, #656]	@ <variable>.CurrPic.bottompoc, <variable>.bottom_field.poc
	bl	memcpy	@
	mov	ip, #1	@ tmp205,
	mov	r3, #2	@ tmp210,
	strb	r8, [r4, #641]	@ temp.1307, <variable>.bottom_field.is_long_term
	strb	sl, [r4, #642]	@ temp.1308, <variable>.bottom_field.is_short_term
	str	r5, [r4, #664]	@ temp.1310, <variable>.bottom_field.err_level
	strb	ip, [r4, #604]	@ tmp205, <variable>.top_field.structure
	strb	r3, [r4, #640]	@ tmp210, <variable>.bottom_field.structure
	strb	r7, [r4, #643]	@ temp.1309, <variable>.bottom_field.pic_type
	str	r4, [r4, #644]	@ pCurrFrame, <variable>.bottom_field.frame_store
	strb	r8, [r4, #605]	@ temp.1307, <variable>.top_field.is_long_term
	strb	sl, [r4, #606]	@ temp.1308, <variable>.top_field.is_short_term
	str	r5, [r4, #628]	@ temp.1310, <variable>.top_field.err_level
	strb	r7, [r4, #607]	@ temp.1309, <variable>.top_field.pic_type
	str	r4, [r4, #608]	@ pCurrFrame, <variable>.top_field.frame_store
	ldmfd	sp, {r3, r4, r5, r6, r7, r8, r9, sl, fp, sp, pc}	@
.L141:
	mov	r1, #3	@ iftmp.556,
	b	.L142	@
.L161:
	cmp	r1, #2	@ <variable>.CurrPic.structure,
	ldmnefd	sp, {r3, r4, r5, r6, r7, r8, r9, sl, fp, sp, pc}	@
	movw	lr, #:lower16:11150556	@ tmp258,
	movt	lr, #:upper16:11150556	@ tmp258,
	str	r4, [r4, #644]	@ pCurrFrame, <variable>.bottom_field.frame_store
	mov	r6, #1	@ tmp256,
	strb	r6, [r4, #640]	@ tmp256, <variable>.bottom_field.structure
	movw	r7, #:lower16:11150557	@ tmp261,
	ldrb	r8, [r3, lr]	@ zero_extendqisi2	@ <variable>.CurrPic.is_long_term, <variable>.CurrPic.is_long_term
	movt	r7, #:upper16:11150557	@ tmp261,
	movw	lr, #:lower16:11151092	@ tmp264,
	movt	lr, #:upper16:11151092	@ tmp264,
	movw	r6, #:lower16:11150553	@ tmp270,
	movt	r6, #:upper16:11150553	@ tmp270,
	strb	r8, [r4, #641]	@ <variable>.CurrPic.is_long_term, <variable>.bottom_field.is_long_term
	mov	r8, #0	@ tmp269,
	ldrb	r7, [r3, r7]	@ zero_extendqisi2	@ <variable>.CurrPic.is_short_term, <variable>.CurrPic.is_short_term
	strb	r7, [r4, #642]	@ <variable>.CurrPic.is_short_term, <variable>.bottom_field.is_short_term
	ldr	lr, [r3, lr]	@ <variable>.CurrPic.toppoc, <variable>.CurrPic.toppoc
	str	lr, [r4, #656]	@ <variable>.CurrPic.toppoc, <variable>.bottom_field.poc
	ldrb	lr, [r3, r5]	@ zero_extendqisi2	@ temp.1322, <variable>.CurrPic.pic_type
	strb	lr, [r4, #643]	@ temp.1322, <variable>.bottom_field.pic_type
	ldr	ip, [r3, ip]	@ temp.1323, <variable>.CurrPic.err_level
	str	r8, [r4, #40]	@ tmp269, <variable>.MbaffFrameFlag
	str	ip, [r4, #664]	@ temp.1323, <variable>.bottom_field.err_level
	ldrb	r5, [r3, r6]	@ zero_extendqisi2	@ <variable>.CurrPic.field_pair_flag, <variable>.CurrPic.field_pair_flag
	cmp	r5, r8	@ <variable>.CurrPic.field_pair_flag,
	beq	.L162	@,
	ldr	r1, [r4, #628]	@ <variable>.top_field.err_level, <variable>.top_field.err_level
	mov	r5, #3	@ tmp282,
	strb	r5, [r4, #2]	@ tmp282, <variable>.is_used
	add	r7, ip, r1	@ temp.1326, temp.1323, <variable>.top_field.err_level
	str	r7, [r4, #592]	@ temp.1326, <variable>.frame.err_level
	str	r7, [r4, #44]	@ temp.1326, <variable>.err_level
	movw	ip, #:lower16:11150576	@ tmp289,
	ldrb	r2, [r3, r2]	@ zero_extendqisi2	@ <variable>.CurrPic.mode_skip_flag, <variable>.CurrPic.mode_skip_flag
	movt	ip, #:upper16:11150576	@ tmp289,
	mvn	r1, #0	@,
	cmp	r2, #1	@ <variable>.CurrPic.mode_skip_flag,
	orreq	r8, r0, #2	@ iftmp.561, iftmp.558,
	strb	r8, [r4, #4]	@ iftmp.561, <variable>.mode_skip_flag
	ldrd	r6, [r3, ip]	@ temp.1328, pMvcCtx, tmp289
	mvn	r0, #0	@ tmp290,
	cmp	r7, r1	@ temp.1328, tmp290
	cmpeq	r6, r0	@ temp.1328, tmp290
	beq	.L158	@,
	ldrd	r8, [r4, #80]	@ <variable>.fs_image.PTS, pCurrFrame,
	cmp	r9, r1	@ <variable>.fs_image.PTS, tmp290
	cmpeq	r8, r0	@ <variable>.fs_image.PTS, tmp290
	beq	.L163	@,
.L158:
	ldrb	r1, [r4, #607]	@ zero_extendqisi2	@ <variable>.top_field.pic_type, <variable>.top_field.pic_type
	b	.L160	@
.L147:
	movw	r6, #:lower16:11150556	@ tmp215,
	movt	r6, #:upper16:11150556	@ tmp215,
	strb	r1, [r4, #604]	@ <variable>.CurrPic.structure, <variable>.top_field.structure
	movw	r7, #:lower16:11150557	@ tmp218,
	str	r4, [r4, #608]	@ pCurrFrame, <variable>.top_field.frame_store
	movt	r7, #:upper16:11150557	@ tmp218,
	ldrb	sl, [r3, r6]	@ zero_extendqisi2	@ <variable>.CurrPic.is_long_term, <variable>.CurrPic.is_long_term
	movw	lr, #:lower16:11151092	@ tmp221,
	movt	lr, #:upper16:11151092	@ tmp221,
	movw	r6, #:lower16:11150553	@ tmp227,
	movt	r6, #:upper16:11150553	@ tmp227,
	mov	r8, #0	@ tmp226,
	strb	sl, [r4, #605]	@ <variable>.CurrPic.is_long_term, <variable>.top_field.is_long_term
	ldrb	r7, [r3, r7]	@ zero_extendqisi2	@ <variable>.CurrPic.is_short_term, <variable>.CurrPic.is_short_term
	strb	r7, [r4, #606]	@ <variable>.CurrPic.is_short_term, <variable>.top_field.is_short_term
	ldr	lr, [r3, lr]	@ <variable>.CurrPic.toppoc, <variable>.CurrPic.toppoc
	str	lr, [r4, #620]	@ <variable>.CurrPic.toppoc, <variable>.top_field.poc
	ldrb	lr, [r3, r5]	@ zero_extendqisi2	@ temp.1314, <variable>.CurrPic.pic_type
	strb	lr, [r4, #607]	@ temp.1314, <variable>.top_field.pic_type
	ldr	ip, [r3, ip]	@ temp.1315, <variable>.CurrPic.err_level
	str	r8, [r4, #40]	@ tmp226, <variable>.MbaffFrameFlag
	str	ip, [r4, #628]	@ temp.1315, <variable>.top_field.err_level
	ldrb	r5, [r3, r6]	@ zero_extendqisi2	@ <variable>.CurrPic.field_pair_flag, <variable>.CurrPic.field_pair_flag
	cmp	r5, r8	@ <variable>.CurrPic.field_pair_flag,
	beq	.L164	@,
	ldr	r1, [r4, #664]	@ <variable>.bottom_field.err_level, <variable>.bottom_field.err_level
	mov	r5, #3	@ tmp240,
	strb	r5, [r4, #2]	@ tmp240, <variable>.is_used
	add	r6, ip, r1	@ D.40573, temp.1315, <variable>.bottom_field.err_level
	str	r6, [r4, #592]	@ D.40573, <variable>.frame.err_level
	str	r6, [r4, #44]	@ D.40573, <variable>.err_level
	mvn	r1, #0	@,
	ldrb	r7, [r3, r2]	@ zero_extendqisi2	@ <variable>.CurrPic.mode_skip_flag, <variable>.CurrPic.mode_skip_flag
	movw	r2, #:lower16:11150576	@ tmp247,
	movt	r2, #:upper16:11150576	@ tmp247,
	cmp	r7, #1	@ <variable>.CurrPic.mode_skip_flag,
	orreq	r8, r0, #1	@ iftmp.559, iftmp.558,
	strb	r8, [r4, #4]	@ iftmp.559, <variable>.mode_skip_flag
	ldrd	r6, [r3, r2]	@ D.40580, pMvcCtx, tmp247
	mvn	r0, #0	@ tmp248,
	cmp	r7, r1	@ D.40580, tmp248
	cmpeq	r6, r0	@ D.40580, tmp248
	beq	.L152	@,
	ldrd	r8, [r4, #80]	@ <variable>.fs_image.PTS, pCurrFrame,
	cmp	r9, r1	@ <variable>.fs_image.PTS, tmp248
	cmpeq	r8, r0	@ <variable>.fs_image.PTS, tmp248
	beq	.L165	@,
.L152:
	ldrb	r1, [r4, #643]	@ zero_extendqisi2	@ <variable>.bottom_field.pic_type, <variable>.bottom_field.pic_type
.L160:
	movw	ip, #:lower16:11151084	@ tmp296,
	movt	ip, #:upper16:11151084	@ tmp296,
	cmp	r1, lr	@ <variable>.top_field.pic_type, temp.1322
	movcs	lr, r1	@ tmp294, <variable>.top_field.pic_type
	strb	lr, [r4, #0]	@ tmp294, <variable>.pic_type
	ldr	lr, [r3, ip]	@ <variable>.CurrPic.thispoc, <variable>.CurrPic.thispoc
	mov	r0, r4	@, pCurrFrame
	str	lr, [r4, #32]	@ <variable>.CurrPic.thispoc, <variable>.poc
	bl	MVC_CombineFldsToFrm	@
	ldmfd	sp, {r3, r4, r5, r6, r7, r8, r9, sl, fp, sp, pc}	@
.L162:
	movw	r0, #:lower16:11150568	@,
	movt	r0, #:upper16:11150568	@,
	strb	r1, [r4, #2]	@ <variable>.CurrPic.structure, <variable>.is_used
	add	r1, r3, r0	@, pMvcCtx,
	str	ip, [r4, #592]	@ temp.1323, <variable>.frame.err_level
	add	r0, r4, #72	@, pCurrFrame,
	str	ip, [r4, #44]	@ temp.1323, <variable>.err_level
	ldrb	r3, [r3, r2]	@ zero_extendqisi2	@ <variable>.CurrPic.mode_skip_flag, <variable>.CurrPic.mode_skip_flag
	mov	r2, #496	@,
	cmp	r3, #1	@ <variable>.CurrPic.mode_skip_flag,
	moveq	r3, #2	@ iftmp.560,
	movne	r3, r8	@ iftmp.560,
	strb	r3, [r4, #4]	@ iftmp.560, <variable>.mode_skip_flag
	bl	memcpy	@
	ldmfd	sp, {r3, r4, r5, r6, r7, r8, r9, sl, fp, sp, pc}	@
.L164:
	strb	r1, [r4, #2]	@ <variable>.CurrPic.structure, <variable>.is_used
	movw	r1, #:lower16:11150568	@,
	str	ip, [r4, #592]	@ temp.1315, <variable>.frame.err_level
	movt	r1, #:upper16:11150568	@,
	str	ip, [r4, #44]	@ temp.1315, <variable>.err_level
	add	r1, r3, r1	@, pMvcCtx,
	ldrb	ip, [r3, r2]	@ zero_extendqisi2	@ <variable>.CurrPic.mode_skip_flag, <variable>.CurrPic.mode_skip_flag
	add	r0, r4, #72	@, pCurrFrame,
	mov	r2, #496	@,
	cmp	ip, #1	@ <variable>.CurrPic.mode_skip_flag,
	movne	r3, #0	@, tmp233
	moveq	r3, #1	@, tmp233
	strb	r3, [r4, #4]	@ tmp233, <variable>.mode_skip_flag
	bl	memcpy	@
	ldmfd	sp, {r3, r4, r5, r6, r7, r8, r9, sl, fp, sp, pc}	@
.L165:
	strd	r6, [r4, #80]	@ D.40580, pCurrFrame,
	b	.L152	@
.L163:
	strd	r6, [r4, #80]	@ temp.1328, pCurrFrame,
	ldrb	r1, [r4, #607]	@ zero_extendqisi2	@ <variable>.top_field.pic_type, <variable>.top_field.pic_type
	b	.L160	@
	.fnend
	.size	MVC_UpdateCurrFrameInfo, .-MVC_UpdateCurrFrameInfo
	.align	2
	.global	MVC_GetShortTermPicPoint
	.type	MVC_GetShortTermPicPoint, %function
MVC_GetShortTermPicPoint:
	.fnstart
.LFB1583:
	@ args = 0, pretend = 0, frame = 0
	@ frame_needed = 1, uses_anonymous_args = 0
	.movsp ip
	mov	ip, sp	@,
	stmfd	sp!, {r3, r4, r5, r6, fp, ip, lr, pc}	@,
	.pad #4
	.save {r3, r4, r5, r6, fp, ip, lr}
	.setfp fp, ip, #-4
	sub	fp, ip, #4	@,,
	push	{lr}
	bl	__gnu_mcount_nc
	movw	r3, #:lower16:11117033	@ tmp144,
	movt	r3, #:upper16:11117033	@ tmp144,
	ldrb	r4, [r0, r3]	@ zero_extendqisi2	@ <variable>.CurrSlice.field_pic_flag, <variable>.CurrSlice.field_pic_flag
	cmp	r4, #0	@ <variable>.CurrSlice.field_pic_flag,
	beq	.L168	@,
	movw	r2, #:lower16:11117034	@ tmp146,
	movt	r2, #:upper16:11117034	@ tmp146,
	ldrb	r4, [r0, r2]	@ zero_extendqisi2	@ <variable>.CurrSlice.bottom_field_flag, <variable>.CurrSlice.bottom_field_flag
	cmp	r4, #0	@ <variable>.CurrSlice.bottom_field_flag,
	movne	r4, #2	@ structure,
	moveq	r4, #1	@ structure,
.L168:
	movw	ip, #:lower16:11122992	@ tmp148,
	movt	ip, #:upper16:11122992	@ tmp148,
	ldr	r6, [r0, ip]	@ D.41065, <variable>.DPB.ref_frames_in_buffer
	cmp	r6, #0	@ D.41065,
	beq	.L170	@,
	cmp	r4, #0	@ structure,
	movw	r5, #:lower16:11122856	@ ivtmp.1358,
	sub	r2, r6, #1	@ tmp166, D.41065,
	movt	r5, #:upper16:11122856	@ ivtmp.1358,
	add	r3, r0, r5	@ ivtmp.1358, pMvcCtx, ivtmp.1358
	and	r5, r2, #1	@ tmp168, tmp166,
	bne	.L178	@,
	ldr	r2, [r3, #0]	@ D.41030, <variable>.DPB.fs_ref
	ldrb	r0, [r2, #3]	@ zero_extendqisi2	@ <variable>.is_reference, <variable>.is_reference
	cmp	r0, #3	@ <variable>.is_reference,
	bne	.L180	@,
	ldr	ip, [r2, #568]	@ tmp185,
	bic	r0, ip, #-16777216	@ tmp186, tmp185,
	bic	ip, r0, #255	@ tmp186, tmp186,
	cmp	ip, #65536	@ tmp186,
	bne	.L180	@,
	ldr	r0, [r2, #580]	@ <variable>.frame.pic_num, <variable>.frame.pic_num
	cmp	r0, r1	@ <variable>.frame.pic_num, picNum
	beq	.L197	@,
.L180:
	mov	ip, #1	@ i,
	cmp	r6, ip	@ D.41065, i
	add	r3, r3, #4	@ ivtmp.1358, ivtmp.1358,
	bls	.L170	@,
	cmp	r5, #0	@ tmp168,
	beq	.L175	@,
	cmp	r4, #0	@ structure,
	beq	.L198	@,
	ldr	r0, [r3, #0]	@ temp.1361, <variable>.DPB.fs_ref
	ldrb	r2, [r0, #3]	@ zero_extendqisi2	@ D.41043, <variable>.is_reference
	tst	r2, #1	@ D.41043,
	beq	.L183	@,
	ldr	r5, [r0, #604]	@ tmp194,
	bic	r5, r5, #-16777216	@ tmp195, tmp194,
	bic	r5, r5, #255	@ tmp195, tmp195,
	cmp	r5, #65536	@ tmp195,
	beq	.L202	@,
.L183:
	tst	r2, #2	@ D.41043,
	beq	.L184	@,
	ldr	r2, [r0, #640]	@ tmp191,
	bic	r2, r2, #-16777216	@ tmp192, tmp191,
	bic	r2, r2, #255	@ tmp192, tmp192,
	cmp	r2, #65536	@ tmp192,
	bne	.L184	@,
	ldr	r2, [r0, #652]	@ <variable>.bottom_field.pic_num, <variable>.bottom_field.pic_num
	cmp	r2, r1	@ <variable>.bottom_field.pic_num, picNum
	beq	.L195	@,
.L184:
	add	ip, ip, #1	@ i, i,
	add	r3, r3, #4	@ ivtmp.1358, ivtmp.1358,
	cmp	r6, ip	@ D.41065, i
	bhi	.L175	@,
.L170:
	mov	r0, #0	@ D.41041,
	ldmfd	sp, {r3, r4, r5, r6, fp, sp, pc}	@
.L178:
	ldr	r0, [r3, #0]	@ temp.1361, <variable>.DPB.fs_ref
	ldrb	r2, [r0, #3]	@ zero_extendqisi2	@ D.41043, <variable>.is_reference
	tst	r2, #1	@ D.41043,
	beq	.L179	@,
	ldr	ip, [r0, #604]	@ tmp181,
	bic	ip, ip, #-16777216	@ tmp182, tmp181,
	bic	ip, ip, #255	@ tmp182, tmp182,
	cmp	ip, #65536	@ tmp182,
	beq	.L203	@,
.L179:
	tst	r2, #2	@ D.41043,
	beq	.L180	@,
	ldr	ip, [r0, #640]	@ tmp178,
	bic	r2, ip, #-16777216	@ tmp179, tmp178,
	bic	ip, r2, #255	@ tmp179, tmp179,
	cmp	ip, #65536	@ tmp179,
	bne	.L180	@,
	ldr	r2, [r0, #652]	@ <variable>.bottom_field.pic_num, <variable>.bottom_field.pic_num
	cmp	r2, r1	@ <variable>.bottom_field.pic_num, picNum
	bne	.L180	@,
.L195:
	add	r0, r0, #640	@ D.41041, temp.1361,
	ldmfd	sp, {r3, r4, r5, r6, fp, sp, pc}	@
.L204:
	ldr	r2, [r3, #0]	@ D.41030, <variable>.DPB.fs_ref
	ldrb	r0, [r2, #3]	@ zero_extendqisi2	@ <variable>.is_reference, <variable>.is_reference
	cmp	r0, #3	@ <variable>.is_reference,
	bne	.L172	@,
	ldr	r0, [r2, #568]	@ tmp153,
	bic	r0, r0, #-16777216	@ tmp151, tmp153,
	bic	r0, r0, #255	@ tmp151, tmp151,
	cmp	r0, #65536	@ tmp151,
	bne	.L172	@,
	ldr	r0, [r2, #580]	@ <variable>.frame.pic_num, <variable>.frame.pic_num
	cmp	r0, r1	@ <variable>.frame.pic_num, picNum
	beq	.L197	@,
.L172:
	cmp	r4, #0	@ structure,
	add	ip, ip, #1	@ tmp169, i,
	add	r5, r3, #4	@ tmp170, ivtmp.1358,
	bne	.L187	@,
.L206:
	ldr	r2, [r3, #4]	@ D.41030, <variable>.DPB.fs_ref
	ldrb	r0, [r2, #3]	@ zero_extendqisi2	@ <variable>.is_reference, <variable>.is_reference
	cmp	r0, #3	@ <variable>.is_reference,
	bne	.L189	@,
	ldr	r3, [r2, #568]	@ tmp211,
	bic	r0, r3, #-16777216	@ tmp212, tmp211,
	bic	r3, r0, #255	@ tmp212, tmp212,
	cmp	r3, #65536	@ tmp212,
	bne	.L189	@,
	ldr	r0, [r2, #580]	@ <variable>.frame.pic_num, <variable>.frame.pic_num
	cmp	r0, r1	@ <variable>.frame.pic_num, picNum
	beq	.L197	@,
.L189:
	add	ip, ip, #1	@ i, tmp169,
	add	r3, r5, #4	@ ivtmp.1358, tmp170,
	cmp	r6, ip	@ D.41065, i
	bls	.L170	@,
.L175:
	cmp	r4, #0	@ structure,
	beq	.L204	@,
	ldr	r0, [r3, #0]	@ temp.1361, <variable>.DPB.fs_ref
	ldrb	r2, [r0, #3]	@ zero_extendqisi2	@ D.41043, <variable>.is_reference
	tst	r2, #1	@ D.41043,
	beq	.L174	@,
	ldr	r5, [r0, #604]	@ tmp158,
	bic	r5, r5, #-16777216	@ tmp156, tmp158,
	bic	r5, r5, #255	@ tmp156, tmp156,
	cmp	r5, #65536	@ tmp156,
	beq	.L205	@,
.L174:
	tst	r2, #2	@ D.41043,
	beq	.L172	@,
	ldr	r2, [r0, #640]	@ tmp163,
	bic	r2, r2, #-16777216	@ tmp161, tmp163,
	bic	r2, r2, #255	@ tmp161, tmp161,
	cmp	r2, #65536	@ tmp161,
	bne	.L172	@,
	ldr	r2, [r0, #652]	@ <variable>.bottom_field.pic_num, <variable>.bottom_field.pic_num
	cmp	r2, r1	@ <variable>.bottom_field.pic_num, picNum
	beq	.L195	@,
	cmp	r4, #0	@ structure,
	add	ip, ip, #1	@ tmp169, i,
	add	r5, r3, #4	@ tmp170, ivtmp.1358,
	beq	.L206	@,
.L187:
	ldr	r0, [r3, #4]	@ temp.1361, <variable>.DPB.fs_ref
	ldrb	r3, [r0, #3]	@ zero_extendqisi2	@ D.41043, <variable>.is_reference
	tst	r3, #1	@ D.41043,
	beq	.L188	@,
	ldr	r2, [r0, #604]	@ tmp207,
	bic	r2, r2, #-16777216	@ tmp208, tmp207,
	bic	r2, r2, #255	@ tmp208, tmp208,
	cmp	r2, #65536	@ tmp208,
	beq	.L207	@,
.L188:
	tst	r3, #2	@ D.41043,
	beq	.L189	@,
	ldr	r3, [r0, #640]	@ tmp204,
	bic	r2, r3, #-16777216	@ tmp205, tmp204,
	bic	r3, r2, #255	@ tmp205, tmp205,
	cmp	r3, #65536	@ tmp205,
	bne	.L189	@,
	ldr	r2, [r0, #652]	@ <variable>.bottom_field.pic_num, <variable>.bottom_field.pic_num
	cmp	r2, r1	@ <variable>.bottom_field.pic_num, picNum
	bne	.L189	@,
	b	.L195	@
.L205:
	ldr	r5, [r0, #616]	@ <variable>.top_field.pic_num, <variable>.top_field.pic_num
	cmp	r5, r1	@ <variable>.top_field.pic_num, picNum
	bne	.L174	@,
.L196:
	add	r0, r0, #604	@ D.41041, temp.1361,
	ldmfd	sp, {r3, r4, r5, r6, fp, sp, pc}	@
.L207:
	ldr	r2, [r0, #616]	@ <variable>.top_field.pic_num, <variable>.top_field.pic_num
	cmp	r2, r1	@ <variable>.top_field.pic_num, picNum
	bne	.L188	@,
	b	.L196	@
.L198:
	ldr	r2, [r3, #0]	@ D.41030, <variable>.DPB.fs_ref
	ldrb	r0, [r2, #3]	@ zero_extendqisi2	@ <variable>.is_reference, <variable>.is_reference
	cmp	r0, #3	@ <variable>.is_reference,
	bne	.L184	@,
	ldr	r0, [r2, #568]	@ tmp198,
	bic	r0, r0, #-16777216	@ tmp199, tmp198,
	bic	r0, r0, #255	@ tmp199, tmp199,
	cmp	r0, #65536	@ tmp199,
	bne	.L184	@,
	ldr	r0, [r2, #580]	@ <variable>.frame.pic_num, <variable>.frame.pic_num
	cmp	r0, r1	@ <variable>.frame.pic_num, picNum
	bne	.L184	@,
.L197:
	add	r0, r2, #568	@ D.41041, D.41030,
	ldmfd	sp, {r3, r4, r5, r6, fp, sp, pc}	@
.L203:
	ldr	ip, [r0, #616]	@ <variable>.top_field.pic_num, <variable>.top_field.pic_num
	cmp	ip, r1	@ <variable>.top_field.pic_num, picNum
	bne	.L179	@,
	b	.L196	@
.L202:
	ldr	r5, [r0, #616]	@ <variable>.top_field.pic_num, <variable>.top_field.pic_num
	cmp	r5, r1	@ <variable>.top_field.pic_num, picNum
	bne	.L183	@,
	b	.L196	@
	.fnend
	.size	MVC_GetShortTermPicPoint, .-MVC_GetShortTermPicPoint
	.align	2
	.global	MVC_GetLongTermPicPoint
	.type	MVC_GetLongTermPicPoint, %function
MVC_GetLongTermPicPoint:
	.fnstart
.LFB1584:
	@ args = 0, pretend = 0, frame = 0
	@ frame_needed = 1, uses_anonymous_args = 0
	.movsp ip
	mov	ip, sp	@,
	stmfd	sp!, {r3, r4, r5, r6, fp, ip, lr, pc}	@,
	.pad #4
	.save {r3, r4, r5, r6, fp, ip, lr}
	.setfp fp, ip, #-4
	sub	fp, ip, #4	@,,
	push	{lr}
	bl	__gnu_mcount_nc
	movw	r3, #:lower16:11117033	@ tmp144,
	movt	r3, #:upper16:11117033	@ tmp144,
	ldrb	r4, [r0, r3]	@ zero_extendqisi2	@ <variable>.CurrSlice.field_pic_flag, <variable>.CurrSlice.field_pic_flag
	cmp	r4, #0	@ <variable>.CurrSlice.field_pic_flag,
	beq	.L210	@,
	movw	r2, #:lower16:11117034	@ tmp146,
	movt	r2, #:upper16:11117034	@ tmp146,
	ldrb	r4, [r0, r2]	@ zero_extendqisi2	@ <variable>.CurrSlice.bottom_field_flag, <variable>.CurrSlice.bottom_field_flag
	cmp	r4, #0	@ <variable>.CurrSlice.bottom_field_flag,
	movne	r4, #2	@ structure,
	moveq	r4, #1	@ structure,
.L210:
	movw	ip, #:lower16:11122996	@ tmp148,
	movt	ip, #:upper16:11122996	@ tmp148,
	ldr	r6, [r0, ip]	@ D.41123, <variable>.DPB.ltref_frames_in_buffer
	cmp	r6, #0	@ D.41123,
	beq	.L212	@,
	cmp	r4, #0	@ structure,
	movw	r5, #:lower16:11122920	@ ivtmp.1389,
	sub	r2, r6, #1	@ tmp166, D.41123,
	movt	r5, #:upper16:11122920	@ ivtmp.1389,
	add	r3, r0, r5	@ ivtmp.1389, pMvcCtx, ivtmp.1389
	and	r5, r2, #1	@ tmp168, tmp166,
	bne	.L220	@,
	ldr	r2, [r3, #0]	@ D.41088, <variable>.DPB.fs_ltref
	ldrb	r0, [r2, #3]	@ zero_extendqisi2	@ <variable>.is_reference, <variable>.is_reference
	cmp	r0, #3	@ <variable>.is_reference,
	bne	.L222	@,
	ldr	ip, [r2, #568]	@ tmp185,
	bic	r0, ip, #-16777216	@ tmp186, tmp185,
	bic	ip, r0, #255	@ tmp186, tmp186,
	cmp	ip, #256	@ tmp186,
	bne	.L222	@,
	ldr	r0, [r2, #576]	@ <variable>.frame.long_term_pic_num, <variable>.frame.long_term_pic_num
	cmp	r0, r1	@ <variable>.frame.long_term_pic_num, LongtermPicNum
	beq	.L239	@,
.L222:
	mov	ip, #1	@ i,
	cmp	r6, ip	@ D.41123, i
	add	r3, r3, #4	@ ivtmp.1389, ivtmp.1389,
	bls	.L212	@,
	cmp	r5, #0	@ tmp168,
	beq	.L217	@,
	cmp	r4, #0	@ structure,
	beq	.L240	@,
	ldr	r0, [r3, #0]	@ temp.1392, <variable>.DPB.fs_ltref
	ldrb	r2, [r0, #3]	@ zero_extendqisi2	@ D.41101, <variable>.is_reference
	tst	r2, #1	@ D.41101,
	beq	.L225	@,
	ldr	r5, [r0, #604]	@ tmp194,
	bic	r5, r5, #-16777216	@ tmp195, tmp194,
	bic	r5, r5, #255	@ tmp195, tmp195,
	cmp	r5, #256	@ tmp195,
	beq	.L244	@,
.L225:
	tst	r2, #2	@ D.41101,
	beq	.L226	@,
	ldr	r2, [r0, #640]	@ tmp191,
	bic	r2, r2, #-16777216	@ tmp192, tmp191,
	bic	r2, r2, #255	@ tmp192, tmp192,
	cmp	r2, #256	@ tmp192,
	bne	.L226	@,
	ldr	r2, [r0, #648]	@ <variable>.bottom_field.long_term_pic_num, <variable>.bottom_field.long_term_pic_num
	cmp	r2, r1	@ <variable>.bottom_field.long_term_pic_num, LongtermPicNum
	beq	.L237	@,
.L226:
	add	ip, ip, #1	@ i, i,
	add	r3, r3, #4	@ ivtmp.1389, ivtmp.1389,
	cmp	r6, ip	@ D.41123, i
	bhi	.L217	@,
.L212:
	mov	r0, #0	@ D.41099,
	ldmfd	sp, {r3, r4, r5, r6, fp, sp, pc}	@
.L220:
	ldr	r0, [r3, #0]	@ temp.1392, <variable>.DPB.fs_ltref
	ldrb	r2, [r0, #3]	@ zero_extendqisi2	@ D.41101, <variable>.is_reference
	tst	r2, #1	@ D.41101,
	beq	.L221	@,
	ldr	ip, [r0, #604]	@ tmp181,
	bic	ip, ip, #-16777216	@ tmp182, tmp181,
	bic	ip, ip, #255	@ tmp182, tmp182,
	cmp	ip, #256	@ tmp182,
	beq	.L245	@,
.L221:
	tst	r2, #2	@ D.41101,
	beq	.L222	@,
	ldr	ip, [r0, #640]	@ tmp178,
	bic	r2, ip, #-16777216	@ tmp179, tmp178,
	bic	ip, r2, #255	@ tmp179, tmp179,
	cmp	ip, #256	@ tmp179,
	bne	.L222	@,
	ldr	r2, [r0, #648]	@ <variable>.bottom_field.long_term_pic_num, <variable>.bottom_field.long_term_pic_num
	cmp	r2, r1	@ <variable>.bottom_field.long_term_pic_num, LongtermPicNum
	bne	.L222	@,
.L237:
	add	r0, r0, #640	@ D.41099, temp.1392,
	ldmfd	sp, {r3, r4, r5, r6, fp, sp, pc}	@
.L246:
	ldr	r2, [r3, #0]	@ D.41088, <variable>.DPB.fs_ltref
	ldrb	r0, [r2, #3]	@ zero_extendqisi2	@ <variable>.is_reference, <variable>.is_reference
	cmp	r0, #3	@ <variable>.is_reference,
	bne	.L214	@,
	ldr	r0, [r2, #568]	@ tmp153,
	bic	r0, r0, #-16777216	@ tmp151, tmp153,
	bic	r0, r0, #255	@ tmp151, tmp151,
	cmp	r0, #256	@ tmp151,
	bne	.L214	@,
	ldr	r0, [r2, #576]	@ <variable>.frame.long_term_pic_num, <variable>.frame.long_term_pic_num
	cmp	r0, r1	@ <variable>.frame.long_term_pic_num, LongtermPicNum
	beq	.L239	@,
.L214:
	cmp	r4, #0	@ structure,
	add	ip, ip, #1	@ tmp169, i,
	add	r5, r3, #4	@ tmp170, ivtmp.1389,
	bne	.L229	@,
.L248:
	ldr	r2, [r3, #4]	@ D.41088, <variable>.DPB.fs_ltref
	ldrb	r0, [r2, #3]	@ zero_extendqisi2	@ <variable>.is_reference, <variable>.is_reference
	cmp	r0, #3	@ <variable>.is_reference,
	bne	.L231	@,
	ldr	r3, [r2, #568]	@ tmp211,
	bic	r0, r3, #-16777216	@ tmp212, tmp211,
	bic	r3, r0, #255	@ tmp212, tmp212,
	cmp	r3, #256	@ tmp212,
	bne	.L231	@,
	ldr	r0, [r2, #576]	@ <variable>.frame.long_term_pic_num, <variable>.frame.long_term_pic_num
	cmp	r0, r1	@ <variable>.frame.long_term_pic_num, LongtermPicNum
	beq	.L239	@,
.L231:
	add	ip, ip, #1	@ i, tmp169,
	add	r3, r5, #4	@ ivtmp.1389, tmp170,
	cmp	r6, ip	@ D.41123, i
	bls	.L212	@,
.L217:
	cmp	r4, #0	@ structure,
	beq	.L246	@,
	ldr	r0, [r3, #0]	@ temp.1392, <variable>.DPB.fs_ltref
	ldrb	r2, [r0, #3]	@ zero_extendqisi2	@ D.41101, <variable>.is_reference
	tst	r2, #1	@ D.41101,
	beq	.L216	@,
	ldr	r5, [r0, #604]	@ tmp158,
	bic	r5, r5, #-16777216	@ tmp156, tmp158,
	bic	r5, r5, #255	@ tmp156, tmp156,
	cmp	r5, #256	@ tmp156,
	beq	.L247	@,
.L216:
	tst	r2, #2	@ D.41101,
	beq	.L214	@,
	ldr	r2, [r0, #640]	@ tmp163,
	bic	r2, r2, #-16777216	@ tmp161, tmp163,
	bic	r2, r2, #255	@ tmp161, tmp161,
	cmp	r2, #256	@ tmp161,
	bne	.L214	@,
	ldr	r2, [r0, #648]	@ <variable>.bottom_field.long_term_pic_num, <variable>.bottom_field.long_term_pic_num
	cmp	r2, r1	@ <variable>.bottom_field.long_term_pic_num, LongtermPicNum
	beq	.L237	@,
	cmp	r4, #0	@ structure,
	add	ip, ip, #1	@ tmp169, i,
	add	r5, r3, #4	@ tmp170, ivtmp.1389,
	beq	.L248	@,
.L229:
	ldr	r0, [r3, #4]	@ temp.1392, <variable>.DPB.fs_ltref
	ldrb	r3, [r0, #3]	@ zero_extendqisi2	@ D.41101, <variable>.is_reference
	tst	r3, #1	@ D.41101,
	beq	.L230	@,
	ldr	r2, [r0, #604]	@ tmp207,
	bic	r2, r2, #-16777216	@ tmp208, tmp207,
	bic	r2, r2, #255	@ tmp208, tmp208,
	cmp	r2, #256	@ tmp208,
	beq	.L249	@,
.L230:
	tst	r3, #2	@ D.41101,
	beq	.L231	@,
	ldr	r3, [r0, #640]	@ tmp204,
	bic	r2, r3, #-16777216	@ tmp205, tmp204,
	bic	r3, r2, #255	@ tmp205, tmp205,
	cmp	r3, #256	@ tmp205,
	bne	.L231	@,
	ldr	r2, [r0, #648]	@ <variable>.bottom_field.long_term_pic_num, <variable>.bottom_field.long_term_pic_num
	cmp	r2, r1	@ <variable>.bottom_field.long_term_pic_num, LongtermPicNum
	bne	.L231	@,
	b	.L237	@
.L247:
	ldr	r5, [r0, #612]	@ <variable>.top_field.long_term_pic_num, <variable>.top_field.long_term_pic_num
	cmp	r5, r1	@ <variable>.top_field.long_term_pic_num, LongtermPicNum
	bne	.L216	@,
.L238:
	add	r0, r0, #604	@ D.41099, temp.1392,
	ldmfd	sp, {r3, r4, r5, r6, fp, sp, pc}	@
.L249:
	ldr	r2, [r0, #612]	@ <variable>.top_field.long_term_pic_num, <variable>.top_field.long_term_pic_num
	cmp	r2, r1	@ <variable>.top_field.long_term_pic_num, LongtermPicNum
	bne	.L230	@,
	b	.L238	@
.L240:
	ldr	r2, [r3, #0]	@ D.41088, <variable>.DPB.fs_ltref
	ldrb	r0, [r2, #3]	@ zero_extendqisi2	@ <variable>.is_reference, <variable>.is_reference
	cmp	r0, #3	@ <variable>.is_reference,
	bne	.L226	@,
	ldr	r0, [r2, #568]	@ tmp198,
	bic	r0, r0, #-16777216	@ tmp199, tmp198,
	bic	r0, r0, #255	@ tmp199, tmp199,
	cmp	r0, #256	@ tmp199,
	bne	.L226	@,
	ldr	r0, [r2, #576]	@ <variable>.frame.long_term_pic_num, <variable>.frame.long_term_pic_num
	cmp	r0, r1	@ <variable>.frame.long_term_pic_num, LongtermPicNum
	bne	.L226	@,
.L239:
	add	r0, r2, #568	@ D.41099, D.41088,
	ldmfd	sp, {r3, r4, r5, r6, fp, sp, pc}	@
.L245:
	ldr	ip, [r0, #612]	@ <variable>.top_field.long_term_pic_num, <variable>.top_field.long_term_pic_num
	cmp	ip, r1	@ <variable>.top_field.long_term_pic_num, LongtermPicNum
	bne	.L221	@,
	b	.L238	@
.L244:
	ldr	r5, [r0, #612]	@ <variable>.top_field.long_term_pic_num, <variable>.top_field.long_term_pic_num
	cmp	r5, r1	@ <variable>.top_field.long_term_pic_num, LongtermPicNum
	bne	.L225	@,
	b	.L238	@
	.fnend
	.size	MVC_GetLongTermPicPoint, .-MVC_GetLongTermPicPoint
	.align	2
	.global	MVC_ReorderSTList
	.type	MVC_ReorderSTList, %function
MVC_ReorderSTList:
	.fnstart
.LFB1585:
	@ args = 8, pretend = 0, frame = 0
	@ frame_needed = 1, uses_anonymous_args = 0
	.movsp ip
	mov	ip, sp	@,
	stmfd	sp!, {r4, r5, r6, r7, r8, sl, fp, ip, lr, pc}	@,
	.pad #4
	.save {r4, r5, r6, r7, r8, sl, fp, ip, lr}
	.setfp fp, ip, #-4
	sub	fp, ip, #4	@,,
	push	{lr}
	bl	__gnu_mcount_nc
	ldr	r4, [fp, #4]	@ refIdxLX, refIdxLX
	mov	r5, r3	@ picNumLX, picNumLX
	add	r6, r1, r1, asl #5	@, tmp158, listidx, listidx,
	add	r3, r0, #256	@ tmp155, pMvcCtx,
	mov	r1, r5	@, picNumLX
	mov	r7, r2	@ num_ref_idx_lX_active_minus1, num_ref_idx_lX_active_minus1
	add	r6, r3, r6, asl #2	@, RefPicListX, tmp155, tmp158,
	ldr	r8, [fp, #8]	@ CurrViewId, CurrViewId
	bl	MVC_GetShortTermPicPoint	@
	ldr	r3, [r4, #0]	@ D.41154,* refIdxLX
	add	ip, r7, #1	@ cIdx, num_ref_idx_lX_active_minus1,
	cmp	ip, r3	@ cIdx, D.41154
	ble	.L251	@,
	add	r1, r6, ip, asl #2	@, ivtmp.1439, RefPicListX, cIdx,
	add	r2, r6, r7, asl #2	@, ivtmp.1437, RefPicListX, ivtmp.1434,
.L252:
	ldr	lr, [r2], #-4	@ tmp162,
	mov	sl, r7	@ cIdx.1441, ivtmp.1434
	sub	r7, r7, #1	@ ivtmp.1434, ivtmp.1434,
	str	lr, [r1], #-4	@ tmp162,
	ldr	r3, [r4, #0]	@ D.41154,* refIdxLX
	cmp	r3, sl	@ D.41154, cIdx.1441
	blt	.L252	@,
.L251:
	add	r1, r3, #1	@ cIdx.1440, D.41154,
	str	r0, [r6, r3, asl #2]	@ picLX,* RefPicListX
	cmp	ip, r1	@ cIdx, cIdx.1440
	str	r1, [r4, #0]	@ cIdx.1440,* refIdxLX
	ldmltfd	sp, {r4, r5, r6, r7, r8, sl, fp, sp, pc}	@
	add	r2, r6, r1, asl #2	@, ivtmp.1430, RefPicListX, cIdx.1440,
	rsb	r0, r1, ip	@ tmp168, cIdx.1440, cIdx
	and	r4, r0, #1	@ tmp169, tmp168,
	mov	r3, r1	@ nIdx, cIdx.1440
	ldr	r0, [r2, #0]	@ D.41159,* ivtmp.1430
	cmp	r0, #0	@ D.41159,
	beq	.L260	@,
	ldrb	r7, [r0, #1]	@ zero_extendqisi2	@ <variable>.is_long_term, <variable>.is_long_term
	cmp	r7, #0	@ <variable>.is_long_term,
	beq	.L273	@,
.L261:
	add	r3, r1, #1	@ nIdx, cIdx.1440,
	str	r0, [r6, r1, asl #2]	@ D.41159,* RefPicListX
.L260:
	add	r0, r1, #1	@ cIdx.1440, cIdx.1440,
	add	r2, r2, #4	@ ivtmp.1430, ivtmp.1430,
	cmp	ip, r0	@ cIdx, cIdx.1440
	ldmltfd	sp, {r4, r5, r6, r7, r8, sl, fp, sp, pc}	@
	cmp	r4, #0	@ tmp169,
	beq	.L256	@,
	ldr	r1, [r2, #0]	@ D.41159,* ivtmp.1430
	cmp	r1, #0	@ D.41159,
	beq	.L263	@,
	ldrb	r4, [r1, #1]	@ zero_extendqisi2	@ <variable>.is_long_term, <variable>.is_long_term
	cmp	r4, #0	@ <variable>.is_long_term,
	beq	.L274	@,
.L264:
	str	r1, [r6, r3, asl #2]	@ D.41159,* RefPicListX
	add	r3, r3, #1	@ nIdx, nIdx,
.L263:
	add	r0, r0, #1	@ cIdx.1440, cIdx.1440,
	add	r2, r2, #4	@ ivtmp.1430, ivtmp.1430,
	cmp	ip, r0	@ cIdx, cIdx.1440
	bge	.L256	@,
	ldmfd	sp, {r4, r5, r6, r7, r8, sl, fp, sp, pc}	@
.L279:
	ldr	r4, [r1, #4]	@ <variable>.frame_store, <variable>.frame_store
	ldr	r4, [r4, #56]	@ <variable>.view_id, <variable>.view_id
	cmp	r4, r8	@ <variable>.view_id, CurrViewId
	beq	.L254	@,
.L255:
	str	r1, [r6, r3, asl #2]	@ D.41159,* RefPicListX
	add	r3, r3, #1	@ nIdx, nIdx,
.L254:
	ldr	r1, [r2, #4]	@ D.41159,
	add	r0, r0, #1	@ tmp170, cIdx.1440,
	add	r2, r2, #4	@ tmp171, ivtmp.1430,
	cmp	r1, #0	@ D.41159,
	beq	.L267	@,
	ldrb	r4, [r1, #1]	@ zero_extendqisi2	@ <variable>.is_long_term, <variable>.is_long_term
	cmp	r4, #0	@ <variable>.is_long_term,
	bne	.L268	@,
	ldr	r4, [r1, #12]	@ <variable>.pic_num, <variable>.pic_num
	cmp	r4, r5	@ <variable>.pic_num, picNumLX
	beq	.L276	@,
.L268:
	str	r1, [r6, r3, asl #2]	@ D.41159,* RefPicListX
	add	r3, r3, #1	@ nIdx, nIdx,
.L267:
	add	r0, r0, #1	@ cIdx.1440, tmp170,
	add	r2, r2, #4	@ ivtmp.1430, tmp171,
	cmp	ip, r0	@ cIdx, cIdx.1440
	blt	.L277	@,
.L256:
	ldr	r1, [r2, #0]	@ D.41159,* ivtmp.1430
	cmp	r1, #0	@ D.41159,
	beq	.L254	@,
	ldrb	r4, [r1, #1]	@ zero_extendqisi2	@ <variable>.is_long_term, <variable>.is_long_term
	cmp	r4, #0	@ <variable>.is_long_term,
	bne	.L255	@,
	ldr	r4, [r1, #12]	@ <variable>.pic_num, <variable>.pic_num
	cmp	r4, r5	@ <variable>.pic_num, picNumLX
	bne	.L255	@,
	b	.L279	@
.L273:
	ldr	r7, [r0, #12]	@ <variable>.pic_num, <variable>.pic_num
	cmp	r7, r5	@ <variable>.pic_num, picNumLX
	bne	.L261	@,
	ldr	r7, [r0, #4]	@ <variable>.frame_store, <variable>.frame_store
	ldr	r7, [r7, #56]	@ <variable>.view_id, <variable>.view_id
	cmp	r7, r8	@ <variable>.view_id, CurrViewId
	bne	.L261	@,
	b	.L260	@
.L274:
	ldr	r4, [r1, #12]	@ <variable>.pic_num, <variable>.pic_num
	cmp	r4, r5	@ <variable>.pic_num, picNumLX
	bne	.L264	@,
	ldr	lr, [r1, #4]	@ <variable>.frame_store, <variable>.frame_store
	ldr	r4, [lr, #56]	@ <variable>.view_id, <variable>.view_id
	cmp	r4, r8	@ <variable>.view_id, CurrViewId
	bne	.L264	@,
	b	.L263	@
.L276:
	ldr	r4, [r1, #4]	@ <variable>.frame_store, <variable>.frame_store
	ldr	r4, [r4, #56]	@ <variable>.view_id, <variable>.view_id
	cmp	r4, r8	@ <variable>.view_id, CurrViewId
	bne	.L268	@,
	add	r0, r0, #1	@ cIdx.1440, tmp170,
	add	r2, r2, #4	@ ivtmp.1430, tmp171,
	cmp	ip, r0	@ cIdx, cIdx.1440
	bge	.L256	@,
.L277:
	ldmfd	sp, {r4, r5, r6, r7, r8, sl, fp, sp, pc}	@
	.fnend
	.size	MVC_ReorderSTList, .-MVC_ReorderSTList
	.align	2
	.global	MVC_ReorderLTList
	.type	MVC_ReorderLTList, %function
MVC_ReorderLTList:
	.fnstart
.LFB1586:
	@ args = 8, pretend = 0, frame = 0
	@ frame_needed = 1, uses_anonymous_args = 0
	.movsp ip
	mov	ip, sp	@,
	stmfd	sp!, {r4, r5, r6, r7, r8, sl, fp, ip, lr, pc}	@,
	.pad #4
	.save {r4, r5, r6, r7, r8, sl, fp, ip, lr}
	.setfp fp, ip, #-4
	sub	fp, ip, #4	@,,
	push	{lr}
	bl	__gnu_mcount_nc
	ldr	r4, [fp, #4]	@ refIdxLX, refIdxLX
	mov	r5, r3	@ LongTermPicNum, LongTermPicNum
	add	r6, r1, r1, asl #5	@, tmp154, listidx, listidx,
	add	r3, r0, #256	@ tmp151, pMvcCtx,
	mov	r1, r5	@, LongTermPicNum
	mov	r7, r2	@ num_ref_idx_lX_active_minus1, num_ref_idx_lX_active_minus1
	add	r6, r3, r6, asl #2	@, RefPicListX, tmp151, tmp154,
	ldr	r8, [fp, #8]	@ CurrViewId, CurrViewId
	bl	MVC_GetLongTermPicPoint	@
	ldr	r3, [r4, #0]	@ D.41204,* refIdxLX
	add	ip, r7, #1	@ cIdx, num_ref_idx_lX_active_minus1,
	cmp	ip, r3	@ cIdx, D.41204
	ble	.L281	@,
	add	r1, r6, ip, asl #2	@, ivtmp.1487, RefPicListX, cIdx,
	add	r2, r6, r7, asl #2	@, ivtmp.1485, RefPicListX, ivtmp.1482,
.L282:
	ldr	lr, [r2], #-4	@ tmp158,
	mov	sl, r7	@ cIdx.1489, ivtmp.1482
	sub	r7, r7, #1	@ ivtmp.1482, ivtmp.1482,
	str	lr, [r1], #-4	@ tmp158,
	ldr	r3, [r4, #0]	@ D.41204,* refIdxLX
	cmp	r3, sl	@ D.41204, cIdx.1489
	blt	.L282	@,
.L281:
	add	r1, r3, #1	@ cIdx.1488, D.41204,
	str	r0, [r6, r3, asl #2]	@ picLX,* RefPicListX
	cmp	ip, r1	@ cIdx, cIdx.1488
	str	r1, [r4, #0]	@ cIdx.1488,* refIdxLX
	ldmltfd	sp, {r4, r5, r6, r7, r8, sl, fp, sp, pc}	@
	add	r2, r6, r1, asl #2	@, ivtmp.1478, RefPicListX, cIdx.1488,
	rsb	r0, r1, ip	@ tmp164, cIdx.1488, cIdx
	and	r4, r0, #1	@ tmp165, tmp164,
	mov	r3, r1	@ nIdx, cIdx.1488
	ldr	r0, [r2, #0]	@ D.41209,* ivtmp.1478
	cmp	r0, #0	@ D.41209,
	beq	.L290	@,
	ldrb	r7, [r0, #1]	@ zero_extendqisi2	@ <variable>.is_long_term, <variable>.is_long_term
	cmp	r7, #0	@ <variable>.is_long_term,
	bne	.L303	@,
.L291:
	add	r3, r1, #1	@ nIdx, cIdx.1488,
	str	r0, [r6, r1, asl #2]	@ D.41209,* RefPicListX
.L290:
	add	r0, r1, #1	@ cIdx.1488, cIdx.1488,
	add	r2, r2, #4	@ ivtmp.1478, ivtmp.1478,
	cmp	ip, r0	@ cIdx, cIdx.1488
	ldmltfd	sp, {r4, r5, r6, r7, r8, sl, fp, sp, pc}	@
	cmp	r4, #0	@ tmp165,
	beq	.L286	@,
	ldr	r1, [r2, #0]	@ D.41209,* ivtmp.1478
	cmp	r1, #0	@ D.41209,
	beq	.L293	@,
	ldrb	r4, [r1, #1]	@ zero_extendqisi2	@ <variable>.is_long_term, <variable>.is_long_term
	cmp	r4, #0	@ <variable>.is_long_term,
	bne	.L304	@,
.L294:
	str	r1, [r6, r3, asl #2]	@ D.41209,* RefPicListX
	add	r3, r3, #1	@ nIdx, nIdx,
.L293:
	add	r0, r0, #1	@ cIdx.1488, cIdx.1488,
	add	r2, r2, #4	@ ivtmp.1478, ivtmp.1478,
	cmp	ip, r0	@ cIdx, cIdx.1488
	bge	.L286	@,
	ldmfd	sp, {r4, r5, r6, r7, r8, sl, fp, sp, pc}	@
.L309:
	ldr	r4, [r1, #4]	@ <variable>.frame_store, <variable>.frame_store
	ldr	r4, [r4, #56]	@ <variable>.view_id, <variable>.view_id
	cmp	r4, r8	@ <variable>.view_id, CurrViewId
	beq	.L284	@,
.L285:
	str	r1, [r6, r3, asl #2]	@ D.41209,* RefPicListX
	add	r3, r3, #1	@ nIdx, nIdx,
.L284:
	ldr	r1, [r2, #4]	@ D.41209,
	add	r0, r0, #1	@ tmp167, cIdx.1488,
	add	r2, r2, #4	@ tmp166, ivtmp.1478,
	cmp	r1, #0	@ D.41209,
	beq	.L297	@,
	ldrb	r4, [r1, #1]	@ zero_extendqisi2	@ <variable>.is_long_term, <variable>.is_long_term
	cmp	r4, #0	@ <variable>.is_long_term,
	beq	.L298	@,
	ldr	r4, [r1, #8]	@ <variable>.long_term_pic_num, <variable>.long_term_pic_num
	cmp	r4, r5	@ <variable>.long_term_pic_num, LongTermPicNum
	beq	.L306	@,
.L298:
	str	r1, [r6, r3, asl #2]	@ D.41209,* RefPicListX
	add	r3, r3, #1	@ nIdx, nIdx,
.L297:
	add	r0, r0, #1	@ cIdx.1488, tmp167,
	add	r2, r2, #4	@ ivtmp.1478, tmp166,
	cmp	ip, r0	@ cIdx, cIdx.1488
	blt	.L307	@,
.L286:
	ldr	r1, [r2, #0]	@ D.41209,* ivtmp.1478
	cmp	r1, #0	@ D.41209,
	beq	.L284	@,
	ldrb	r4, [r1, #1]	@ zero_extendqisi2	@ <variable>.is_long_term, <variable>.is_long_term
	cmp	r4, #0	@ <variable>.is_long_term,
	beq	.L285	@,
	ldr	r4, [r1, #8]	@ <variable>.long_term_pic_num, <variable>.long_term_pic_num
	cmp	r4, r5	@ <variable>.long_term_pic_num, LongTermPicNum
	bne	.L285	@,
	b	.L309	@
.L303:
	ldr	r7, [r0, #8]	@ <variable>.long_term_pic_num, <variable>.long_term_pic_num
	cmp	r7, r5	@ <variable>.long_term_pic_num, LongTermPicNum
	bne	.L291	@,
	ldr	r7, [r0, #4]	@ <variable>.frame_store, <variable>.frame_store
	ldr	r7, [r7, #56]	@ <variable>.view_id, <variable>.view_id
	cmp	r7, r8	@ <variable>.view_id, CurrViewId
	bne	.L291	@,
	b	.L290	@
.L304:
	ldr	r4, [r1, #8]	@ <variable>.long_term_pic_num, <variable>.long_term_pic_num
	cmp	r4, r5	@ <variable>.long_term_pic_num, LongTermPicNum
	bne	.L294	@,
	ldr	lr, [r1, #4]	@ <variable>.frame_store, <variable>.frame_store
	ldr	r4, [lr, #56]	@ <variable>.view_id, <variable>.view_id
	cmp	r4, r8	@ <variable>.view_id, CurrViewId
	bne	.L294	@,
	b	.L293	@
.L306:
	ldr	r4, [r1, #4]	@ <variable>.frame_store, <variable>.frame_store
	ldr	r4, [r4, #56]	@ <variable>.view_id, <variable>.view_id
	cmp	r4, r8	@ <variable>.view_id, CurrViewId
	bne	.L298	@,
	add	r0, r0, #1	@ cIdx.1488, tmp167,
	add	r2, r2, #4	@ ivtmp.1478, tmp166,
	cmp	ip, r0	@ cIdx, cIdx.1488
	bge	.L286	@,
.L307:
	ldmfd	sp, {r4, r5, r6, r7, r8, sl, fp, sp, pc}	@
	.fnend
	.size	MVC_ReorderLTList, .-MVC_ReorderLTList
	.align	2
	.global	MVC_GetMaxViewIdx
	.type	MVC_GetMaxViewIdx, %function
MVC_GetMaxViewIdx:
	.fnstart
.LFB1587:
	@ args = 0, pretend = 0, frame = 0
	@ frame_needed = 1, uses_anonymous_args = 0
	.movsp ip
	mov	ip, sp	@,
	stmfd	sp!, {r4, r5, r6, r7, fp, ip, lr, pc}	@,
	.pad #4
	.save {r4, r5, r6, r7, fp, ip, lr}
	.setfp fp, ip, #-4
	sub	fp, ip, #4	@,,
	push	{lr}
	bl	__gnu_mcount_nc
	movw	ip, #:lower16:10770768	@ tmp143,
	movt	ip, #:upper16:10770768	@ tmp143,
	ldr	ip, [r0, ip]	@ <variable>.CurrSUBSPS.num_views_minus1, <variable>.CurrSUBSPS.num_views_minus1
	adds	r7, ip, #1	@ D.41234, <variable>.CurrSUBSPS.num_views_minus1,
	beq	.L311	@,
	movw	r4, #:lower16:10770772	@ tmp145,
	movt	r4, #:upper16:10770772	@ tmp145,
	ldr	r4, [r0, r4]	@ <variable>.CurrSUBSPS.view_id, <variable>.CurrSUBSPS.view_id
	cmp	r1, r4	@ CurrViewId, <variable>.CurrSUBSPS.view_id
	beq	.L311	@,
	tst	ip, #1	@ <variable>.CurrSUBSPS.num_views_minus1,
	movw	r5, #:lower16:10770776	@ ivtmp.1517,
	movt	r5, #:upper16:10770776	@ ivtmp.1517,
	mov	ip, #0	@ VOIdx,
	add	r4, r0, r5	@ ivtmp.1517, pMvcCtx, ivtmp.1517
	beq	.L312	@,
	ldr	r5, [r4], #4	@ D.48396, <variable>.CurrSUBSPS.view_id
	mov	ip, #1	@ VOIdx,
	cmp	r1, r5	@ CurrViewId, D.48396
	bne	.L312	@,
.L313:
	cmp	r2, #0	@ anchor_pic_flag,
	bne	.L323	@,
.L315:
	add	r3, ip, r3, asl #1	@, tmp157, VOIdx, listidx,
	movw	ip, #:lower16:2692702	@ tmp158,
	movt	ip, #:upper16:2692702	@ tmp158,
	add	r1, r3, ip	@ tmp158, tmp157, tmp158
	add	r2, r0, r1, asl #2	@, tmp162, pMvcCtx, tmp158,
	ldr	r0, [r2, #4]	@ maxViewIdx, <variable>.CurrSUBSPS.num_non_anchor_refs
	ldmfd	sp, {r4, r5, r6, r7, fp, sp, pc}	@
.L314:
	ldr	r6, [r5], #4	@ D.48396, <variable>.CurrSUBSPS.view_id
	cmp	r1, r6	@ CurrViewId, D.48396
	beq	.L313	@,
	ldr	r6, [r4, #4]	@ D.48396, <variable>.CurrSUBSPS.view_id
	add	ip, ip, #1	@ VOIdx, VOIdx,
	add	r4, r5, #4	@ ivtmp.1517, tmp169,
	cmp	r1, r6	@ CurrViewId, D.48396
	beq	.L313	@,
.L312:
	add	ip, ip, #1	@ VOIdx, VOIdx,
	mov	r5, r4	@ tmp169, ivtmp.1517
	cmp	r7, ip	@ D.41234, VOIdx
	bhi	.L314	@,
	cmp	r2, #0	@ anchor_pic_flag,
	beq	.L315	@,
.L323:
	add	r3, ip, r3, asl #1	@, tmp149, VOIdx, listidx,
	movw	ip, #:lower16:2692694	@ tmp150,
	movt	ip, #:upper16:2692694	@ tmp150,
	add	r1, r3, ip	@ tmp150, tmp149, tmp150
	add	r2, r0, r1, asl #2	@, tmp154, pMvcCtx, tmp150,
	ldr	r0, [r2, #4]	@ maxViewIdx, <variable>.CurrSUBSPS.num_anchor_refs
	ldmfd	sp, {r4, r5, r6, r7, fp, sp, pc}	@
.L311:
	mov	ip, #0	@ VOIdx,
	b	.L313	@
	.fnend
	.size	MVC_GetMaxViewIdx, .-MVC_GetMaxViewIdx
	.align	2
	.global	mvc_get_inter_view_pic
	.type	mvc_get_inter_view_pic, %function
mvc_get_inter_view_pic:
	.fnstart
.LFB1588:
	@ args = 0, pretend = 0, frame = 0
	@ frame_needed = 1, uses_anonymous_args = 0
	.movsp ip
	mov	ip, sp	@,
	stmfd	sp!, {r4, r5, r6, r7, fp, ip, lr, pc}	@,
	.pad #4
	.save {r4, r5, r6, r7, fp, ip, lr}
	.setfp fp, ip, #-4
	sub	fp, ip, #4	@,,
	push	{lr}
	bl	__gnu_mcount_nc
	movw	r5, #:lower16:2779670	@ tmp151,
	movt	r5, #:upper16:2779670	@ tmp151,
	movw	r4, #:lower16:11106944	@ tmp147,
	add	ip, r3, r5	@ tmp151, listidx, tmp151
	movt	r4, #:upper16:11106944	@ tmp147,
	add	r4, r0, r4	@ tmp147, pMvcCtx, tmp147
	mov	r5, #1360	@ tmp150,
	ldr	ip, [r0, ip, asl #2]	@ interviewlistsize, <variable>.CurrSlice.interviewlistXsize
	mla	r3, r5, r3, r4	@ fs_interviewlist, tmp150, listidx, tmp147
	cmp	ip, #0	@ interviewlistsize,
	beq	.L325	@,
	ldr	r4, [r3, #56]	@ <variable>.view_id, <variable>.view_id
	sub	r6, ip, #1	@ tmp160, interviewlistsize,
	and	r7, r6, #1	@ tmp162, tmp160,
	movw	r6, #:lower16:11150555	@ tmp159,
	cmp	r4, r1	@ <variable>.view_id, targetViewID
	movt	r6, #:upper16:11150555	@ tmp159,
	mov	r4, r3	@ ivtmp.1552, fs_interviewlist
	bne	.L333	@,
	ldrb	r5, [r0, r6]	@ zero_extendqisi2	@ D.41268, <variable>.CurrPic.structure
	cmp	r5, #0	@ D.41268,
	beq	.L349	@,
	cmp	r5, #1	@ D.41268,
	bne	.L359	@,
	ldr	r5, [r3, #624]	@ <variable>.top_field.MVC_DecPOC, <variable>.top_field.MVC_DecPOC
	cmp	r5, r2	@ <variable>.top_field.MVC_DecPOC, currPOC
	beq	.L352	@,
.L333:
	mov	r5, #1	@ i,
	cmp	ip, r5	@ interviewlistsize, i
	add	r4, r3, #680	@ ivtmp.1552, fs_interviewlist,
	bls	.L325	@,
	cmp	r7, #0	@ tmp162,
	beq	.L330	@,
	ldr	r3, [r4, #56]	@ <variable>.view_id, <variable>.view_id
	cmp	r3, r1	@ <variable>.view_id, targetViewID
	bne	.L337	@,
	ldrb	r3, [r0, r6]	@ zero_extendqisi2	@ D.41268, <variable>.CurrPic.structure
	cmp	r3, #0	@ D.41268,
	beq	.L354	@,
	cmp	r3, r5	@ D.41268,
	bne	.L360	@,
	ldr	r3, [r4, #624]	@ <variable>.top_field.MVC_DecPOC, <variable>.top_field.MVC_DecPOC
	cmp	r3, r2	@ <variable>.top_field.MVC_DecPOC, currPOC
	beq	.L352	@,
.L337:
	add	r5, r5, #1	@ i, i,
	add	r4, r4, #680	@ ivtmp.1552, ivtmp.1552,
	cmp	ip, r5	@ interviewlistsize, i
	bhi	.L330	@,
.L325:
	mov	r0, #0	@ D.41272,
	ldmfd	sp, {r4, r5, r6, r7, fp, sp, pc}	@
.L362:
	ldr	r3, [r4, #588]	@ <variable>.frame.MVC_DecPOC, <variable>.frame.MVC_DecPOC
	cmp	r3, r2	@ <variable>.frame.MVC_DecPOC, currPOC
	beq	.L353	@,
.L326:
	add	r4, r4, #680	@ ivtmp.1552, ivtmp.1552,
	add	r5, r5, #1	@ tmp163, i,
	ldr	r3, [r4, #56]	@ <variable>.view_id, <variable>.view_id
	mov	r7, r4	@ tmp164, ivtmp.1552
	cmp	r3, r1	@ <variable>.view_id, targetViewID
	bne	.L342	@,
	ldrb	r3, [r0, r6]	@ zero_extendqisi2	@ D.41268, <variable>.CurrPic.structure
	cmp	r3, #0	@ D.41268,
	beq	.L356	@,
	cmp	r3, #1	@ D.41268,
	bne	.L361	@,
	ldr	r3, [r4, #624]	@ <variable>.top_field.MVC_DecPOC, <variable>.top_field.MVC_DecPOC
	cmp	r3, r2	@ <variable>.top_field.MVC_DecPOC, currPOC
	beq	.L352	@,
.L342:
	add	r5, r5, #1	@ i, tmp163,
	add	r4, r7, #680	@ ivtmp.1552, tmp164,
	cmp	ip, r5	@ interviewlistsize, i
	bls	.L325	@,
.L330:
	ldr	r3, [r4, #56]	@ <variable>.view_id, <variable>.view_id
	cmp	r3, r1	@ <variable>.view_id, targetViewID
	bne	.L326	@,
	ldrb	r3, [r0, r6]	@ zero_extendqisi2	@ D.41268, <variable>.CurrPic.structure
	cmp	r3, #0	@ D.41268,
	beq	.L362	@,
	cmp	r3, #1	@ D.41268,
	bne	.L329	@,
	ldr	r3, [r4, #624]	@ <variable>.top_field.MVC_DecPOC, <variable>.top_field.MVC_DecPOC
	cmp	r3, r2	@ <variable>.top_field.MVC_DecPOC, currPOC
	bne	.L326	@,
.L352:
	add	r0, r4, #604	@ D.41272, ivtmp.1552,
	ldmfd	sp, {r4, r5, r6, r7, fp, sp, pc}	@
.L356:
	ldr	r3, [r4, #588]	@ <variable>.frame.MVC_DecPOC, <variable>.frame.MVC_DecPOC
	cmp	r3, r2	@ <variable>.frame.MVC_DecPOC, currPOC
	bne	.L342	@,
.L353:
	add	r0, r4, #568	@ D.41272, ivtmp.1552,
	ldmfd	sp, {r4, r5, r6, r7, fp, sp, pc}	@
.L329:
	cmp	r3, #2	@ D.41268,
	bne	.L326	@,
	ldr	r3, [r4, #660]	@ <variable>.bottom_field.MVC_DecPOC, <variable>.bottom_field.MVC_DecPOC
	cmp	r3, r2	@ <variable>.bottom_field.MVC_DecPOC, currPOC
	bne	.L326	@,
.L351:
	add	r0, r4, #640	@ D.41272, ivtmp.1552,
	ldmfd	sp, {r4, r5, r6, r7, fp, sp, pc}	@
.L361:
	cmp	r3, #2	@ D.41268,
	bne	.L342	@,
	ldr	r3, [r4, #660]	@ <variable>.bottom_field.MVC_DecPOC, <variable>.bottom_field.MVC_DecPOC
	cmp	r3, r2	@ <variable>.bottom_field.MVC_DecPOC, currPOC
	bne	.L342	@,
	add	r0, r4, #640	@ D.41272, ivtmp.1552,
	ldmfd	sp, {r4, r5, r6, r7, fp, sp, pc}	@
.L349:
	ldr	r5, [r3, #588]	@ <variable>.frame.MVC_DecPOC, <variable>.frame.MVC_DecPOC
	cmp	r5, r2	@ <variable>.frame.MVC_DecPOC, currPOC
	bne	.L333	@,
	b	.L353	@
.L354:
	ldr	r3, [r4, #588]	@ <variable>.frame.MVC_DecPOC, <variable>.frame.MVC_DecPOC
	cmp	r3, r2	@ <variable>.frame.MVC_DecPOC, currPOC
	beq	.L353	@,
	add	r5, r5, #1	@ i, i,
	add	r4, r4, #680	@ ivtmp.1552, ivtmp.1552,
	cmp	ip, r5	@ interviewlistsize, i
	bhi	.L330	@,
	b	.L325	@
.L359:
	cmp	r5, #2	@ D.41268,
	bne	.L333	@,
	ldr	r5, [r3, #660]	@ <variable>.bottom_field.MVC_DecPOC, <variable>.bottom_field.MVC_DecPOC
	cmp	r5, r2	@ <variable>.bottom_field.MVC_DecPOC, currPOC
	bne	.L333	@,
	b	.L351	@
.L360:
	cmp	r3, #2	@ D.41268,
	bne	.L337	@,
	ldr	r3, [r4, #660]	@ <variable>.bottom_field.MVC_DecPOC, <variable>.bottom_field.MVC_DecPOC
	cmp	r3, r2	@ <variable>.bottom_field.MVC_DecPOC, currPOC
	beq	.L351	@,
	add	r5, r5, #1	@ i, i,
	add	r4, r4, #680	@ ivtmp.1552, ivtmp.1552,
	cmp	ip, r5	@ interviewlistsize, i
	bhi	.L330	@,
	b	.L325	@
	.fnend
	.size	mvc_get_inter_view_pic, .-mvc_get_inter_view_pic
	.align	2
	.global	mvc_reorder_interview
	.type	mvc_reorder_interview, %function
mvc_reorder_interview:
	.fnstart
.LFB1589:
	@ args = 8, pretend = 0, frame = 0
	@ frame_needed = 1, uses_anonymous_args = 0
	.movsp ip
	mov	ip, sp	@,
	stmfd	sp!, {r4, r5, r6, r7, r8, sl, fp, ip, lr, pc}	@,
	.pad #4
	.save {r4, r5, r6, r7, r8, sl, fp, ip, lr}
	.setfp fp, ip, #-4
	sub	fp, ip, #4	@,,
	push	{lr}
	bl	__gnu_mcount_nc
	ldmib	fp, {r7, r8}	@ phole ldm
	mov	r6, r3	@ targetViewID, targetViewID
	mov	r4, r1	@ num_ref_idx_lX_active_minus1, num_ref_idx_lX_active_minus1
	mov	r5, r2	@ refIdxLX, refIdxLX
	mov	r1, r3	@, targetViewID
	mov	r2, r7	@, currpoc
	mov	r3, r8	@, listidx
	mov	sl, r0	@ pMvcCtx, pMvcCtx
	bl	mvc_get_inter_view_pic	@
	cmp	r0, #0	@ picLX
	ldmeqfd	sp, {r4, r5, r6, r7, r8, sl, fp, sp, pc}	@
	ldr	r3, [r5, #0]	@ D.41312,* refIdxLX
	add	ip, r4, #1	@ cIdx, num_ref_idx_lX_active_minus1,
	add	r8, r8, r8, asl #5	@, tmp153, listidx, listidx,
	add	sl, sl, #256	@ tmp150, pMvcCtx,
	cmp	ip, r3	@ cIdx, D.41312
	add	r8, sl, r8, asl #2	@, list, tmp150, tmp153,
	bls	.L365	@,
	add	r1, r8, r4, asl #2	@, ivtmp.1599, list, num_ref_idx_lX_active_minus1,
	add	r2, r8, ip, asl #2	@, ivtmp.1601, list, cIdx,
.L366:
	ldr	r3, [r1], #-4	@ tmp157,
	sub	sl, r4, #1	@ num_ref_idx_lX_active_minus1.1603, num_ref_idx_lX_active_minus1,
	str	r3, [r2], #-4	@ tmp157,
	ldr	r3, [r5, #0]	@ D.41312,* refIdxLX
	cmp	r3, r4	@ D.41312, num_ref_idx_lX_active_minus1
	mov	r4, sl	@ num_ref_idx_lX_active_minus1, num_ref_idx_lX_active_minus1.1603
	bcc	.L366	@,
.L365:
	add	r1, r3, #1	@ cIdx.1602, D.41312,
	str	r0, [r8, r3, asl #2]	@ picLX,* list
	cmp	ip, r1	@ cIdx, cIdx.1602
	str	r1, [r5, #0]	@ cIdx.1602,* refIdxLX
	ldmccfd	sp, {r4, r5, r6, r7, r8, sl, fp, sp, pc}	@
	add	r2, r8, r1, asl #2	@, ivtmp.1592, list, cIdx.1602,
	rsb	r0, r1, ip	@ tmp162, cIdx.1602, cIdx
	and	r4, r0, #1	@ tmp163, tmp162,
	mov	r3, r1	@ nIdx, cIdx.1602
	ldr	r0, [r2, #0]	@ D.41318,* ivtmp.1592
	cmp	r0, #0	@ D.41318,
	beq	.L372	@,
	ldr	lr, [r0, #4]	@ <variable>.frame_store, <variable>.frame_store
	ldr	r5, [lr, #56]	@ <variable>.view_id, <variable>.view_id
	cmp	r5, r6	@ <variable>.view_id, targetViewID
	beq	.L386	@,
.L372:
	add	r3, r1, #1	@ nIdx, cIdx.1602,
	str	r0, [r8, r1, asl #2]	@ D.41318,* list
.L373:
	add	r1, r1, #1	@ cIdx.1602, cIdx.1602,
	add	r2, r2, #4	@ ivtmp.1592, ivtmp.1592,
	cmp	ip, r1	@ cIdx, cIdx.1602
	ldmccfd	sp, {r4, r5, r6, r7, r8, sl, fp, sp, pc}	@
	cmp	r4, #0	@ tmp163,
	beq	.L369	@,
	ldr	r0, [r2, #0]	@ D.41318,* ivtmp.1592
	cmp	r0, #0	@ D.41318,
	beq	.L375	@,
	ldr	r4, [r0, #4]	@ <variable>.frame_store, <variable>.frame_store
	ldr	r4, [r4, #56]	@ <variable>.view_id, <variable>.view_id
	cmp	r4, r6	@ <variable>.view_id, targetViewID
	beq	.L387	@,
.L375:
	str	r0, [r8, r3, asl #2]	@ D.41318,* list
	add	r3, r3, #1	@ nIdx, nIdx,
.L376:
	add	r1, r1, #1	@ cIdx.1602, cIdx.1602,
	add	r2, r2, #4	@ ivtmp.1592, ivtmp.1592,
	cmp	ip, r1	@ cIdx, cIdx.1602
	ldmccfd	sp, {r4, r5, r6, r7, r8, sl, fp, sp, pc}	@
	ldr	r0, [r2, #0]	@ D.41318,* ivtmp.1592
	add	r1, r1, #1	@ tmp164, cIdx.1602,
	add	r4, r2, #4	@ tmp165, ivtmp.1592,
	cmp	r0, #0	@ D.41318,
	bne	.L388	@,
.L367:
	str	r0, [r8, r3, asl #2]	@ D.41318,* list
	add	r3, r3, #1	@ nIdx, nIdx,
.L368:
	ldr	r2, [r2, #4]	@ D.41318,
	cmp	r2, #0	@ D.41318,
	beq	.L379	@,
	ldr	lr, [r2, #4]	@ <variable>.frame_store, <variable>.frame_store
	ldr	r0, [lr, #56]	@ <variable>.view_id, <variable>.view_id
	cmp	r0, r6	@ <variable>.view_id, targetViewID
	beq	.L389	@,
.L379:
	add	r1, r1, #1	@ cIdx.1602, tmp164,
	str	r2, [r8, r3, asl #2]	@ D.41318,* list
	cmp	ip, r1	@ cIdx, cIdx.1602
	add	r3, r3, #1	@ nIdx, nIdx,
	add	r2, r4, #4	@ ivtmp.1592, tmp165,
	bcc	.L390	@,
.L369:
	ldr	r0, [r2, #0]	@ D.41318,* ivtmp.1592
	add	r1, r1, #1	@ tmp164, cIdx.1602,
	add	r4, r2, #4	@ tmp165, ivtmp.1592,
	cmp	r0, #0	@ D.41318,
	beq	.L367	@,
.L388:
	ldr	r5, [r0, #4]	@ <variable>.frame_store, <variable>.frame_store
	ldr	r5, [r5, #56]	@ <variable>.view_id, <variable>.view_id
	cmp	r5, r6	@ <variable>.view_id, targetViewID
	bne	.L367	@,
	ldr	r5, [r0, #20]	@ <variable>.MVC_DecPOC, <variable>.MVC_DecPOC
	cmp	r5, r7	@ <variable>.MVC_DecPOC, currpoc
	bne	.L367	@,
	b	.L368	@
.L389:
	ldr	r0, [r2, #20]	@ <variable>.MVC_DecPOC, <variable>.MVC_DecPOC
	cmp	r0, r7	@ <variable>.MVC_DecPOC, currpoc
	bne	.L379	@,
	add	r1, r1, #1	@ cIdx.1602, tmp164,
	add	r2, r4, #4	@ ivtmp.1592, tmp165,
	cmp	ip, r1	@ cIdx, cIdx.1602
	bcs	.L369	@,
.L390:
	ldmfd	sp, {r4, r5, r6, r7, r8, sl, fp, sp, pc}	@
.L387:
	ldr	r4, [r0, #20]	@ <variable>.MVC_DecPOC, <variable>.MVC_DecPOC
	cmp	r4, r7	@ <variable>.MVC_DecPOC, currpoc
	bne	.L375	@,
	b	.L376	@
.L386:
	ldr	r5, [r0, #20]	@ <variable>.MVC_DecPOC, <variable>.MVC_DecPOC
	cmp	r5, r7	@ <variable>.MVC_DecPOC, currpoc
	bne	.L372	@,
	b	.L373	@
	.fnend
	.size	mvc_reorder_interview, .-mvc_reorder_interview
	.align	2
	.global	MVC_ReorderRefPiclist
	.type	MVC_ReorderRefPiclist, %function
MVC_ReorderRefPiclist:
	.fnstart
.LFB1590:
	@ args = 0, pretend = 0, frame = 72
	@ frame_needed = 1, uses_anonymous_args = 0
	.movsp ip
	mov	ip, sp	@,
	stmfd	sp!, {r4, r5, r6, r7, r8, r9, sl, fp, ip, lr, pc}	@,
	.pad #4
	.save {r4, r5, r6, r7, r8, r9, sl, fp, ip, lr}
	.setfp fp, ip, #-4
	sub	fp, ip, #4	@,,
	.pad #84
	sub	sp, sp, #84	@,,
	push	{lr}
	bl	__gnu_mcount_nc
	movw	r3, #:lower16:11117033	@ tmp169,
	movt	r3, #:upper16:11117033	@ tmp169,
	mov	r5, r0	@ pMvcCtx, pMvcCtx
	mov	r8, r1	@ listidx, listidx
	ldrb	r3, [r0, r3]	@ zero_extendqisi2	@ <variable>.CurrSlice.field_pic_flag, <variable>.CurrSlice.field_pic_flag
	str	r2, [fp, #-60]	@ num_ref_idx_lX_active_minus1, %sfp
	mov	r2, #0	@ tmp168,
	cmp	r3, r2	@ <variable>.CurrSlice.field_pic_flag,
	str	r2, [fp, #-48]	@ tmp168, refIdxLX
	beq	.L393	@,
	movw	r0, #:lower16:11117034	@ tmp171,
	movt	r0, #:upper16:11117034	@ tmp171,
	ldrb	r3, [r5, r0]	@ zero_extendqisi2	@ <variable>.CurrSlice.bottom_field_flag, <variable>.CurrSlice.bottom_field_flag
	cmp	r3, r2	@ <variable>.CurrSlice.bottom_field_flag,
	movne	r3, #2	@ structure,
	moveq	r3, #1	@ structure,
.L393:
	cmp	r8, #1	@ listidx,
	bls	.L441	@,
.L424:
	sub	sp, fp, #40
	ldmfd	sp, {r4, r5, r6, r7, r8, r9, sl, fp, sp, pc}
.L441:
	cmp	r8, #0	@ listidx,
	beq	.L442	@,
	movw	r2, #:lower16:11116380	@,
	movt	r2, #:upper16:11116380	@,
	str	r2, [fp, #-96]	@, %sfp
	movw	r2, #:lower16:11116900	@,
	movt	r2, #:upper16:11116900	@,
	movw	r0, #:lower16:11116116	@,
	movw	r1, #:lower16:11116640	@,
	movt	r0, #:upper16:11116116	@,
	movt	r1, #:upper16:11116640	@,
	str	r0, [fp, #-56]	@, %sfp
	str	r1, [fp, #-100]	@, %sfp
.L439:
	str	r2, [fp, #-64]	@, %sfp
	cmp	r3, #0	@ structure,
	ldr	r0, [fp, #-56]	@, %sfp
	ldr	r2, [fp, #-96]	@, %sfp
	add	r1, r5, r0	@, pMvcCtx,
	str	r1, [fp, #-56]	@, %sfp
	add	r0, r5, r2	@, pMvcCtx,
	ldr	r1, [fp, #-100]	@, %sfp
	str	r0, [fp, #-96]	@, %sfp
	ldr	r0, [fp, #-64]	@, %sfp
	add	r2, r5, r1	@, pMvcCtx,
	str	r2, [fp, #-100]	@, %sfp
	add	r1, r5, r0	@, pMvcCtx,
	str	r1, [fp, #-64]	@, %sfp
	ldr	r2, [r5, #236]	@ <variable>.pCurrSPS, <variable>.pCurrSPS
	mov	r1, #1	@ tmp184,
	ldr	r0, [r2, #2896]	@ <variable>.log2_max_frame_num_minus4, <variable>.log2_max_frame_num_minus4
	add	r3, r0, #4	@ tmp182, <variable>.log2_max_frame_num_minus4,
	movw	r0, #:lower16:11117060	@ tmp185,
	mov	r2, r1, asl r3	@ MaxFrameNum, tmp184,
	movt	r0, #:upper16:11117060	@ tmp185,
	ldr	r1, [fp, #-60]	@, %sfp
	movne	r2, r2, asl #1	@, MaxFrameNum,
	strne	r2, [fp, #-104]	@, %sfp
	ldrne	r0, [r5, r0]	@ <variable>.CurrSlice.frame_num, <variable>.CurrSlice.frame_num
	streq	r2, [fp, #-104]	@ MaxFrameNum, %sfp
	ldreq	r0, [r5, r0]	@, <variable>.CurrSlice.frame_num
	movne	r0, r0, asl #1	@ tmp187, <variable>.CurrSlice.frame_num,
	addne	r0, r0, #1	@, tmp187,
	adds	r3, r1, #2	@,,
	str	r0, [fp, #-108]	@, %sfp
	str	r3, [fp, #-68]	@, %sfp
	beq	.L424	@,
	ldr	r2, [fp, #-56]	@, %sfp
	ldr	r3, [r2, #0]	@ D.41381,
	cmp	r3, #3	@ D.41381,
	beq	.L424	@,
	ldr	r4, [fp, #-108]	@, %sfp
	mov	r2, #0	@ D.41379,
	movw	r0, #:lower16:10770776	@,
	movt	r0, #:upper16:10770776	@,
	movw	r9, #:lower16:11151084	@,
	add	r1, r5, r0	@, pMvcCtx,
	movt	r9, #:upper16:11151084	@,
	movw	r7, #:lower16:10770768	@,
	str	r9, [fp, #-80]	@, %sfp
	movt	r7, #:upper16:10770768	@,
	movw	r6, #:lower16:11118672	@,
	str	r7, [fp, #-112]	@, %sfp
	movt	r6, #:upper16:11118672	@,
	movw	lr, #:lower16:11117041	@,
	str	r6, [fp, #-88]	@, %sfp
	movt	lr, #:upper16:11117041	@,
	str	r4, [fp, #-92]	@, %sfp
	mov	r7, #1	@ init_flag,
	str	r1, [fp, #-72]	@, %sfp
	mov	r9, r2	@ picViewIdxLXPred, D.41379
	str	lr, [fp, #-84]	@, %sfp
	mov	r4, r2	@ CurrVOIdx, D.41379
	str	r2, [fp, #-76]	@ D.41379, %sfp
	mov	r6, r2	@ i, D.41379
	b	.L400	@
.L401:
	cmp	r3, #2	@ D.41381,
	beq	.L443	@,
	cmp	r7, #1	@ init_flag,
	beq	.L408	@,
	ldr	r1, [fp, #-84]	@, %sfp
	mov	r7, r9	@ prephitmp.1622, picViewIdxLXPred
	mov	r0, r8, asl #1	@ tmp251, listidx,
	ldrb	r9, [r5, r1]	@ zero_extendqisi2	@ D.41419, <variable>.CurrSlice.anchor_pic_flag
.L409:
	cmp	r3, #4	@ D.41381,
	beq	.L444	@,
	ldr	r3, [fp, #-64]	@, %sfp
	ldr	lr, [fp, #-76]	@, %sfp
	ldr	ip, [r3, r2]	@ tmp227,* D.41379
	add	r3, ip, #1	@ tmp226, tmp227,
	add	r7, r3, r7	@ picViewIdxLX, tmp226, prephitmp.1622
	cmp	lr, r7	@, picViewIdxLX
	rsble	r7, lr, r7	@ picViewIdxLX,, picViewIdxLX
.L420:
	cmp	r9, #0	@ D.41419,
	add	lr, r0, r7	@ tmp229, tmp251, picViewIdxLX
	addne	lr, lr, r4	@ tmp230, tmp229, CurrVOIdx
	ldr	r0, [fp, #-80]	@, %sfp
	movwne	r3, #:lower16:2692698	@ tmp231,
	movweq	r3, #:lower16:2692706	@ tmp240,
	movtne	r3, #:upper16:2692698	@ tmp231,
	movteq	r3, #:upper16:2692706	@ tmp240,
	addeq	lr, lr, r4	@ tmp239, tmp238, CurrVOIdx
	ldr	r9, [r5, r0]	@ <variable>.CurrPic.thispoc, <variable>.CurrPic.thispoc
	add	r2, lr, r3	@ tmp240, tmp239, tmp240
	mov	r0, r5	@, pMvcCtx
	add	r1, r5, r2, asl #2	@, tmp244, pMvcCtx, tmp240,
	sub	r2, fp, #48	@,,
	ldr	r3, [r1, #4]	@ targetViewId,
	ldr	r1, [fp, #-60]	@, %sfp
	str	r9, [sp, #0]	@ <variable>.CurrPic.thispoc,
	mov	r9, r7	@ picViewIdxLXPred, picViewIdxLX
	str	r8, [sp, #4]	@ listidx,
	bl	mvc_reorder_interview	@
	mov	r7, #0	@ init_flag,
.L406:
	ldr	r3, [fp, #-68]	@, %sfp
	add	r6, r6, #1	@ i, i,
	cmp	r3, r6	@, i
	bls	.L424	@,
	ldr	r2, [fp, #-56]	@, %sfp
	ldr	r3, [r2, r6, asl #2]	@ D.41381,
	mov	r2, r6, asl #2	@ D.41379, i,
	cmp	r3, #3	@ D.41381,
	beq	.L424	@,
.L400:
	cmp	r3, #1	@ D.41381,
	bhi	.L401	@,
	cmp	r3, #0	@ D.41381,
	bne	.L402	@,
	ldr	r3, [fp, #-96]	@, %sfp
	ldr	lr, [fp, #-92]	@, %sfp
	ldr	ip, [r3, r2]	@ tmp190,* D.41379
	mvn	sl, ip	@ tmp189, tmp190
	adds	sl, sl, lr	@ picNumLXNoWrap, tmp189,
	bmi	.L445	@,
.L403:
	ldr	r3, [fp, #-108]	@, %sfp
	mov	r0, r5	@, pMvcCtx
	ldr	r1, [fp, #-88]	@, %sfp
	cmp	r3, sl	@, picNumLXNoWrap
	ldr	r2, [fp, #-60]	@, %sfp
	ldr	ip, [r5, r1]	@ <variable>.CurrSlice.view_id, <variable>.CurrSlice.view_id
	movge	r3, sl	@ picNumLX, picNumLXNoWrap
	ldrlt	lr, [fp, #-104]	@, %sfp
	mov	r1, r8	@, listidx
	rsblt	r3, lr, sl	@ picNumLX,, picNumLXNoWrap
	str	ip, [sp, #4]	@ <variable>.CurrSlice.view_id,
	sub	lr, fp, #48	@,,
	str	lr, [sp, #0]	@,
	bl	MVC_ReorderSTList	@
	str	sl, [fp, #-92]	@ picNumLXNoWrap, %sfp
	b	.L406	@
.L442:
	movw	r0, #:lower16:11115984	@,
	movw	r2, #:lower16:11116248	@,
	movt	r0, #:upper16:11115984	@,
	movt	r2, #:upper16:11116248	@,
	movw	r1, #:lower16:11116512	@,
	str	r2, [fp, #-96]	@, %sfp
	movt	r1, #:upper16:11116512	@,
	movw	r2, #:lower16:11116768	@,
	str	r0, [fp, #-56]	@, %sfp
	movt	r2, #:upper16:11116768	@,
	str	r1, [fp, #-100]	@, %sfp
	b	.L439	@
.L444:
	ldr	r1, [fp, #-64]	@, %sfp
	ldr	r3, [r1, r2]	@ tmp225,* D.41379
	mvn	r3, r3	@ tmp224, tmp225
	adds	r7, r7, r3	@ picViewIdxLX, prephitmp.1622, tmp224
	ldrmi	r2, [fp, #-76]	@, %sfp
	addmi	r7, r7, r2	@ picViewIdxLX, picViewIdxLX,
	b	.L420	@
.L408:
	ldr	sl, [fp, #-112]	@, %sfp
	ldr	r9, [fp, #-88]	@, %sfp
	ldr	r4, [r5, sl]	@ <variable>.CurrSUBSPS.num_views_minus1, <variable>.CurrSUBSPS.num_views_minus1
	ldr	r0, [r5, r9]	@ temp.1659, <variable>.CurrSlice.view_id
	adds	sl, r4, #1	@ D.41417, <variable>.CurrSUBSPS.num_views_minus1,
	beq	.L410	@,
	movw	r1, #:lower16:10770772	@ tmp204,
	movt	r1, #:upper16:10770772	@ tmp204,
	ldr	lr, [r5, r1]	@ <variable>.CurrSUBSPS.view_id, <variable>.CurrSUBSPS.view_id
	cmp	r0, lr	@ temp.1659, <variable>.CurrSUBSPS.view_id
	beq	.L411	@,
	ldr	lr, [fp, #-72]	@ ivtmp.1644, %sfp
	tst	sl, #1	@ D.41417,
	mov	r4, #0	@ CurrVOIdx,
	mov	ip, lr	@ ivtmp.1662, ivtmp.1644
	bne	.L412	@,
	cmp	r7, sl	@ CurrVOIdx, D.41417
	mov	r4, r7	@ CurrVOIdx, init_flag
	bcs	.L413	@,
	ldr	ip, [fp, #-72]	@ ivtmp.1662, %sfp
	ldr	r9, [ip], #4	@ temp.1663, <variable>.CurrSUBSPS.view_id
	cmp	r0, r9	@ temp.1659, temp.1663
	bne	.L412	@,
	b	.L413	@
.L414:
	ldr	r7, [r1], #4	@ temp.1663, <variable>.CurrSUBSPS.view_id
	cmp	r0, r7	@ temp.1659, temp.1663
	beq	.L413	@,
	ldr	r7, [ip, #4]	@ temp.1663, <variable>.CurrSUBSPS.view_id
	add	r4, r4, #1	@ CurrVOIdx, CurrVOIdx,
	add	ip, r1, #4	@ ivtmp.1662, tmp269,
	cmp	r0, r7	@ temp.1659, temp.1663
	beq	.L413	@,
.L412:
	add	r4, r4, #1	@ CurrVOIdx, CurrVOIdx,
	mov	r1, ip	@ tmp269, ivtmp.1662
	cmp	r4, sl	@ CurrVOIdx, D.41417
	bcc	.L414	@,
.L413:
	ldr	r1, [fp, #-84]	@, %sfp
	tst	sl, #1	@ D.41417,
	ldrb	r9, [r5, r1]	@ zero_extendqisi2	@ D.41419, <variable>.CurrSlice.anchor_pic_flag
	mov	r1, #0	@ VOIdx,
	bne	.L415	@,
	mov	r1, #1	@ VOIdx,
	cmp	r1, sl	@ VOIdx, D.41417
	bcs	.L416	@,
	ldr	lr, [fp, #-72]	@ ivtmp.1644, %sfp
	ldr	ip, [lr], #4	@ D.48420, <variable>.CurrSUBSPS.view_id
	cmp	r0, ip	@ temp.1659, D.48420
	bne	.L415	@,
	b	.L416	@
.L417:
	ldr	r7, [ip], #4	@ D.48420, <variable>.CurrSUBSPS.view_id
	cmp	r0, r7	@ temp.1659, D.48420
	beq	.L416	@,
	ldr	r7, [lr, #4]	@ D.48420, <variable>.CurrSUBSPS.view_id
	add	r1, r1, #1	@ VOIdx, VOIdx,
	add	lr, ip, #4	@ ivtmp.1644, tmp264,
	cmp	r0, r7	@ temp.1659, D.48420
	beq	.L416	@,
.L415:
	add	r1, r1, #1	@ VOIdx, VOIdx,
	mov	ip, lr	@ tmp264, ivtmp.1644
	cmp	r1, sl	@ VOIdx, D.41417
	bcc	.L417	@,
.L416:
	cmp	r9, #0	@ D.41419,
	mov	r0, r8, asl #1	@ tmp251, listidx,
	addne	r1, r0, r1	@ tmp209, tmp251, VOIdx
	addeq	r1, r0, r1	@ tmp217, tmp251, VOIdx
	movwne	ip, #:lower16:2692694	@ tmp210,
	movweq	ip, #:lower16:2692702	@ tmp218,
	movtne	ip, #:upper16:2692694	@ tmp210,
	movteq	ip, #:upper16:2692702	@ tmp218,
	add	ip, r1, ip	@ tmp218, tmp217, tmp218
	mvn	r7, #0	@ prephitmp.1622,
	add	lr, r5, ip, asl #2	@, tmp222, pMvcCtx, tmp218,
	ldr	ip, [lr, #4]	@,
	str	ip, [fp, #-76]	@, %sfp
	b	.L409	@
.L402:
	ldr	lr, [fp, #-96]	@, %sfp
	ldr	sl, [fp, #-92]	@, %sfp
	ldr	r0, [fp, #-104]	@, %sfp
	ldr	ip, [lr, r2]	@ tmp192,* D.41379
	add	r2, sl, #1	@ tmp191,,
	add	sl, r2, ip	@ picNumLXNoWrap, tmp191, tmp192
	cmp	r0, sl	@, picNumLXNoWrap
	rsble	sl, r0, sl	@ picNumLXNoWrap,, picNumLXNoWrap
	b	.L403	@
.L443:
	ldr	r0, [fp, #-100]	@, %sfp
	mov	r1, r8	@, listidx
	sub	lr, fp, #48	@,,
	ldr	r3, [r0, r2]	@ tmp196,* D.41379
	mov	r0, r5	@, pMvcCtx
	ldr	r2, [fp, #-88]	@, %sfp
	ldr	ip, [r5, r2]	@ <variable>.CurrSlice.view_id, <variable>.CurrSlice.view_id
	ldr	r2, [fp, #-60]	@, %sfp
	str	lr, [sp, #0]	@,
	str	ip, [sp, #4]	@ <variable>.CurrSlice.view_id,
	bl	MVC_ReorderLTList	@
	b	.L406	@
.L445:
	ldr	r1, [fp, #-104]	@, %sfp
	add	sl, sl, r1	@ picNumLXNoWrap, picNumLXNoWrap,
	b	.L403	@
.L410:
	ldr	r7, [fp, #-84]	@, %sfp
	mov	r4, sl	@ CurrVOIdx, D.41417
	mov	r1, sl	@ VOIdx, CurrVOIdx
	ldrb	r9, [r5, r7]	@ zero_extendqisi2	@ D.41419, <variable>.CurrSlice.anchor_pic_flag
	b	.L416	@
.L411:
	ldr	r0, [fp, #-84]	@, %sfp
	mov	r4, #0	@ CurrVOIdx,
	mov	r1, r4	@ VOIdx, CurrVOIdx
	ldrb	r9, [r5, r0]	@ zero_extendqisi2	@ D.41419, <variable>.CurrSlice.anchor_pic_flag
	b	.L416	@
	.fnend
	.size	MVC_ReorderRefPiclist, .-MVC_ReorderRefPiclist
	.align	2
	.global	MVC_ReorderListX
	.type	MVC_ReorderListX, %function
MVC_ReorderListX:
	.fnstart
.LFB1591:
	@ args = 0, pretend = 0, frame = 0
	@ frame_needed = 1, uses_anonymous_args = 0
	.movsp ip
	mov	ip, sp	@,
	stmfd	sp!, {r3, r4, fp, ip, lr, pc}	@,
	.pad #4
	.save {r3, r4, fp, ip, lr}
	.setfp fp, ip, #-4
	sub	fp, ip, #4	@,,
	push	{lr}
	bl	__gnu_mcount_nc
	movw	r1, #:lower16:11117032	@ tmp134,
	movt	r1, #:upper16:11117032	@ tmp134,
	mov	r4, r0	@ pMvcCtx, pMvcCtx
	ldrb	r3, [r0, r1]	@ zero_extendqisi2	@ <variable>.CurrSlice.slice_type, <variable>.CurrSlice.slice_type
	cmp	r3, #2	@ <variable>.CurrSlice.slice_type,
	ldmeqfd	sp, {r3, r4, fp, sp, pc}	@
	movw	ip, #:lower16:11115980	@ tmp136,
	movt	ip, #:upper16:11115980	@ tmp136,
	ldrb	r2, [r0, ip]	@ zero_extendqisi2	@ <variable>.CurrReorder.ref_pic_list_reordering_flag_l0, <variable>.CurrReorder.ref_pic_list_reordering_flag_l0
	cmp	r2, #0	@ <variable>.CurrReorder.ref_pic_list_reordering_flag_l0,
	bne	.L453	@,
.L448:
	movw	r0, #:lower16:11117032	@ tmp144,
	movt	r0, #:upper16:11117032	@ tmp144,
	movw	ip, #:lower16:11117092	@ tmp141,
	movt	ip, #:upper16:11117092	@ tmp141,
	ldrb	r1, [r4, r0]	@ zero_extendqisi2	@ <variable>.CurrSlice.slice_type, <variable>.CurrSlice.slice_type
	movw	r3, #:lower16:11117080	@ tmp140,
	ldr	r2, [r4, ip]	@ <variable>.CurrSlice.num_ref_idx_l0_active_minus1, <variable>.CurrSlice.num_ref_idx_l0_active_minus1
	movt	r3, #:upper16:11117080	@ tmp140,
	cmp	r1, #1	@ <variable>.CurrSlice.slice_type,
	add	r0, r2, #1	@ tmp143, <variable>.CurrSlice.num_ref_idx_l0_active_minus1,
	str	r0, [r4, r3]	@ tmp143, <variable>.CurrSlice.listXsize
	ldmnefd	sp, {r3, r4, fp, sp, pc}	@
	movw	r2, #:lower16:11115981	@ tmp146,
	movt	r2, #:upper16:11115981	@ tmp146,
	ldrb	r3, [r4, r2]	@ zero_extendqisi2	@ <variable>.CurrReorder.ref_pic_list_reordering_flag_l1, <variable>.CurrReorder.ref_pic_list_reordering_flag_l1
	cmp	r3, #0	@ <variable>.CurrReorder.ref_pic_list_reordering_flag_l1,
	bne	.L454	@,
.L449:
	movw	r3, #:lower16:11117096	@ tmp151,
	movt	r3, #:upper16:11117096	@ tmp151,
	movw	ip, #:lower16:11117084	@ tmp150,
	movt	ip, #:upper16:11117084	@ tmp150,
	ldr	r0, [r4, r3]	@ <variable>.CurrSlice.num_ref_idx_l1_active_minus1, <variable>.CurrSlice.num_ref_idx_l1_active_minus1
	add	r1, r0, #1	@ tmp153, <variable>.CurrSlice.num_ref_idx_l1_active_minus1,
	str	r1, [r4, ip]	@ tmp153, <variable>.CurrSlice.listXsize
	ldmfd	sp, {r3, r4, fp, sp, pc}	@
.L453:
	movw	lr, #:lower16:11117092	@ tmp138,
	movt	lr, #:upper16:11117092	@ tmp138,
	mov	r1, #0	@,
	ldr	r2, [r0, lr]	@, <variable>.CurrSlice.num_ref_idx_l0_active_minus1
	bl	MVC_ReorderRefPiclist	@
	b	.L448	@
.L454:
	movw	lr, #:lower16:11117096	@ tmp148,
	movt	lr, #:upper16:11117096	@ tmp148,
	mov	r0, r4	@, pMvcCtx
	ldr	r2, [r4, lr]	@, <variable>.CurrSlice.num_ref_idx_l1_active_minus1
	bl	MVC_ReorderRefPiclist	@
	b	.L449	@
	.fnend
	.size	MVC_ReorderListX, .-MVC_ReorderListX
	.align	2
	.global	MVC_IsSTRefFlg
	.type	MVC_IsSTRefFlg, %function
MVC_IsSTRefFlg:
	.fnstart
.LFB1592:
	@ args = 0, pretend = 0, frame = 0
	@ frame_needed = 1, uses_anonymous_args = 0
	.movsp ip
	mov	ip, sp	@,
	stmfd	sp!, {fp, ip, lr, pc}	@,
	.pad #4
	.save {fp, ip, lr}
	.setfp fp, ip, #-4
	sub	fp, ip, #4	@,,
	push	{lr}
	bl	__gnu_mcount_nc
	ldr	r2, [r0, #0]	@ tmp138,* s
	bic	r1, r2, #-16777216	@ tmp136, tmp138,
	bic	r0, r1, #255	@ tmp136, tmp136,
	cmp	r0, #65536	@ tmp136,
	movne	r0, #0	@,
	moveq	r0, #1	@,
	ldmfd	sp, {fp, sp, pc}	@
	.fnend
	.size	MVC_IsSTRefFlg, .-MVC_IsSTRefFlg
	.align	2
	.global	MVC_IsLTRefFlg
	.type	MVC_IsLTRefFlg, %function
MVC_IsLTRefFlg:
	.fnstart
.LFB1593:
	@ args = 0, pretend = 0, frame = 0
	@ frame_needed = 1, uses_anonymous_args = 0
	.movsp ip
	mov	ip, sp	@,
	stmfd	sp!, {fp, ip, lr, pc}	@,
	.pad #4
	.save {fp, ip, lr}
	.setfp fp, ip, #-4
	sub	fp, ip, #4	@,,
	push	{lr}
	bl	__gnu_mcount_nc
	ldr	r2, [r0, #0]	@ tmp138,* s
	bic	r1, r2, #-16777216	@ tmp136, tmp138,
	bic	r0, r1, #255	@ tmp136, tmp136,
	cmp	r0, #256	@ tmp136,
	movne	r0, #0	@,
	moveq	r0, #1	@,
	ldmfd	sp, {fp, sp, pc}	@
	.fnend
	.size	MVC_IsLTRefFlg, .-MVC_IsLTRefFlg
	.align	2
	.global	MVC_compare_pic_by_pic_num_desc
	.type	MVC_compare_pic_by_pic_num_desc, %function
MVC_compare_pic_by_pic_num_desc:
	.fnstart
.LFB1594:
	@ args = 0, pretend = 0, frame = 0
	@ frame_needed = 1, uses_anonymous_args = 0
	.movsp ip
	mov	ip, sp	@,
	stmfd	sp!, {fp, ip, lr, pc}	@,
	.pad #4
	.save {fp, ip, lr}
	.setfp fp, ip, #-4
	sub	fp, ip, #4	@,,
	push	{lr}
	bl	__gnu_mcount_nc
	ldr	ip, [r0, #0]	@ tmp139,* arg1
	ldr	r1, [r1, #0]	@ tmp140,* arg2
	ldr	r2, [ip, #12]	@ D.41484, <variable>.pic_num
	ldr	r3, [r1, #12]	@ D.41487, <variable>.pic_num
	cmp	r2, r3	@ D.41484, D.41487
	movlt	r0, #1	@ D.41490,
	ldmltfd	sp, {fp, sp, pc}	@
	movle	r0, #0	@ D.41490,
	mvngt	r0, #0	@ D.41490,
	ldmfd	sp, {fp, sp, pc}	@
	.fnend
	.size	MVC_compare_pic_by_pic_num_desc, .-MVC_compare_pic_by_pic_num_desc
	.align	2
	.global	MVC_compare_pic_by_lt_pic_num_asc
	.type	MVC_compare_pic_by_lt_pic_num_asc, %function
MVC_compare_pic_by_lt_pic_num_asc:
	.fnstart
.LFB1595:
	@ args = 0, pretend = 0, frame = 0
	@ frame_needed = 1, uses_anonymous_args = 0
	.movsp ip
	mov	ip, sp	@,
	stmfd	sp!, {fp, ip, lr, pc}	@,
	.pad #4
	.save {fp, ip, lr}
	.setfp fp, ip, #-4
	sub	fp, ip, #4	@,,
	push	{lr}
	bl	__gnu_mcount_nc
	ldr	ip, [r0, #0]	@ tmp139,* arg1
	ldr	r1, [r1, #0]	@ tmp140,* arg2
	ldr	r2, [ip, #8]	@ D.41499, <variable>.long_term_pic_num
	ldr	r3, [r1, #8]	@ D.41502, <variable>.long_term_pic_num
	cmp	r2, r3	@ D.41499, D.41502
	mvnlt	r0, #0	@ D.41505,
	ldmltfd	sp, {fp, sp, pc}	@
	movle	r0, #0	@, D.41505
	movgt	r0, #1	@, D.41505
	ldmfd	sp, {fp, sp, pc}	@
	.fnend
	.size	MVC_compare_pic_by_lt_pic_num_asc, .-MVC_compare_pic_by_lt_pic_num_asc
	.align	2
	.global	MVC_compare_fs_by_frame_num_desc
	.type	MVC_compare_fs_by_frame_num_desc, %function
MVC_compare_fs_by_frame_num_desc:
	.fnstart
.LFB1596:
	@ args = 0, pretend = 0, frame = 0
	@ frame_needed = 1, uses_anonymous_args = 0
	.movsp ip
	mov	ip, sp	@,
	stmfd	sp!, {fp, ip, lr, pc}	@,
	.pad #4
	.save {fp, ip, lr}
	.setfp fp, ip, #-4
	sub	fp, ip, #4	@,,
	push	{lr}
	bl	__gnu_mcount_nc
	ldr	ip, [r0, #0]	@ tmp139,* arg1
	ldr	r1, [r1, #0]	@ tmp140,* arg2
	ldr	r2, [ip, #24]	@ D.41514, <variable>.frame_num_wrap
	ldr	r3, [r1, #24]	@ D.41517, <variable>.frame_num_wrap
	cmp	r2, r3	@ D.41514, D.41517
	movlt	r0, #1	@ D.41520,
	ldmltfd	sp, {fp, sp, pc}	@
	movle	r0, #0	@ D.41520,
	mvngt	r0, #0	@ D.41520,
	ldmfd	sp, {fp, sp, pc}	@
	.fnend
	.size	MVC_compare_fs_by_frame_num_desc, .-MVC_compare_fs_by_frame_num_desc
	.align	2
	.global	MVC_compare_fs_by_lt_pic_idx_asc
	.type	MVC_compare_fs_by_lt_pic_idx_asc, %function
MVC_compare_fs_by_lt_pic_idx_asc:
	.fnstart
.LFB1597:
	@ args = 0, pretend = 0, frame = 0
	@ frame_needed = 1, uses_anonymous_args = 0
	.movsp ip
	mov	ip, sp	@,
	stmfd	sp!, {fp, ip, lr, pc}	@,
	.pad #4
	.save {fp, ip, lr}
	.setfp fp, ip, #-4
	sub	fp, ip, #4	@,,
	push	{lr}
	bl	__gnu_mcount_nc
	ldr	ip, [r0, #0]	@ tmp139,* arg1
	ldr	r1, [r1, #0]	@ tmp140,* arg2
	ldr	r2, [ip, #28]	@ D.41529, <variable>.long_term_frame_idx
	ldr	r3, [r1, #28]	@ D.41532, <variable>.long_term_frame_idx
	cmp	r2, r3	@ D.41529, D.41532
	mvncc	r0, #0	@ D.41535,
	ldmccfd	sp, {fp, sp, pc}	@
	movls	r0, #0	@, D.41535
	movhi	r0, #1	@, D.41535
	ldmfd	sp, {fp, sp, pc}	@
	.fnend
	.size	MVC_compare_fs_by_lt_pic_idx_asc, .-MVC_compare_fs_by_lt_pic_idx_asc
	.align	2
	.global	MVC_compare_pic_by_poc_asc
	.type	MVC_compare_pic_by_poc_asc, %function
MVC_compare_pic_by_poc_asc:
	.fnstart
.LFB1598:
	@ args = 0, pretend = 0, frame = 0
	@ frame_needed = 1, uses_anonymous_args = 0
	.movsp ip
	mov	ip, sp	@,
	stmfd	sp!, {fp, ip, lr, pc}	@,
	.pad #4
	.save {fp, ip, lr}
	.setfp fp, ip, #-4
	sub	fp, ip, #4	@,,
	push	{lr}
	bl	__gnu_mcount_nc
	ldr	ip, [r0, #0]	@ tmp139,* arg1
	ldr	r1, [r1, #0]	@ tmp140,* arg2
	ldr	r2, [ip, #16]	@ D.41544, <variable>.poc
	ldr	r3, [r1, #16]	@ D.41547, <variable>.poc
	cmp	r2, r3	@ D.41544, D.41547
	mvnlt	r0, #0	@ D.41550,
	ldmltfd	sp, {fp, sp, pc}	@
	movle	r0, #0	@, D.41550
	movgt	r0, #1	@, D.41550
	ldmfd	sp, {fp, sp, pc}	@
	.fnend
	.size	MVC_compare_pic_by_poc_asc, .-MVC_compare_pic_by_poc_asc
	.align	2
	.global	MVC_compare_pic_by_poc_desc
	.type	MVC_compare_pic_by_poc_desc, %function
MVC_compare_pic_by_poc_desc:
	.fnstart
.LFB1599:
	@ args = 0, pretend = 0, frame = 0
	@ frame_needed = 1, uses_anonymous_args = 0
	.movsp ip
	mov	ip, sp	@,
	stmfd	sp!, {fp, ip, lr, pc}	@,
	.pad #4
	.save {fp, ip, lr}
	.setfp fp, ip, #-4
	sub	fp, ip, #4	@,,
	push	{lr}
	bl	__gnu_mcount_nc
	ldr	ip, [r0, #0]	@ tmp139,* arg1
	ldr	r1, [r1, #0]	@ tmp140,* arg2
	ldr	r2, [ip, #16]	@ D.41559, <variable>.poc
	ldr	r3, [r1, #16]	@ D.41562, <variable>.poc
	cmp	r2, r3	@ D.41559, D.41562
	movlt	r0, #1	@ D.41565,
	ldmltfd	sp, {fp, sp, pc}	@
	movle	r0, #0	@ D.41565,
	mvngt	r0, #0	@ D.41565,
	ldmfd	sp, {fp, sp, pc}	@
	.fnend
	.size	MVC_compare_pic_by_poc_desc, .-MVC_compare_pic_by_poc_desc
	.align	2
	.global	MVC_compare_fs_by_poc_asc
	.type	MVC_compare_fs_by_poc_asc, %function
MVC_compare_fs_by_poc_asc:
	.fnstart
.LFB1600:
	@ args = 0, pretend = 0, frame = 0
	@ frame_needed = 1, uses_anonymous_args = 0
	.movsp ip
	mov	ip, sp	@,
	stmfd	sp!, {fp, ip, lr, pc}	@,
	.pad #4
	.save {fp, ip, lr}
	.setfp fp, ip, #-4
	sub	fp, ip, #4	@,,
	push	{lr}
	bl	__gnu_mcount_nc
	ldr	ip, [r0, #0]	@ tmp139,* arg1
	ldr	r1, [r1, #0]	@ tmp140,* arg2
	ldr	r2, [ip, #32]	@ D.41574, <variable>.poc
	ldr	r3, [r1, #32]	@ D.41577, <variable>.poc
	cmp	r2, r3	@ D.41574, D.41577
	mvnlt	r0, #0	@ D.41580,
	ldmltfd	sp, {fp, sp, pc}	@
	movle	r0, #0	@, D.41580
	movgt	r0, #1	@, D.41580
	ldmfd	sp, {fp, sp, pc}	@
	.fnend
	.size	MVC_compare_fs_by_poc_asc, .-MVC_compare_fs_by_poc_asc
	.align	2
	.global	MVC_compare_fs_by_poc_desc
	.type	MVC_compare_fs_by_poc_desc, %function
MVC_compare_fs_by_poc_desc:
	.fnstart
.LFB1601:
	@ args = 0, pretend = 0, frame = 0
	@ frame_needed = 1, uses_anonymous_args = 0
	.movsp ip
	mov	ip, sp	@,
	stmfd	sp!, {fp, ip, lr, pc}	@,
	.pad #4
	.save {fp, ip, lr}
	.setfp fp, ip, #-4
	sub	fp, ip, #4	@,,
	push	{lr}
	bl	__gnu_mcount_nc
	ldr	ip, [r0, #0]	@ tmp139,* arg1
	ldr	r1, [r1, #0]	@ tmp140,* arg2
	ldr	r2, [ip, #32]	@ D.41589, <variable>.poc
	ldr	r3, [r1, #32]	@ D.41592, <variable>.poc
	cmp	r2, r3	@ D.41589, D.41592
	movlt	r0, #1	@ D.41595,
	ldmltfd	sp, {fp, sp, pc}	@
	movle	r0, #0	@ D.41595,
	mvngt	r0, #0	@ D.41595,
	ldmfd	sp, {fp, sp, pc}	@
	.fnend
	.size	MVC_compare_fs_by_poc_desc, .-MVC_compare_fs_by_poc_desc
	.align	2
	.global	MVC_GenPiclistfromFrmlist
	.type	MVC_GenPiclistfromFrmlist, %function
MVC_GenPiclistfromFrmlist:
	.fnstart
.LFB1602:
	@ args = 8, pretend = 0, frame = 16
	@ frame_needed = 1, uses_anonymous_args = 0
	.movsp ip
	mov	ip, sp	@,
	stmfd	sp!, {r4, r5, r6, r7, r8, r9, sl, fp, ip, lr, pc}	@,
	.pad #4
	.save {r4, r5, r6, r7, r8, r9, sl, fp, ip, lr}
	.setfp fp, ip, #-4
	sub	fp, ip, #4	@,,
	.pad #20
	sub	sp, sp, #20	@,,
	push	{lr}
	bl	__gnu_mcount_nc
	cmp	r2, #31	@ list_idx,
	movcc	r4, r2	@ list_idx.2048, list_idx
	movcs	r4, #31	@ list_idx.2048,
	ldr	r2, [fp, #8]	@ long_term, long_term
	movw	ip, #:lower16:MVC_IsSTRefFlg	@ tmp218,
	movt	ip, #:upper16:MVC_IsSTRefFlg	@ tmp218,
	movw	r5, #:lower16:MVC_IsLTRefFlg	@ tmp217,
	cmp	r2, #0	@ long_term,
	movt	r5, #:upper16:MVC_IsLTRefFlg	@ tmp217,
	mov	r6, r1	@ fs_list, fs_list
	str	r3, [fp, #-56]	@ list, %sfp
	moveq	r5, ip	@ is_ref, tmp218
	cmp	r0, #1	@ currStrcture,
	beq	.L577	@,
	cmp	r0, #2	@ currStrcture,
	bne	.L506	@,
	mov	r8, #0	@ bot_idx.2026,
	mov	r6, r5	@ is_ref, is_ref
	mov	sl, r8	@ top_idx, bot_idx.2026
	str	r1, [fp, #-48]	@ fs_list, %sfp
.L556:
	cmp	sl, r4	@ top_idx, list_idx.2048
	movcs	r2, #0	@,
	movcc	r2, #1	@,
	str	r2, [fp, #-52]	@, %sfp
	ldr	r1, [fp, #-52]	@, %sfp
	cmp	r8, r4	@ bot_idx.2026, list_idx.2048
	movcs	r3, #0	@, temp.2020
	movcc	r3, #1	@, temp.2020
	orrs	r1, r3, r1	@, temp.2020,
	beq	.L506	@,
	cmp	r3, #0	@ temp.2020,
	beq	.L511	@,
	ldr	ip, [fp, #-48]	@, %sfp
	mvn	r7, r8	@ tmp235, bot_idx.2026
	add	r5, r7, r4	@ tmp234, tmp235, list_idx.2048
	and	r5, r5, #1	@ tmp236, tmp234,
	add	r7, ip, r8, asl #2	@, ivtmp.2007,, bot_idx.2026,
	ldr	r0, [ip, r8, asl #2]	@ temp.2022,
	ldrb	r3, [r0, #2]	@ zero_extendqisi2	@ <variable>.is_used, <variable>.is_used
	tst	r3, #2	@ <variable>.is_used,
	bne	.L578	@,
.L540:
	add	r8, r8, #1	@ bot_idx.2026, bot_idx.2026,
	add	r7, r7, #4	@ ivtmp.2007, ivtmp.2007,
	cmp	r8, r4	@ bot_idx.2026, list_idx.2048
	bcs	.L511	@,
	cmp	r5, #0	@ tmp236,
	beq	.L510	@,
	ldr	r0, [r7, #0]	@ temp.2022,* ivtmp.2007
	ldrb	ip, [r0, #2]	@ zero_extendqisi2	@ <variable>.is_used, <variable>.is_used
	tst	ip, #2	@ <variable>.is_used,
	bne	.L579	@,
.L542:
	add	r8, r8, #1	@ bot_idx.2026, bot_idx.2026,
	add	r7, r7, #4	@ ivtmp.2007, ivtmp.2007,
	cmp	r8, r4	@ bot_idx.2026, list_idx.2048
	bcc	.L510	@,
	b	.L511	@
.L508:
	add	r7, r7, #4	@ ivtmp.2007, ivtmp.2007,
	add	r8, r8, #1	@ bot_idx.2026, bot_idx.2026,
	ldr	r0, [r7, #0]	@ temp.2022,* ivtmp.2007
	mov	r9, r8	@ tmp237, bot_idx.2026
	mov	r5, r7	@ tmp238, ivtmp.2007
	ldrb	ip, [r0, #2]	@ zero_extendqisi2	@ <variable>.is_used, <variable>.is_used
	tst	ip, #2	@ <variable>.is_used,
	bne	.L580	@,
.L545:
	add	r8, r9, #1	@ bot_idx.2026, tmp237,
	add	r7, r5, #4	@ ivtmp.2007, tmp238,
	cmp	r8, r4	@ bot_idx.2026, list_idx.2048
	bcs	.L511	@,
.L510:
	ldr	r0, [r7, #0]	@ temp.2022,* ivtmp.2007
	ldrb	r2, [r0, #2]	@ zero_extendqisi2	@ <variable>.is_used, <variable>.is_used
	tst	r2, #2	@ <variable>.is_used,
	beq	.L508	@,
	add	r0, r0, #640	@, temp.2022,
	blx	r6	@ is_ref
	cmp	r0, #0	@,
	beq	.L508	@,
.L564:
	ldr	r0, [fp, #4]	@, list_size
	add	r8, r8, #1	@ bot_idx.2026, bot_idx.2026,
	ldr	ip, [fp, #-56]	@, %sfp
	ldr	lr, [r7, #0]	@ tmp195,* ivtmp.2007
	ldr	r3, [r0, #0]	@ tmp194,
	add	r2, lr, #640	@ tmp196, tmp195,
	str	r2, [ip, r3, asl #2]	@ tmp196,
	ldr	lr, [fp, #4]	@, list_size
	ldr	r1, [lr, #0]	@ tmp197,
	add	r0, r1, #1	@ tmp198, tmp197,
	str	r0, [lr, #0]	@ tmp198,
.L511:
	ldr	r1, [fp, #-52]	@, %sfp
	cmp	r1, #0	@,
	beq	.L556	@,
	ldr	r3, [fp, #-48]	@, %sfp
	mvn	r5, sl	@ tmp230, top_idx
	add	r7, r5, r4	@ tmp229, tmp230, list_idx.2048
	and	r7, r7, #1	@ tmp231, tmp229,
	add	r5, r3, sl, asl #2	@, ivtmp.2002,, top_idx,
	ldr	r0, [r3, sl, asl #2]	@ temp.2036,
	ldrb	r2, [r0, #2]	@ zero_extendqisi2	@ <variable>.is_used, <variable>.is_used
	tst	r2, #1	@ <variable>.is_used,
	bne	.L581	@,
.L533:
	add	sl, sl, #1	@ top_idx, top_idx,
	add	r5, r5, #4	@ ivtmp.2002, ivtmp.2002,
	cmp	sl, r4	@ top_idx, list_idx.2048
	bcs	.L556	@,
	cmp	r7, #0	@ tmp231,
	beq	.L513	@,
	ldr	r0, [r5, #0]	@ temp.2036,* ivtmp.2002
	ldrb	r3, [r0, #2]	@ zero_extendqisi2	@ <variable>.is_used, <variable>.is_used
	tst	r3, #1	@ <variable>.is_used,
	bne	.L582	@,
.L535:
	add	sl, sl, #1	@ top_idx, top_idx,
	add	r5, r5, #4	@ ivtmp.2002, ivtmp.2002,
	cmp	sl, r4	@ top_idx, list_idx.2048
	bcc	.L513	@,
	b	.L556	@
.L512:
	add	r5, r5, #4	@ ivtmp.2002, ivtmp.2002,
	add	sl, sl, #1	@ top_idx, top_idx,
	ldr	r0, [r5, #0]	@ temp.2036,* ivtmp.2002
	mov	r9, sl	@ tmp232, top_idx
	mov	r7, r5	@ tmp233, ivtmp.2002
	ldrb	ip, [r0, #2]	@ zero_extendqisi2	@ <variable>.is_used, <variable>.is_used
	tst	ip, #1	@ <variable>.is_used,
	bne	.L583	@,
.L538:
	add	sl, r9, #1	@ top_idx, tmp232,
	add	r5, r7, #4	@ ivtmp.2002, tmp233,
	cmp	sl, r4	@ top_idx, list_idx.2048
	bcs	.L556	@,
.L513:
	ldr	r0, [r5, #0]	@ temp.2036,* ivtmp.2002
	ldrb	r1, [r0, #2]	@ zero_extendqisi2	@ <variable>.is_used, <variable>.is_used
	tst	r1, #1	@ <variable>.is_used,
	beq	.L512	@,
	add	r0, r0, #604	@, temp.2036,
	blx	r6	@ is_ref
	cmp	r0, #0	@,
	beq	.L512	@,
.L563:
	ldr	r0, [fp, #4]	@, list_size
	add	sl, sl, #1	@ top_idx, top_idx,
	ldr	r1, [fp, #-56]	@, %sfp
	ldr	lr, [r5, #0]	@ tmp204,* ivtmp.2002
	ldr	r3, [r0, #0]	@ tmp203,
	add	r2, lr, #604	@ tmp205, tmp204,
	str	r2, [r1, r3, asl #2]	@ tmp205,
	ldr	lr, [fp, #4]	@, list_size
	ldr	ip, [lr, #0]	@ tmp206,
	add	r0, ip, #1	@ tmp207, tmp206,
	str	r0, [lr, #0]	@ tmp207,
	b	.L556	@
.L506:
	mov	r0, #0	@,
	sub	sp, fp, #40
	ldmfd	sp, {r4, r5, r6, r7, r8, r9, sl, fp, sp, pc}
.L583:
	add	r0, r0, #604	@, temp.2036,
	blx	r6	@ is_ref
	cmp	r0, #0	@,
	beq	.L538	@,
	b	.L563	@
.L580:
	add	r0, r0, #640	@, temp.2022,
	blx	r6	@ is_ref
	cmp	r0, #0	@,
	beq	.L545	@,
	b	.L564	@
.L578:
	add	r0, r0, #640	@, temp.2022,
	blx	r6	@ is_ref
	cmp	r0, #0	@,
	beq	.L540	@,
	b	.L564	@
.L581:
	add	r0, r0, #604	@, temp.2036,
	blx	r6	@ is_ref
	cmp	r0, #0	@,
	beq	.L533	@,
	b	.L563	@
.L582:
	add	r0, r0, #604	@, temp.2036,
	blx	r6	@ is_ref
	cmp	r0, #0	@,
	beq	.L535	@,
	b	.L563	@
.L579:
	add	r0, r0, #640	@, temp.2022,
	blx	r6	@ is_ref
	cmp	r0, #0	@,
	beq	.L542	@,
	b	.L564	@
.L577:
	mov	r8, #0	@ bot_idx,
	mov	r6, r5	@ is_ref, is_ref
	mov	sl, r8	@ top_idx.2031, bot_idx
	str	r1, [fp, #-48]	@ fs_list, %sfp
.L551:
	cmp	r8, r4	@ bot_idx, list_idx.2048
	movcs	r1, #0	@,
	movcc	r1, #1	@,
	cmp	sl, r4	@ top_idx.2031, list_idx.2048
	movcs	r3, #0	@, D.41664
	movcc	r3, #1	@, D.41664
	str	r1, [fp, #-52]	@, %sfp
	orrs	r1, r1, r3	@,, D.41664
	beq	.L506	@,
	cmp	r3, #0	@ D.41664,
	beq	.L503	@,
	ldr	r3, [fp, #-48]	@, %sfp
	mvn	r7, sl	@ tmp225, top_idx.2031
	add	r5, r7, r4	@ tmp224, tmp225, list_idx.2048
	and	r5, r5, #1	@ tmp226, tmp224,
	add	r7, r3, sl, asl #2	@, ivtmp.1997,, top_idx.2031,
	ldr	r0, [r3, sl, asl #2]	@ D.41637,
	ldrb	ip, [r0, #2]	@ zero_extendqisi2	@ <variable>.is_used, <variable>.is_used
	tst	ip, #1	@ <variable>.is_used,
	bne	.L584	@,
.L526:
	add	sl, sl, #1	@ top_idx.2031, top_idx.2031,
	add	r7, r7, #4	@ ivtmp.1997, ivtmp.1997,
	cmp	sl, r4	@ top_idx.2031, list_idx.2048
	bcs	.L503	@,
	cmp	r5, #0	@ tmp226,
	beq	.L502	@,
	ldr	r0, [r7, #0]	@ D.41637,* ivtmp.1997
	ldrb	r2, [r0, #2]	@ zero_extendqisi2	@ <variable>.is_used, <variable>.is_used
	tst	r2, #1	@ <variable>.is_used,
	bne	.L585	@,
.L528:
	add	sl, sl, #1	@ top_idx.2031, top_idx.2031,
	add	r7, r7, #4	@ ivtmp.1997, ivtmp.1997,
	cmp	sl, r4	@ top_idx.2031, list_idx.2048
	bcc	.L502	@,
	b	.L503	@
.L500:
	add	r7, r7, #4	@ ivtmp.1997, ivtmp.1997,
	add	sl, sl, #1	@ top_idx.2031, top_idx.2031,
	ldr	r0, [r7, #0]	@ D.41637,* ivtmp.1997
	mov	r9, sl	@ tmp228, top_idx.2031
	mov	r5, r7	@ tmp227, ivtmp.1997
	ldrb	r2, [r0, #2]	@ zero_extendqisi2	@ <variable>.is_used, <variable>.is_used
	tst	r2, #1	@ <variable>.is_used,
	bne	.L586	@,
.L531:
	add	sl, r9, #1	@ top_idx.2031, tmp228,
	add	r7, r5, #4	@ ivtmp.1997, tmp227,
	cmp	sl, r4	@ top_idx.2031, list_idx.2048
	bcs	.L503	@,
.L502:
	ldr	r0, [r7, #0]	@ D.41637,* ivtmp.1997
	ldrb	r3, [r0, #2]	@ zero_extendqisi2	@ <variable>.is_used, <variable>.is_used
	tst	r3, #1	@ <variable>.is_used,
	beq	.L500	@,
	add	r0, r0, #604	@, D.41637,
	blx	r6	@ is_ref
	cmp	r0, #0	@,
	beq	.L500	@,
.L562:
	ldr	r1, [fp, #4]	@, list_size
	add	sl, sl, #1	@ top_idx.2031, top_idx.2031,
	ldr	ip, [fp, #-56]	@, %sfp
	ldr	r0, [r7, #0]	@ tmp170,* ivtmp.1997
	ldr	r3, [r1, #0]	@ tmp169,
	add	r2, r0, #604	@ tmp171, tmp170,
	str	r2, [ip, r3, asl #2]	@ tmp171,
	ldr	r0, [fp, #4]	@, list_size
	ldr	lr, [r0, #0]	@ tmp172,
	add	r1, lr, #1	@ tmp173, tmp172,
	str	r1, [r0, #0]	@ tmp173,
.L503:
	ldr	ip, [fp, #-52]	@, %sfp
	cmp	ip, #0	@,
	beq	.L551	@,
	ldr	r1, [fp, #-48]	@, %sfp
	mvn	r5, r8	@ tmp220, bot_idx
	add	r7, r5, r4	@ tmp219, tmp220, list_idx.2048
	and	r7, r7, #1	@ tmp221, tmp219,
	add	r5, r1, r8, asl #2	@, ivtmp.1992,, bot_idx,
	ldr	r0, [r1, r8, asl #2]	@ D.41654,
	ldrb	r3, [r0, #2]	@ zero_extendqisi2	@ <variable>.is_used, <variable>.is_used
	tst	r3, #2	@ <variable>.is_used,
	bne	.L587	@,
.L519:
	add	r8, r8, #1	@ bot_idx, bot_idx,
	add	r5, r5, #4	@ ivtmp.1992, ivtmp.1992,
	cmp	r8, r4	@ bot_idx, list_idx.2048
	bcs	.L551	@,
	cmp	r7, #0	@ tmp221,
	beq	.L505	@,
	ldr	r0, [r5, #0]	@ D.41654,* ivtmp.1992
	ldrb	r1, [r0, #2]	@ zero_extendqisi2	@ <variable>.is_used, <variable>.is_used
	tst	r1, #2	@ <variable>.is_used,
	bne	.L588	@,
.L521:
	add	r8, r8, #1	@ bot_idx, bot_idx,
	add	r5, r5, #4	@ ivtmp.1992, ivtmp.1992,
	cmp	r8, r4	@ bot_idx, list_idx.2048
	bcc	.L505	@,
	b	.L551	@
.L504:
	add	r5, r5, #4	@ ivtmp.1992, ivtmp.1992,
	add	r8, r8, #1	@ bot_idx, bot_idx,
	ldr	r0, [r5, #0]	@ D.41654,* ivtmp.1992
	mov	r9, r8	@ tmp222, bot_idx
	mov	r7, r5	@ tmp223, ivtmp.1992
	ldrb	r2, [r0, #2]	@ zero_extendqisi2	@ <variable>.is_used, <variable>.is_used
	tst	r2, #2	@ <variable>.is_used,
	bne	.L589	@,
.L524:
	add	r8, r9, #1	@ bot_idx, tmp222,
	add	r5, r7, #4	@ ivtmp.1992, tmp223,
	cmp	r8, r4	@ bot_idx, list_idx.2048
	bcs	.L551	@,
.L505:
	ldr	r0, [r5, #0]	@ D.41654,* ivtmp.1992
	ldrb	ip, [r0, #2]	@ zero_extendqisi2	@ <variable>.is_used, <variable>.is_used
	tst	ip, #2	@ <variable>.is_used,
	beq	.L504	@,
	add	r0, r0, #640	@, D.41654,
	blx	r6	@ is_ref
	cmp	r0, #0	@,
	beq	.L504	@,
.L561:
	ldr	r0, [fp, #4]	@, list_size
	add	r8, r8, #1	@ bot_idx, bot_idx,
	ldr	r1, [fp, #-56]	@, %sfp
	ldr	lr, [r5, #0]	@ tmp179,* ivtmp.1992
	ldr	r3, [r0, #0]	@ tmp178,
	add	ip, lr, #640	@ tmp180, tmp179,
	str	ip, [r1, r3, asl #2]	@ tmp180,
	ldr	lr, [fp, #4]	@, list_size
	ldr	r2, [lr, #0]	@ tmp181,
	add	r0, r2, #1	@ tmp182, tmp181,
	str	r0, [lr, #0]	@ tmp182,
	b	.L551	@
.L589:
	add	r0, r0, #640	@, D.41654,
	blx	r6	@ is_ref
	cmp	r0, #0	@,
	beq	.L524	@,
	b	.L561	@
.L586:
	add	r0, r0, #604	@, D.41637,
	blx	r6	@ is_ref
	cmp	r0, #0	@,
	beq	.L531	@,
	b	.L562	@
.L587:
	add	r0, r0, #640	@, D.41654,
	blx	r6	@ is_ref
	cmp	r0, #0	@,
	beq	.L519	@,
	b	.L561	@
.L584:
	add	r0, r0, #604	@, D.41637,
	blx	r6	@ is_ref
	cmp	r0, #0	@,
	beq	.L526	@,
	b	.L562	@
.L585:
	add	r0, r0, #604	@, D.41637,
	blx	r6	@ is_ref
	cmp	r0, #0	@,
	beq	.L528	@,
	b	.L562	@
.L588:
	add	r0, r0, #640	@, D.41654,
	blx	r6	@ is_ref
	cmp	r0, #0	@,
	beq	.L521	@,
	b	.L561	@
	.fnend
	.size	MVC_GenPiclistfromFrmlist, .-MVC_GenPiclistfromFrmlist
	.align	2
	.global	MVC_GetBaseViewId
	.type	MVC_GetBaseViewId, %function
MVC_GetBaseViewId:
	.fnstart
.LFB1603:
	@ args = 0, pretend = 0, frame = 0
	@ frame_needed = 1, uses_anonymous_args = 0
	.movsp ip
	mov	ip, sp	@,
	stmfd	sp!, {fp, ip, lr, pc}	@,
	.pad #4
	.save {fp, ip, lr}
	.setfp fp, ip, #-4
	sub	fp, ip, #4	@,,
	push	{lr}
	bl	__gnu_mcount_nc
	add	r3, r0, #12992	@ ivtmp.2080, pMvcCtx,
	add	r3, r3, #16	@ ivtmp.2080, ivtmp.2080,
	mov	r1, #0	@ i,
	b	.L593	@
.L591:
	ldr	r3, [r2, #0]	@ <variable>.num_views_minus1, <variable>.num_views_minus1
	add	r1, r1, #1	@ i, i,
	cmp	r3, #0	@ <variable>.num_views_minus1,
	mov	r3, r1	@ tmp181, i
	beq	.L596	@,
	ldrb	ip, [r2, #-4]	@ zero_extendqisi2	@ <variable>.is_valid, <variable>.is_valid
	cmp	ip, #0	@ <variable>.is_valid,
	bne	.L599	@,
.L596:
	add	r1, r3, #1	@ i, tmp181,
	add	r3, r2, #335872	@ ivtmp.2080, ivtmp.2080,
	cmp	r1, #32	@ i,
	add	r3, r3, #308	@ ivtmp.2080, ivtmp.2080,
	beq	.L601	@,
.L593:
	ldr	ip, [r3, #0]	@ <variable>.num_views_minus1, <variable>.num_views_minus1
	add	r2, r3, #335872	@ ivtmp.2080, ivtmp.2080,
	add	r2, r2, #308	@ ivtmp.2080, ivtmp.2080,
	cmp	ip, #0	@ <variable>.num_views_minus1,
	beq	.L591	@,
	ldrb	r3, [r3, #-4]	@ zero_extendqisi2	@ <variable>.is_valid, <variable>.is_valid
	cmp	r3, #0	@ <variable>.is_valid,
	beq	.L591	@,
.L599:
	movw	r2, #:lower16:336180	@ tmp174,
	movt	r2, #:upper16:336180	@ tmp174,
	mla	ip, r2, r1, r0	@ tmp175, tmp174, i, pMvcCtx
	add	r0, ip, #12992	@ tmp176, tmp175,
	add	r1, r0, #16	@ tmp176, tmp176,
	ldr	r0, [r1, #4]	@ baseviewid, <variable>.view_id
	ldmfd	sp, {fp, sp, pc}	@
.L601:
	mvn	r0, #0	@ baseviewid,
	ldmfd	sp, {fp, sp, pc}	@
	.fnend
	.size	MVC_GetBaseViewId, .-MVC_GetBaseViewId
	.align	2
	.global	MVC_GetVOIdx
	.type	MVC_GetVOIdx, %function
MVC_GetVOIdx:
	.fnstart
.LFB1604:
	@ args = 0, pretend = 0, frame = 0
	@ frame_needed = 1, uses_anonymous_args = 0
	.movsp ip
	mov	ip, sp	@,
	stmfd	sp!, {fp, ip, lr, pc}	@,
	.pad #4
	.save {fp, ip, lr}
	.setfp fp, ip, #-4
	sub	fp, ip, #4	@,,
	push	{lr}
	bl	__gnu_mcount_nc
	cmp	r1, #0	@ num_views
	mov	r3, r0	@ ref_view_id, ref_view_id
	beq	.L603	@,
	ldr	r0, [r0, #0]	@ tmp139,* ref_view_id
	cmp	r0, r2	@ tmp139, CurrViewId
	beq	.L603	@,
	tst	r1, #1	@ num_views,
	mov	r0, #0	@ i,
	bne	.L604	@,
	ldr	ip, [r3, #4]	@ tmp148,
	mov	r0, #1	@ i,
	cmp	ip, r2	@ tmp148, CurrViewId
	ldmeqfd	sp, {fp, sp, pc}	@
	add	r0, r0, #1	@ i, i,
	cmp	r0, r1	@ i, num_views
	bcs	.L613	@,
.L606:
	ldr	ip, [r3, r0, asl #2]	@ tmp141,* ref_view_id
	cmp	ip, r2	@ tmp141, CurrViewId
	beq	.L614	@,
	add	r0, r0, #1	@ i, i,
	ldr	ip, [r3, r0, asl #2]	@ tmp150,* ref_view_id
	cmp	ip, r2	@ tmp150, CurrViewId
	beq	.L615	@,
.L604:
	add	r0, r0, #1	@ i, i,
	cmp	r0, r1	@ i, num_views
	bcc	.L606	@,
.L613:
	ldmfd	sp, {fp, sp, pc}	@
.L614:
	ldmfd	sp, {fp, sp, pc}	@
.L615:
	ldmfd	sp, {fp, sp, pc}	@
.L603:
	mov	r0, #0	@ i,
	ldmfd	sp, {fp, sp, pc}	@
	.fnend
	.size	MVC_GetVOIdx, .-MVC_GetVOIdx
	.align	2
	.global	MVC_is_view_id_in_ref_view_list
	.type	MVC_is_view_id_in_ref_view_list, %function
MVC_is_view_id_in_ref_view_list:
	.fnstart
.LFB1605:
	@ args = 0, pretend = 0, frame = 0
	@ frame_needed = 1, uses_anonymous_args = 0
	.movsp ip
	mov	ip, sp	@,
	stmfd	sp!, {r3, r4, fp, ip, lr, pc}	@,
	.pad #4
	.save {r3, r4, fp, ip, lr}
	.setfp fp, ip, #-4
	sub	fp, ip, #4	@,,
	push	{lr}
	bl	__gnu_mcount_nc
	cmp	r2, #0	@ num_ref_views
	beq	.L617	@,
	ldr	r3, [r1, #0]	@ tmp139,* ref_view_id
	cmp	r3, r0	@ tmp139, view_id
	beq	.L617	@,
	tst	r2, #1	@ num_ref_views,
	mov	ip, #0	@ i,
	bne	.L618	@,
	ldr	r4, [r1, #4]	@ tmp153,
	mov	ip, #1	@ i,
	mov	r3, ip	@ i.639, i
	cmp	r4, r0	@ tmp153, view_id
	bne	.L618	@,
.L619:
	cmp	r2, #0	@ num_ref_views,
	cmpne	r2, r3	@, num_ref_views, i.639
	movls	r0, #0	@,
	movhi	r0, #1	@,
	ldmfd	sp, {r3, r4, fp, sp, pc}	@
.L620:
	ldr	r4, [r1, r3, asl #2]	@ tmp141,* ref_view_id
	cmp	r4, r0	@ tmp141, view_id
	beq	.L619	@,
	ldr	r4, [r1, ip, asl #2]	@ tmp155,* ref_view_id
	mov	r3, ip	@ i.639, i
	cmp	r4, r0	@ tmp155, view_id
	beq	.L619	@,
.L618:
	add	r3, ip, #1	@ i.639, i,
	cmp	r2, r3	@ num_ref_views, i.639
	add	ip, r3, #1	@ i, i.639,
	bhi	.L620	@,
	cmp	r2, #0	@ num_ref_views,
	cmpne	r2, r3	@, num_ref_views, i.639
	movls	r0, #0	@,
	movhi	r0, #1	@,
	ldmfd	sp, {r3, r4, fp, sp, pc}	@
.L617:
	mov	r3, #0	@ i.639,
	b	.L619	@
	.fnend
	.size	MVC_is_view_id_in_ref_view_list, .-MVC_is_view_id_in_ref_view_list
	.align	2
	.global	MVC_GenPiclistfromFrmlist_Interview
	.type	MVC_GenPiclistfromFrmlist_Interview, %function
MVC_GenPiclistfromFrmlist_Interview:
	.fnstart
.LFB1606:
	@ args = 4, pretend = 0, frame = 0
	@ frame_needed = 1, uses_anonymous_args = 0
	.movsp ip
	mov	ip, sp	@,
	stmfd	sp!, {r4, r5, r6, r7, fp, ip, lr, pc}	@,
	.pad #4
	.save {r4, r5, r6, r7, fp, ip, lr}
	.setfp fp, ip, #-4
	sub	fp, ip, #4	@,,
	push	{lr}
	bl	__gnu_mcount_nc
	cmp	r0, #1	@ currStrcture,
	ldr	ip, [fp, #4]	@ list_size, list_size
	beq	.L645	@,
	cmp	r0, #2	@ currStrcture,
	ldmnefd	sp, {r4, r5, r6, r7, fp, sp, pc}	@
	cmp	r2, #0	@ list_idx,
	ldmeqfd	sp, {r4, r5, r6, r7, fp, sp, pc}	@
	ldr	r4, [ip, #0]	@ prephitmp.2163,* list_size
	add	r5, r1, #640	@ tmp146, fs_list,
	cmp	r2, #1	@ list_idx,
	sub	r7, r2, #1	@ tmp153, list_idx,
	mov	r6, #1	@ i.2188,
	and	r7, r7, #1	@ tmp155, tmp153,
	str	r5, [r3, r4, asl #2]	@ tmp146,* list
	add	r4, r1, #680	@ ivtmp.2183, fs_list,
	ldr	r5, [ip, #0]	@ tmp147,* list_size
	add	r5, r5, r6	@ prephitmp.2163, tmp147,
	str	r5, [ip, #0]	@ prephitmp.2163,* list_size
	ldmlsfd	sp, {r4, r5, r6, r7, fp, sp, pc}	@
	cmp	r7, #0	@ tmp155,
	beq	.L631	@,
	add	r6, r4, #640	@ tmp180, ivtmp.2183,
	cmp	r2, r0	@ list_idx, i.2188
	str	r6, [r3, r5, asl #2]	@ tmp180,* list
	mov	r6, r0	@ i.2188, currStrcture
	ldr	r0, [ip, #0]	@ tmp181,* list_size
	add	r4, r1, #1360	@ ivtmp.2183, fs_list,
	add	r5, r0, #1	@ prephitmp.2163, tmp181,
	str	r5, [ip, #0]	@ prephitmp.2163,* list_size
	ldmlsfd	sp, {r4, r5, r6, r7, fp, sp, pc}	@
.L631:
	add	r1, r4, #640	@ tmp171, ivtmp.2183,
	str	r1, [r3, r5, asl #2]	@ tmp171,* list
	ldr	r0, [ip, #0]	@ tmp172,* list_size
	add	r1, r4, #1312	@ tmp176, ivtmp.2183,
	add	r6, r6, #2	@ i.2188, i.2188,
	add	r1, r1, #8	@ tmp176, tmp176,
	add	r5, r0, #1	@ prephitmp.2163, tmp172,
	cmp	r2, r6	@ list_idx, i.2188
	str	r5, [ip, #0]	@ prephitmp.2163,* list_size
	add	r4, r4, #1360	@ ivtmp.2183, ivtmp.2183,
	str	r1, [r3, r5, asl #2]	@ tmp176,* list
	ldr	r0, [ip, #0]	@ tmp177,* list_size
	add	r5, r0, #1	@ prephitmp.2163, tmp177,
	str	r5, [ip, #0]	@ prephitmp.2163,* list_size
	bhi	.L631	@,
	ldmfd	sp, {r4, r5, r6, r7, fp, sp, pc}	@
.L645:
	cmp	r2, #0	@ list_idx,
	ldmeqfd	sp, {r4, r5, r6, r7, fp, sp, pc}	@
	ldr	r4, [ip, #0]	@ prephitmp.2189,* list_size
	add	r5, r1, #604	@ tmp144, fs_list,
	cmp	r2, #1	@ list_idx,
	sub	r6, r2, #1	@ tmp148, list_idx,
	and	r6, r6, #1	@ tmp150, tmp148,
	str	r5, [r3, r4, asl #2]	@ tmp144,* list
	add	r4, r1, #680	@ ivtmp.2179, fs_list,
	ldr	r5, [ip, #0]	@ tmp145,* list_size
	add	r5, r5, #1	@ prephitmp.2189, tmp145,
	str	r5, [ip, #0]	@ prephitmp.2189,* list_size
	ldmlsfd	sp, {r4, r5, r6, r7, fp, sp, pc}	@
	cmp	r6, #0	@ tmp150,
	beq	.L630	@,
	add	r4, r4, #604	@ tmp178, ivtmp.2179,
	mov	r0, #2	@ i,
	str	r4, [r3, r5, asl #2]	@ tmp178,* list
	cmp	r2, r0	@ list_idx, i
	ldr	r5, [ip, #0]	@ tmp179,* list_size
	add	r4, r1, #1360	@ ivtmp.2179, fs_list,
	add	r5, r5, #1	@ prephitmp.2189, tmp179,
	str	r5, [ip, #0]	@ prephitmp.2189,* list_size
	ldmlsfd	sp, {r4, r5, r6, r7, fp, sp, pc}	@
.L630:
	add	r1, r4, #604	@ tmp161, ivtmp.2179,
	str	r1, [r3, r5, asl #2]	@ tmp161,* list
	ldr	r5, [ip, #0]	@ tmp162,* list_size
	add	r1, r4, #1280	@ tmp166, ivtmp.2179,
	add	r0, r0, #2	@ i, i,
	add	r1, r1, #4	@ tmp166, tmp166,
	add	r5, r5, #1	@ prephitmp.2189, tmp162,
	cmp	r2, r0	@ list_idx, i
	str	r5, [ip, #0]	@ prephitmp.2189,* list_size
	add	r4, r4, #1360	@ ivtmp.2179, ivtmp.2179,
	str	r1, [r3, r5, asl #2]	@ tmp166,* list
	ldr	r1, [ip, #0]	@ tmp167,* list_size
	add	r5, r1, #1	@ prephitmp.2189, tmp167,
	str	r5, [ip, #0]	@ prephitmp.2189,* list_size
	bhi	.L630	@,
	ldmfd	sp, {r4, r5, r6, r7, fp, sp, pc}	@
	.fnend
	.size	MVC_GenPiclistfromFrmlist_Interview, .-MVC_GenPiclistfromFrmlist_Interview
	.align	2
	.global	MVC_FindNearestPOCPicId
	.type	MVC_FindNearestPOCPicId, %function
MVC_FindNearestPOCPicId:
	.fnstart
.LFB1610:
	@ args = 0, pretend = 0, frame = 0
	@ frame_needed = 1, uses_anonymous_args = 0
	.movsp ip
	mov	ip, sp	@,
	stmfd	sp!, {r3, r4, r5, r6, r7, r8, fp, ip, lr, pc}	@,
	.pad #4
	.save {r3, r4, r5, r6, r7, r8, fp, ip, lr}
	.setfp fp, ip, #-4
	sub	fp, ip, #4	@,,
	push	{lr}
	bl	__gnu_mcount_nc
	movw	r1, #:lower16:11122988	@ tmp143,
	movt	r1, #:upper16:11122988	@ tmp143,
	ldr	r3, [r0, r1]	@ <variable>.DPB.used_size, <variable>.DPB.used_size
	cmp	r3, #0	@ <variable>.DPB.used_size,
	mvneq	r6, #0	@ nearest_pic_id,
	beq	.L648	@,
	movw	r2, #:lower16:11122984	@ tmp146,
	movt	r2, #:upper16:11122984	@ tmp146,
	movw	ip, #:lower16:11151084	@ tmp145,
	movt	ip, #:upper16:11151084	@ tmp145,
	ldr	r5, [r0, r2]	@ D.42128, <variable>.DPB.size
	ldr	r4, [r0, ip]	@ curr_poc, <variable>.CurrPic.thispoc
	cmp	r5, #0	@ D.42128,
	moveq	r6, r5	@ nearest_pic_id, D.42128
	beq	.L648	@,
	movw	r1, #:lower16:11122792	@ tmp148,
	movt	r1, #:upper16:11122792	@ tmp148,
	add	r3, r0, r1	@ tmp148, pMvcCtx, tmp148
	mov	r5, r5, asl #2	@ D.49961, D.42128,
	sub	r6, r5, #4	@ tmp157, D.49961,
	mvn	ip, #-2147483648	@ nearest_poc_diff,
	ldr	r3, [r3, #0]	@ D.42120, <variable>.DPB.fs
	ubfx	r1, r6, #2, #1	@ tmp158, tmp157,,
	mov	r6, #0	@ nearest_pic_id,
	cmp	r3, r6	@ D.42120,
	beq	.L654	@,
	ldr	r2, [r3, #32]	@ <variable>.poc, <variable>.poc
	rsb	r2, r2, r4	@ tmp171, <variable>.poc, curr_poc
	cmp	r2, #0	@ tmp171,
	rsblt	r2, r2, #0	@ new_poc_diff, tmp171
	cmn	r2, #-2147483647	@ new_poc_diff,
	ldrlt	r6, [r3, #268]	@ nearest_pic_id, <variable>.fs_image.image_id
	movlt	ip, r2	@ nearest_poc_diff, new_poc_diff
.L654:
	mov	r3, #4	@ ivtmp.2218,
	cmp	r3, r5	@ ivtmp.2218, D.49961
	beq	.L648	@,
	cmp	r1, #0	@ tmp158,
	beq	.L651	@,
	movw	r2, #:lower16:11122796	@ tmp175,
	movt	r2, #:upper16:11122796	@ tmp175,
	add	r1, r0, r2	@ tmp175, pMvcCtx, tmp175
	ldr	r2, [r1, #0]	@ D.42120, <variable>.DPB.fs
	cmp	r2, #0	@ D.42120,
	beq	.L656	@,
	ldr	r1, [r2, #32]	@ <variable>.poc, <variable>.poc
	rsb	r1, r1, r4	@ tmp178, <variable>.poc, curr_poc
	cmp	r1, #0	@ tmp178,
	rsblt	r1, r1, #0	@ new_poc_diff, tmp178
	cmp	r1, ip	@ new_poc_diff, nearest_poc_diff
	ldrlt	r6, [r2, #268]	@ nearest_pic_id, <variable>.fs_image.image_id
	movlt	ip, r1	@ nearest_poc_diff, new_poc_diff
.L656:
	add	r3, r3, #4	@ ivtmp.2218, ivtmp.2218,
	cmp	r3, r5	@ ivtmp.2218, D.49961
	beq	.L648	@,
.L651:
	movw	r2, #:lower16:11122792	@ tmp163,
	movt	r2, #:upper16:11122792	@ tmp163,
	add	r8, r0, r3	@ tmp161, pMvcCtx, ivtmp.2218
	add	r1, r3, #4	@ tmp159, ivtmp.2218,
	mov	r3, r2	@ tmp168, tmp163
	add	r2, r8, r2	@ tmp163, tmp161, tmp163
	add	r7, r0, r1	@ tmp166, pMvcCtx, tmp159
	ldr	r2, [r2, #0]	@ D.42120, <variable>.DPB.fs
	add	r3, r7, r3	@ tmp168, tmp166, tmp168
	cmp	r2, #0	@ D.42120,
	beq	.L650	@,
	ldr	r7, [r2, #32]	@ <variable>.poc, <variable>.poc
	rsb	r7, r7, r4	@ tmp150, <variable>.poc, curr_poc
	cmp	r7, #0	@ tmp150,
	rsblt	r7, r7, #0	@ new_poc_diff, tmp150
	cmp	r7, ip	@ new_poc_diff, nearest_poc_diff
	ldrlt	r6, [r2, #268]	@ nearest_pic_id, <variable>.fs_image.image_id
	movlt	ip, r7	@ nearest_poc_diff, new_poc_diff
.L650:
	ldr	r3, [r3, #0]	@ D.42120, <variable>.DPB.fs
	cmp	r3, #0	@ D.42120,
	beq	.L659	@,
	ldr	r2, [r3, #32]	@ <variable>.poc, <variable>.poc
	rsb	r2, r2, r4	@ tmp181, <variable>.poc, curr_poc
	cmp	r2, #0	@ tmp181,
	rsblt	r2, r2, #0	@ new_poc_diff, tmp181
	cmp	r2, ip	@ new_poc_diff, nearest_poc_diff
	ldrlt	r6, [r3, #268]	@ nearest_pic_id, <variable>.fs_image.image_id
	movlt	ip, r2	@ nearest_poc_diff, new_poc_diff
.L659:
	add	r3, r1, #4	@ ivtmp.2218, tmp159,
	cmp	r3, r5	@ ivtmp.2218, D.49961
	bne	.L651	@,
.L648:
	mov	r0, r6	@, nearest_pic_id
	ldmfd	sp, {r3, r4, r5, r6, r7, r8, fp, sp, pc}	@
	.fnend
	.size	MVC_FindNearestPOCPicId, .-MVC_FindNearestPOCPicId
	.align	2
	.global	MVC_FindMinRefIdx
	.type	MVC_FindMinRefIdx, %function
MVC_FindMinRefIdx:
	.fnstart
.LFB1611:
	@ args = 0, pretend = 0, frame = 0
	@ frame_needed = 1, uses_anonymous_args = 0
	.movsp ip
	mov	ip, sp	@,
	stmfd	sp!, {r3, r4, r5, r6, r7, r8, r9, sl, fp, ip, lr, pc}	@,
	.pad #4
	.save {r3, r4, r5, r6, r7, r8, r9, sl, fp, ip, lr}
	.setfp fp, ip, #-4
	sub	fp, ip, #4	@,,
	push	{lr}
	bl	__gnu_mcount_nc
	movw	r1, #:lower16:11117032	@ tmp154,
	movt	r1, #:upper16:11117032	@ tmp154,
	mov	r8, r0	@ pMvcCtx, pMvcCtx
	ldrb	r3, [r0, r1]	@ zero_extendqisi2	@ <variable>.CurrSlice.slice_type, <variable>.CurrSlice.slice_type
	cmp	r3, #2	@ <variable>.CurrSlice.slice_type,
	ldmeqfd	sp, {r3, r4, r5, r6, r7, r8, r9, sl, fp, sp, pc}	@
	movw	r2, #:lower16:11150555	@ tmp156,
	movt	r2, #:upper16:11150555	@ tmp156,
	ldrb	r0, [r0, r2]	@ zero_extendqisi2	@ <variable>.CurrPic.structure, <variable>.CurrPic.structure
	cmp	r0, #0	@ <variable>.CurrPic.structure,
	bne	.L704	@,
	movw	r9, #:lower16:11117080	@ tmp160,
	movw	r5, #:lower16:11123220	@ ivtmp.2269,
	movt	r9, #:upper16:11117080	@ tmp160,
	movt	r5, #:upper16:11123220	@ ivtmp.2269,
	add	r5, r8, r5	@ ivtmp.2269, pMvcCtx, ivtmp.2269
	mov	sl, r9	@ tmp178, tmp160
	ldr	r7, [r8, r9]	@ D.42161, <variable>.CurrSlice.listXsize
	mov	r9, r0	@ j, i
.L668:
	cmp	r7, #0	@ D.42161,
	beq	.L672	@,
	ldr	ip, [r8, #256]	@ tmp203, <variable>.pListX
	mov	r1, #32	@ minrefidx,
	ldr	r6, [r8, sl]	@ temp.2287, <variable>.CurrSlice.listXsize
	ldr	r3, [ip, #4]	@ <variable>.frame_store, <variable>.frame_store
	sub	r2, r6, #1	@ tmp186, temp.2287,
	and	r2, r2, #1	@ tmp188, tmp186,
	ldr	ip, [r3, #52]	@ <variable>.apc_idc, <variable>.apc_idc
	cmp	ip, r0	@ <variable>.apc_idc, i
	beq	.L705	@,
.L680:
	mov	r3, #1	@ j,
	cmp	r6, r3	@ temp.2287, j
	add	ip, r8, #4	@ ivtmp.2263, pMvcCtx,
	bls	.L700	@,
	cmp	r2, #0	@ tmp188,
	beq	.L670	@,
	ldr	r2, [ip, #256]	@ tmp224, <variable>.pListX
	ldr	r2, [r2, #4]	@ <variable>.frame_store, <variable>.frame_store
	ldr	r2, [r2, #52]	@ <variable>.apc_idc, <variable>.apc_idc
	cmp	r2, r0	@ <variable>.apc_idc, i
	beq	.L706	@,
.L682:
	add	r3, r3, #1	@ j, j,
	add	ip, ip, #4	@ ivtmp.2263, ivtmp.2263,
	cmp	r6, r3	@ temp.2287, j
	bhi	.L670	@,
	b	.L700	@
.L669:
	ldr	r3, [r2, #256]	@ tmp198, <variable>.pListX
	ldr	r3, [r3, #4]	@ <variable>.frame_store, <variable>.frame_store
	ldr	r3, [r3, #52]	@ <variable>.apc_idc, <variable>.apc_idc
	cmp	r3, r0	@ <variable>.apc_idc, i
	beq	.L707	@,
.L685:
	add	r3, ip, #1	@ j, tmp189,
	add	ip, r2, #4	@ ivtmp.2263, tmp190,
	cmp	r6, r3	@ temp.2287, j
	bls	.L700	@,
.L670:
	ldr	r4, [ip, #256]	@ tmp162, <variable>.pListX
	add	r2, ip, #4	@ tmp190, ivtmp.2263,
	add	ip, r3, #1	@ tmp189, j,
	ldr	r4, [r4, #4]	@ <variable>.frame_store, <variable>.frame_store
	ldr	r4, [r4, #52]	@ <variable>.apc_idc, <variable>.apc_idc
	cmp	r4, r0	@ <variable>.apc_idc, i
	bne	.L669	@,
	cmp	r1, r3	@ minrefidx, j
	movcs	r1, r3	@ minrefidx, j
	ldr	r3, [r2, #256]	@ tmp198, <variable>.pListX
	str	r1, [r5, #0]	@ minrefidx, <variable>.APC.RefIdx
	str	r1, [r5, #4]	@ minrefidx, <variable>.APC.RefIdx
	ldr	r3, [r3, #4]	@ <variable>.frame_store, <variable>.frame_store
	ldr	r3, [r3, #52]	@ <variable>.apc_idc, <variable>.apc_idc
	cmp	r3, r0	@ <variable>.apc_idc, i
	bne	.L685	@,
.L707:
	add	r3, ip, #1	@ j, tmp189,
	cmp	r1, ip	@ minrefidx, tmp189
	movcs	r1, ip	@ minrefidx, tmp189
	cmp	r6, r3	@ temp.2287, j
	str	r1, [r5, #0]	@ minrefidx, <variable>.APC.RefIdx
	str	r1, [r5, #4]	@ minrefidx, <variable>.APC.RefIdx
	add	ip, r2, #4	@ ivtmp.2263, tmp190,
	bhi	.L670	@,
.L700:
	cmp	r1, #31	@ minrefidx,
	bls	.L671	@,
.L672:
	str	r9, [r5, #0]	@ j, <variable>.APC.RefIdx
	str	r9, [r5, #4]	@ j, <variable>.APC.RefIdx
.L671:
	add	r0, r0, #1	@ i, i,
	add	r5, r5, #8	@ ivtmp.2269, ivtmp.2269,
	cmp	r0, #16	@ i,
	bne	.L668	@,
	ldmfd	sp, {r3, r4, r5, r6, r7, r8, r9, sl, fp, sp, pc}	@
.L704:
	movw	r0, #:lower16:11117080	@ tmp158,
	movt	r0, #:upper16:11117080	@ tmp158,
	movw	r7, #:lower16:11123220	@ ivtmp.2283,
	movt	r7, #:upper16:11123220	@ ivtmp.2283,
	ldr	sl, [r8, r0]	@ temp.2289, <variable>.CurrSlice.listXsize
	add	r7, r8, r7	@ ivtmp.2283, pMvcCtx, ivtmp.2283
	mov	ip, #0	@ i.2294,
	mov	r9, r0	@ tmp182, tmp158
.L667:
	cmp	sl, #0	@ temp.2289,
	beq	.L676	@,
	ldr	r3, [r8, #256]	@ temp.2290, <variable>.pListX
	mov	r5, #32	@ minrefidx.2286,
	ldr	r6, [r8, r9]	@ temp.2288, <variable>.CurrSlice.listXsize
	ldr	r0, [r3, #4]	@ <variable>.frame_store, <variable>.frame_store
	sub	r2, r6, #1	@ tmp191, temp.2288,
	ldrb	r1, [r3, #0]	@ zero_extendqisi2	@ <variable>.structure, <variable>.structure
	and	r2, r2, #1	@ tmp193, tmp191,
	ldr	r3, [r0, #52]	@ <variable>.apc_idc, <variable>.apc_idc
	mov	r3, r3, asl #1	@ tmp222, <variable>.apc_idc,
	cmp	r1, #2	@ <variable>.structure,
	orreq	r3, r3, #1	@,, tmp223, tmp222
	cmp	r3, ip	@ tmp223, i.2294
	beq	.L708	@,
.L687:
	mov	r3, #1	@ j.2293,
	cmp	r6, r3	@ temp.2288, j.2293
	add	r1, r8, #4	@ ivtmp.2277, pMvcCtx,
	bls	.L701	@,
	cmp	r2, #0	@ tmp193,
	beq	.L674	@,
	ldr	r2, [r1, #256]	@ temp.2290, <variable>.pListX
	ldr	r0, [r2, #4]	@ <variable>.frame_store, <variable>.frame_store
	ldrb	r4, [r2, #0]	@ zero_extendqisi2	@ <variable>.structure, <variable>.structure
	ldr	r2, [r0, #52]	@ <variable>.apc_idc, <variable>.apc_idc
	mov	r0, r2, asl r3	@ tmp232, <variable>.apc_idc,
	cmp	r4, #2	@ <variable>.structure,
	orreq	r0, r0, #1	@,, tmp233, tmp232
	cmp	r0, ip	@ tmp233, i.2294
	beq	.L709	@,
.L689:
	add	r3, r3, #1	@ j.2293, j.2293,
	add	r1, r1, #4	@ ivtmp.2277, ivtmp.2277,
	cmp	r6, r3	@ temp.2288, j.2293
	bhi	.L674	@,
	b	.L701	@
.L673:
	ldr	r3, [r2, #256]	@ temp.2290, <variable>.pListX
	ldr	r1, [r3, #4]	@ <variable>.frame_store, <variable>.frame_store
	ldrb	r4, [r3, #0]	@ zero_extendqisi2	@ <variable>.structure, <variable>.structure
	ldr	r3, [r1, #52]	@ <variable>.apc_idc, <variable>.apc_idc
	mov	r3, r3, asl #1	@ tmp213, <variable>.apc_idc,
	cmp	r4, #2	@ <variable>.structure,
	orreq	r3, r3, #1	@,, tmp214, tmp213
	cmp	r3, ip	@ tmp214, i.2294
	beq	.L710	@,
	add	r3, r0, #1	@ j.2293, tmp194,
	add	r1, r2, #4	@ ivtmp.2277, tmp195,
	cmp	r6, r3	@ temp.2288, j.2293
	bls	.L701	@,
.L674:
	add	r2, r1, #4	@ tmp195, ivtmp.2277,
	ldr	r1, [r1, #256]	@ temp.2290, <variable>.pListX
	add	r0, r3, #1	@ tmp194, j.2293,
	ldr	r4, [r1, #4]	@ <variable>.frame_store, <variable>.frame_store
	ldrb	r1, [r1, #0]	@ zero_extendqisi2	@ <variable>.structure, <variable>.structure
	ldr	r4, [r4, #52]	@ <variable>.apc_idc, <variable>.apc_idc
	mov	r4, r4, asl #1	@ tmp172, <variable>.apc_idc,
	cmp	r1, #2	@ <variable>.structure,
	movne	r1, r4	@, tmp174, tmp172
	orreq	r1, r4, #1	@,, tmp174, tmp172
	cmp	r1, ip	@ tmp174, i.2294
	bne	.L673	@,
	cmp	r5, r3	@ minrefidx.2286, j.2293
	movcs	r5, r3	@ minrefidx.2286, j.2293
	str	r5, [r7, #0]	@ minrefidx.2286, <variable>.APC.RefIdx
	b	.L673	@
.L710:
	add	r3, r0, #1	@ j.2293, tmp194,
	cmp	r5, r0	@ minrefidx.2286, tmp194
	movcs	r5, r0	@ minrefidx.2286, tmp194
	cmp	r6, r3	@ temp.2288, j.2293
	str	r5, [r7, #0]	@ minrefidx.2286, <variable>.APC.RefIdx
	add	r1, r2, #4	@ ivtmp.2277, tmp195,
	bhi	.L674	@,
.L701:
	cmp	r5, #31	@ minrefidx.2286,
	bls	.L675	@,
.L676:
	mov	r0, #0	@,
	str	r0, [r7, #0]	@, <variable>.APC.RefIdx
.L675:
	add	ip, ip, #1	@ i.2294, i.2294,
	add	r7, r7, #4	@ ivtmp.2283, ivtmp.2283,
	cmp	ip, #32	@ i.2294,
	bne	.L667	@,
	ldmfd	sp, {r3, r4, r5, r6, r7, r8, r9, sl, fp, sp, pc}	@
.L708:
	mov	r5, #0	@ minrefidx.2286,
	str	r5, [r7, #0]	@ minrefidx.2286, <variable>.APC.RefIdx
	b	.L687	@
.L709:
	cmp	r5, r3	@ minrefidx.2286, j.2293
	movcs	r5, r3	@ minrefidx.2286, j.2293
	str	r5, [r7, #0]	@ minrefidx.2286, <variable>.APC.RefIdx
	b	.L689	@
.L705:
	mov	r1, #0	@ minrefidx,
	str	r1, [r5, #0]	@ minrefidx, <variable>.APC.RefIdx
	str	r1, [r5, #4]	@ minrefidx, <variable>.APC.RefIdx
	b	.L680	@
.L706:
	cmp	r1, r3	@ minrefidx, j
	movcs	r1, r3	@ minrefidx, j
	str	r1, [r5, #0]	@ minrefidx, <variable>.APC.RefIdx
	str	r1, [r5, #4]	@ minrefidx, <variable>.APC.RefIdx
	b	.L682	@
	.fnend
	.size	MVC_FindMinRefIdx, .-MVC_FindMinRefIdx
	.align	2
	.global	MVC_NoPicOut
	.type	MVC_NoPicOut, %function
MVC_NoPicOut:
	.fnstart
.LFB1613:
	@ args = 0, pretend = 0, frame = 0
	@ frame_needed = 1, uses_anonymous_args = 0
	.movsp ip
	mov	ip, sp	@,
	stmfd	sp!, {r4, r5, fp, ip, lr, pc}	@,
	.pad #4
	.save {r4, r5, fp, ip, lr}
	.setfp fp, ip, #-4
	sub	fp, ip, #4	@,,
	push	{lr}
	bl	__gnu_mcount_nc
	ldr	r5, [r0, #48]	@ D.42213, <variable>.TotalFsNum
	cmp	r5, #0	@ D.42213,
	beq	.L712	@,
	movw	r3, #:lower16:11123359	@ ivtmp.2326,
	movt	r3, #:upper16:11123359	@ ivtmp.2326,
	add	r3, r0, r3	@ ivtmp.2326, pMvcCtx, ivtmp.2326
	sub	r4, r5, #1	@ tmp155, D.42213,
	and	r1, r4, #1	@ tmp157, tmp155,
	mov	ip, #0	@ tmp149,
	ldrb	r2, [r3, #0]	@ zero_extendqisi2	@ <variable>.is_displayed, <variable>.is_displayed
	cmp	r2, #1	@ <variable>.is_displayed,
	beq	.L725	@,
	ldrb	r2, [r3, #-2]	@ zero_extendqisi2	@ <variable>.is_in_dpb, <variable>.is_in_dpb
	cmp	r2, #1	@ <variable>.is_in_dpb,
	beq	.L725	@,
.L726:
	mov	r2, #1	@ i,
	cmp	r2, r5	@ i, D.42213
	add	r3, r3, #680	@ ivtmp.2326, ivtmp.2326,
	bcs	.L712	@,
	cmp	r1, #0	@ tmp157,
	beq	.L715	@,
	ldrb	r4, [r3, #0]	@ zero_extendqisi2	@ <variable>.is_displayed, <variable>.is_displayed
	cmp	r4, r2	@ <variable>.is_displayed,
	beq	.L728	@,
	ldrb	r1, [r3, #-2]	@ zero_extendqisi2	@ <variable>.is_in_dpb, <variable>.is_in_dpb
	cmp	r1, #1	@ <variable>.is_in_dpb,
	beq	.L728	@,
	add	r2, r2, #1	@ i, i,
	add	r3, r3, #680	@ ivtmp.2326, ivtmp.2326,
	cmp	r2, r5	@ i, D.42213
	bcc	.L715	@,
.L712:
	ldr	r4, [r0, #52]	@ D.42214, <variable>.TotalPmvNum
	cmp	r4, #0	@ D.42214,
	ldmeqfd	sp, {r4, r5, fp, sp, pc}	@
	mov	r3, #1	@ i.2332,
	cmp	r3, r4	@ i.2332, D.42214
	sub	r1, r4, #1	@ tmp150, D.42214,
	mov	ip, #0	@ tmp148,
	add	r2, r0, #4	@ ivtmp.2323, pMvcCtx,
	and	r1, r1, r3	@ tmp152, tmp150,
	str	ip, [r0, #148]	@ tmp148, <variable>.PmvStoreUsedFlag
	ldmcsfd	sp, {r4, r5, fp, sp, pc}	@
	cmp	r1, #0	@ tmp152,
	beq	.L717	@,
	mov	r3, #2	@ i.2332,
	cmp	r3, r4	@ i.2332, D.42214
	str	ip, [r2, #148]	@ tmp148, <variable>.PmvStoreUsedFlag
	add	r2, r2, #4	@ ivtmp.2323, ivtmp.2323,
	ldmcsfd	sp, {r4, r5, fp, sp, pc}	@
.L717:
	add	r3, r3, #2	@ i.2332, i.2332,
	add	r0, r2, #4	@ tmp154, ivtmp.2323,
	cmp	r3, r4	@ i.2332, D.42214
	str	ip, [r2, #148]	@ tmp148, <variable>.PmvStoreUsedFlag
	str	ip, [r0, #148]	@ tmp148, <variable>.PmvStoreUsedFlag
	add	r2, r0, #4	@ ivtmp.2323, tmp154,
	bcc	.L717	@,
	ldmfd	sp, {r4, r5, fp, sp, pc}	@
.L740:
	ldrb	r4, [r3, #-2]	@ zero_extendqisi2	@ <variable>.is_in_dpb, <variable>.is_in_dpb
	cmp	r4, #1	@ <variable>.is_in_dpb,
	beq	.L713	@,
	ldrb	r4, [r3, #680]	@ zero_extendqisi2	@ <variable>.is_displayed, <variable>.is_displayed
	cmp	r4, #1	@ <variable>.is_displayed,
	beq	.L732	@,
.L738:
	ldrb	r3, [r3, #678]	@ zero_extendqisi2	@ <variable>.is_in_dpb, <variable>.is_in_dpb
	cmp	r3, #1	@ <variable>.is_in_dpb,
	beq	.L732	@,
.L733:
	add	r2, r2, #1	@ i, tmp158,
	add	r3, r1, #680	@ ivtmp.2326, tmp159,
	cmp	r2, r5	@ i, D.42213
	bcs	.L712	@,
.L715:
	ldrb	r4, [r3, #0]	@ zero_extendqisi2	@ <variable>.is_displayed, <variable>.is_displayed
	add	r2, r2, #1	@ tmp158, i,
	add	r1, r3, #680	@ tmp159, ivtmp.2326,
	cmp	r4, #1	@ <variable>.is_displayed,
	bne	.L740	@,
.L713:
	ldrb	r4, [r3, #680]	@ zero_extendqisi2	@ <variable>.is_displayed, <variable>.is_displayed
	strb	ip, [r3, #-5]	@ tmp149, <variable>.is_used
	cmp	r4, #1	@ <variable>.is_displayed,
	strb	ip, [r3, #-4]	@ tmp149, <variable>.is_reference
	bne	.L738	@,
.L732:
	strb	ip, [r1, #-5]	@ tmp149, <variable>.is_used
	strb	ip, [r1, #-4]	@ tmp149, <variable>.is_reference
	b	.L733	@
.L728:
	add	r2, r2, #1	@ i, i,
	strb	ip, [r3, #-5]	@ tmp149, <variable>.is_used
	cmp	r2, r5	@ i, D.42213
	strb	ip, [r3, #-4]	@ tmp149, <variable>.is_reference
	add	r3, r3, #680	@ ivtmp.2326, ivtmp.2326,
	bcc	.L715	@,
	b	.L712	@
.L725:
	strb	ip, [r3, #-5]	@ tmp149, <variable>.is_used
	strb	ip, [r3, #-4]	@ tmp149, <variable>.is_reference
	b	.L726	@
	.fnend
	.size	MVC_NoPicOut, .-MVC_NoPicOut
	.align	2
	.global	mvc_wait_vo
	.type	mvc_wait_vo, %function
mvc_wait_vo:
	.fnstart
.LFB1616:
	@ args = 0, pretend = 0, frame = 0
	@ frame_needed = 1, uses_anonymous_args = 0
	.movsp ip
	mov	ip, sp	@,
	stmfd	sp!, {fp, ip, lr, pc}	@,
	.pad #4
	.save {fp, ip, lr}
	.setfp fp, ip, #-4
	sub	fp, ip, #4	@,,
	push	{lr}
	bl	__gnu_mcount_nc
	ldmfd	sp, {fp, sp, pc}	@
	.fnend
	.size	mvc_wait_vo, .-mvc_wait_vo
	.align	2
	.global	MVC_RoundLog2
	.type	MVC_RoundLog2, %function
MVC_RoundLog2:
	.fnstart
.LFB1617:
	@ args = 0, pretend = 0, frame = 0
	@ frame_needed = 1, uses_anonymous_args = 0
	.movsp ip
	mov	ip, sp	@,
	stmfd	sp!, {fp, ip, lr, pc}	@,
	.pad #4
	.save {fp, ip, lr}
	.setfp fp, ip, #-4
	sub	fp, ip, #4	@,,
	push	{lr}
	bl	__gnu_mcount_nc
	mul	r0, r0, r0	@ iValue_square, iValue, iValue
	mov	r3, #0	@ iRet,
	mov	r2, #1	@ tmp140,
.L744:
	add	r3, r3, #1	@ iRet, iRet,
	cmp	r0, r2, asl r3	@ iValue_square, tmp140,
	bge	.L744	@,
	mov	r0, r3, asr #1	@, iRet,
	ldmfd	sp, {fp, sp, pc}	@
	.fnend
	.size	MVC_RoundLog2, .-MVC_RoundLog2
	.global	__aeabi_uidiv
	.global	__aeabi_uidivmod
	.align	2
	.global	MVC_DecPOC
	.type	MVC_DecPOC, %function
MVC_DecPOC:
	.fnstart
.LFB1619:
	@ args = 0, pretend = 0, frame = 0
	@ frame_needed = 1, uses_anonymous_args = 0
	.movsp ip
	mov	ip, sp	@,
	stmfd	sp!, {r3, r4, r5, r6, r7, r8, fp, ip, lr, pc}	@,
	.pad #4
	.save {r3, r4, r5, r6, r7, r8, fp, ip, lr}
	.setfp fp, ip, #-4
	sub	fp, ip, #4	@,,
	push	{lr}
	bl	__gnu_mcount_nc
	ldr	r5, [r0, #236]	@ sps, <variable>.pCurrSPS
	movw	r3, #:lower16:11117035	@ tmp169,
	movt	r3, #:upper16:11117035	@ tmp169,
	mov	r4, r0	@ pMvcCtx, pMvcCtx
	mov	r2, #1	@ tmp174,
	ldrb	r1, [r0, r3]	@ zero_extendqisi2	@ <variable>.CurrSlice.nal_unit_type, <variable>.CurrSlice.nal_unit_type
	ldr	r3, [r5, #2900]	@ <variable>.pic_order_cnt_type, <variable>.pic_order_cnt_type
	ldr	r0, [r5, #2896]	@ <variable>.log2_max_frame_num_minus4, <variable>.log2_max_frame_num_minus4
	cmp	r1, #5	@ <variable>.CurrSlice.nal_unit_type,
	movne	r1, #0	@, tmp171
	moveq	r1, #1	@, tmp171
	cmp	r3, r2	@ <variable>.pic_order_cnt_type,
	ldr	ip, [r5, #2904]	@ D.42449, <variable>.log2_max_pic_order_cnt_lsb_minus4
	add	r0, r0, #4	@ tmp172, <variable>.log2_max_frame_num_minus4,
	mov	r0, r2, asl r0	@ MaxFrameNum, tmp174,
	beq	.L750	@,
	bcs	.L803	@,
	cmp	r1, #0	@ tmp171,
	add	ip, ip, #4	@ tmp176, D.42449,
	mov	r2, r2, asl ip	@ MaxPicOrderCntLsb, tmp174,
	bne	.L804	@,
	movw	r0, #:lower16:11115896	@ tmp182,
	movt	r0, #:upper16:11115896	@ tmp182,
	ldrsb	ip, [r4, r0]	@ <variable>.CurrPOC.last_has_mmco_5, <variable>.CurrPOC.last_has_mmco_5
	cmp	ip, #0	@ <variable>.CurrPOC.last_has_mmco_5,
	bne	.L754	@,
	movw	r3, #:lower16:11115908	@ tmp185,
	movt	r3, #:upper16:11115908	@ tmp185,
	movw	r5, #:lower16:11115912	@ tmp184,
	movt	r5, #:upper16:11115912	@ tmp184,
	ldr	ip, [r4, r3]	@ prephitmp.2419, <variable>.CurrPOC.PrevPicOrderCntMsb
	ldr	r3, [r4, r5]	@ prephitmp.2417, <variable>.CurrPOC.PrevPicOrderCntLsb
	mov	r5, ip	@ prephitmp.2421, prephitmp.2419
.L755:
	movw	r1, #:lower16:11115900	@ tmp196,
	movt	r1, #:upper16:11115900	@ tmp196,
	ldr	r0, [r4, r1]	@ D.42472, <variable>.CurrPOC.pic_order_cnt_lsb
	cmp	r0, r3	@ D.42472, prephitmp.2417
	bcs	.L757	@,
	rsb	r1, r0, r3	@ tmp197, D.42472, prephitmp.2417
	cmp	r1, r2, lsr #1	@ tmp197, MaxPicOrderCntLsb,
	bcc	.L757	@,
	add	r2, r5, r2	@ D.42481, prephitmp.2421, MaxPicOrderCntLsb
	movw	r3, #:lower16:11115916	@ tmp200,
	movt	r3, #:upper16:11115916	@ tmp200,
	mov	r1, r2	@ prephitmp.2487, D.42481
	str	r2, [r4, r3]	@ D.42481, <variable>.CurrPOC.PicOrderCntMsb
.L760:
	movw	r0, #:lower16:11117033	@ tmp206,
	movt	r0, #:upper16:11117033	@ tmp206,
	ldrb	ip, [r4, r0]	@ zero_extendqisi2	@ <variable>.CurrSlice.field_pic_flag, <variable>.CurrSlice.field_pic_flag
	cmp	ip, #0	@ <variable>.CurrSlice.field_pic_flag,
	bne	.L762	@,
.L807:
	movw	r2, #:lower16:11115900	@ tmp208,
	movt	r2, #:upper16:11115900	@ tmp208,
	movw	r3, #:lower16:11115904	@ tmp211,
	movt	r3, #:upper16:11115904	@ tmp211,
	ldr	r5, [r4, r2]	@ <variable>.CurrPOC.pic_order_cnt_lsb, <variable>.CurrPOC.pic_order_cnt_lsb
	movw	ip, #:lower16:11115920	@ tmp210,
	ldr	r6, [r4, r3]	@ <variable>.CurrPOC.delta_pic_order_cnt_bottom, <variable>.CurrPOC.delta_pic_order_cnt_bottom
	movt	ip, #:upper16:11115920	@ tmp210,
	add	r5, r1, r5	@ D.42495, prephitmp.2487, <variable>.CurrPOC.pic_order_cnt_lsb
	movw	r0, #:lower16:11115924	@ tmp213,
	movw	r2, #:lower16:11115928	@ tmp214,
	movt	r0, #:upper16:11115924	@ tmp213,
	movt	r2, #:upper16:11115928	@ tmp214,
	movw	r3, #:lower16:11115932	@ tmp215,
	movt	r3, #:upper16:11115932	@ tmp215,
	add	r6, r5, r6	@ D.42497, D.42495, <variable>.CurrPOC.delta_pic_order_cnt_bottom
	cmp	r6, r5	@ D.42497, D.42495
	movlt	r1, r6	@ prephitmp.2412, D.42497
	movge	r1, r5	@ prephitmp.2412, D.42495
	str	r5, [r4, ip]	@ D.42495, <variable>.CurrPOC.toppoc
	str	r6, [r4, r0]	@ D.42497, <variable>.CurrPOC.bottompoc
	str	r1, [r4, r2]	@ prephitmp.2412,
	str	r1, [r4, r3]	@ prephitmp.2412, <variable>.CurrPOC.ThisPOC
.L763:
	movw	r2, #:lower16:11115952	@ tmp227,
	movt	r2, #:upper16:11115952	@ tmp227,
	movw	r3, #:lower16:11115948	@ tmp228,
	movt	r3, #:upper16:11115948	@ tmp228,
	ldr	r0, [r4, r2]	@ D.42507, <variable>.CurrPOC.frame_num
	movw	r2, #:lower16:11115928	@ tmp226,
	movt	r2, #:upper16:11115928	@ tmp226,
	ldr	ip, [r4, r3]	@ <variable>.CurrPOC.PreviousFrameNum, <variable>.CurrPOC.PreviousFrameNum
	str	r1, [r4, r2]	@ prephitmp.2412, <variable>.CurrPOC.framepoc
	movw	r2, #:lower16:11117040	@ tmp231,
	movt	r2, #:upper16:11117040	@ tmp231,
	cmp	r0, ip	@ D.42507, <variable>.CurrPOC.PreviousFrameNum
	strne	r0, [r4, r3]	@ D.42507, <variable>.CurrPOC.PreviousFrameNum
	ldrb	r1, [r4, r2]	@ zero_extendqisi2	@ <variable>.CurrSlice.nal_ref_idc, <variable>.CurrSlice.nal_ref_idc
	cmp	r1, #0	@ <variable>.CurrSlice.nal_ref_idc,
	ldmeqfd	sp, {r3, r4, r5, r6, r7, r8, fp, sp, pc}	@
	movw	r2, #:lower16:11115900	@ tmp234,
	movw	r3, #:lower16:11115916	@ tmp237,
	movt	r2, #:upper16:11115900	@ tmp234,
	movt	r3, #:upper16:11115916	@ tmp237,
	movw	ip, #:lower16:11115912	@ tmp233,
	movt	ip, #:upper16:11115912	@ tmp233,
	ldr	r1, [r4, r3]	@ <variable>.CurrPOC.PicOrderCntMsb, <variable>.CurrPOC.PicOrderCntMsb
	movw	r3, #:lower16:11115908	@ tmp236,
	ldr	r0, [r4, r2]	@ <variable>.CurrPOC.pic_order_cnt_lsb, <variable>.CurrPOC.pic_order_cnt_lsb
	movt	r3, #:upper16:11115908	@ tmp236,
	str	r0, [r4, ip]	@ <variable>.CurrPOC.pic_order_cnt_lsb,
	str	r1, [r4, r3]	@ <variable>.CurrPOC.PicOrderCntMsb,
	ldmfd	sp, {r3, r4, r5, r6, r7, r8, fp, sp, pc}	@
.L803:
	cmp	r3, #2	@ <variable>.pic_order_cnt_type,
	ldmnefd	sp, {r3, r4, r5, r6, r7, r8, fp, sp, pc}	@
	cmp	r1, #0	@ tmp171,
	bne	.L805	@,
	movw	r3, #:lower16:11115896	@ tmp345,
	movt	r3, #:upper16:11115896	@ tmp345,
	ldrsb	r2, [r4, r3]	@ <variable>.CurrPOC.last_has_mmco_5, <variable>.CurrPOC.last_has_mmco_5
	cmp	r2, #0	@ <variable>.CurrPOC.last_has_mmco_5,
	bne	.L786	@,
	movw	r3, #:lower16:11115948	@ tmp348,
	movw	r2, #:lower16:11115952	@ tmp349,
	movt	r3, #:upper16:11115948	@ tmp348,
	movt	r2, #:upper16:11115952	@ tmp349,
	ldr	r1, [r4, r3]	@ <variable>.CurrPOC.PreviousFrameNum, <variable>.CurrPOC.PreviousFrameNum
	movw	r3, #:lower16:11115960	@ tmp347,
	ldr	ip, [r4, r2]	@ <variable>.CurrPOC.frame_num, <variable>.CurrPOC.frame_num
	movt	r3, #:upper16:11115960	@ tmp347,
	cmp	r1, ip	@ <variable>.CurrPOC.PreviousFrameNum, <variable>.CurrPOC.frame_num
	ldr	ip, [r4, r3]	@ prephitmp.2407, <variable>.CurrPOC.PrevFrameNumOffset
	bls	.L788	@,
	movw	r1, #:lower16:11115956	@ tmp356,
	movt	r1, #:upper16:11115956	@ tmp356,
	add	ip, ip, r0	@ prephitmp.2407, prephitmp.2407, MaxFrameNum
	str	ip, [r4, r1]	@ prephitmp.2407, <variable>.CurrPOC.FrameNumOffset
.L789:
	movw	r3, #:lower16:11117040	@ tmp361,
	movt	r3, #:upper16:11117040	@ tmp361,
	movw	r1, #:lower16:11115952	@ tmp358,
	movt	r1, #:upper16:11115952	@ tmp358,
	ldrb	r0, [r4, r3]	@ zero_extendqisi2	@ <variable>.CurrSlice.nal_ref_idc, <variable>.CurrSlice.nal_ref_idc
	movw	r3, #:lower16:11115944	@ tmp360,
	ldr	r2, [r4, r1]	@ <variable>.CurrPOC.frame_num, <variable>.CurrPOC.frame_num
	movt	r3, #:upper16:11115944	@ tmp360,
	cmp	r0, #0	@ <variable>.CurrSlice.nal_ref_idc,
	movw	r0, #:lower16:11117033	@ tmp366,
	movt	r0, #:upper16:11117033	@ tmp366,
	add	r1, ip, r2	@ temp.2477, prephitmp.2407, <variable>.CurrPOC.frame_num
	str	r1, [r4, r3]	@ temp.2477, <variable>.CurrPOC.AbsFrameNum
	movw	ip, #:lower16:11115932	@ tmp364,
	ldrb	r3, [r4, r0]	@ zero_extendqisi2	@ <variable>.CurrSlice.field_pic_flag, <variable>.CurrSlice.field_pic_flag
	mov	r2, r1, asl #1	@ tmp363, temp.2477,
	subeq	r2, r2, #1	@ prephitmp.2479, tmp363,
	movt	ip, #:upper16:11115932	@ tmp364,
	cmp	r3, #0	@ <variable>.CurrSlice.field_pic_flag,
	str	r2, [r4, ip]	@ prephitmp.2479, <variable>.CurrPOC.ThisPOC
	bne	.L792	@,
	movw	r0, #:lower16:11115928	@ tmp368,
	movw	ip, #:lower16:11115924	@ tmp369,
	movt	r0, #:upper16:11115928	@ tmp368,
	movt	ip, #:upper16:11115924	@ tmp369,
	movw	r1, #:lower16:11115920	@ tmp370,
	movt	r1, #:upper16:11115920	@ tmp370,
	str	r2, [r4, r0]	@ prephitmp.2479, <variable>.CurrPOC.framepoc
	str	r2, [r4, r1]	@ prephitmp.2479,
	str	r2, [r4, ip]	@ prephitmp.2479,
.L785:
	movw	ip, #:lower16:11115952	@ tmp378,
	movw	r1, #:lower16:11115956	@ tmp381,
	movt	ip, #:upper16:11115952	@ tmp378,
	movt	r1, #:upper16:11115956	@ tmp381,
	movw	r2, #:lower16:11115948	@ tmp377,
	movw	r3, #:lower16:11115960	@ tmp380,
	ldr	r0, [r4, ip]	@ <variable>.CurrPOC.frame_num, <variable>.CurrPOC.frame_num
	movt	r2, #:upper16:11115948	@ tmp377,
	ldr	ip, [r4, r1]	@ <variable>.CurrPOC.FrameNumOffset, <variable>.CurrPOC.FrameNumOffset
	movt	r3, #:upper16:11115960	@ tmp380,
	str	r0, [r4, r2]	@ <variable>.CurrPOC.frame_num,
	str	ip, [r4, r3]	@ <variable>.CurrPOC.FrameNumOffset,
	ldmfd	sp, {r3, r4, r5, r6, r7, r8, fp, sp, pc}	@
.L750:
	cmp	r1, #0	@ tmp171,
	bne	.L806	@,
	movw	ip, #:lower16:11115896	@ tmp241,
	movt	ip, #:upper16:11115896	@ tmp241,
	ldrsb	r6, [r4, ip]	@ <variable>.CurrPOC.last_has_mmco_5, <variable>.CurrPOC.last_has_mmco_5
	cmp	r6, #0	@ <variable>.CurrPOC.last_has_mmco_5,
	beq	.L768	@,
	movw	r3, #:lower16:11115960	@ tmp243,
	movw	r0, #:lower16:11115948	@ tmp245,
	movt	r3, #:upper16:11115960	@ tmp243,
	movt	r0, #:upper16:11115948	@ tmp245,
	mov	r2, r1	@ prephitmp.2411, tmp171
	str	r1, [r4, r3]	@ tmp171, <variable>.CurrPOC.PrevFrameNumOffset
	str	r1, [r4, r0]	@ tmp171, <variable>.CurrPOC.PreviousFrameNum
.L769:
	movw	r7, #:lower16:11115956	@ tmp256,
	movt	r7, #:upper16:11115956	@ tmp256,
	str	r2, [r4, r7]	@ prephitmp.2411, <variable>.CurrPOC.FrameNumOffset
.L767:
	ldr	r6, [r5, #2916]	@ <variable>.num_ref_frames_in_pic_order_cnt_cycle, <variable>.num_ref_frames_in_pic_order_cnt_cycle
	cmp	r6, #0	@ <variable>.num_ref_frames_in_pic_order_cnt_cycle,
	movweq	r2, #:lower16:11115944	@ tmp264,
	movteq	r2, #:upper16:11115944	@ tmp264,
	streq	r6, [r4, r2]	@ <variable>.num_ref_frames_in_pic_order_cnt_cycle, <variable>.CurrPOC.AbsFrameNum
	beq	.L772	@,
	movw	r3, #:lower16:11115952	@ tmp259,
	movw	r0, #:lower16:11115956	@ tmp260,
	movt	r3, #:upper16:11115952	@ tmp259,
	movt	r0, #:upper16:11115956	@ tmp260,
	movw	ip, #:lower16:11115944	@ tmp258,
	movt	ip, #:upper16:11115944	@ tmp258,
	ldr	r1, [r4, r3]	@ <variable>.CurrPOC.frame_num, <variable>.CurrPOC.frame_num
	ldr	r2, [r4, r0]	@ <variable>.CurrPOC.FrameNumOffset, <variable>.CurrPOC.FrameNumOffset
	add	r2, r1, r2	@ tmp263, <variable>.CurrPOC.frame_num, <variable>.CurrPOC.FrameNumOffset
	str	r2, [r4, ip]	@ tmp263, <variable>.CurrPOC.AbsFrameNum
.L772:
	movw	r6, #:lower16:11117040	@ tmp266,
	movt	r6, #:upper16:11117040	@ tmp266,
	ldrb	r7, [r4, r6]	@ zero_extendqisi2	@ <variable>.CurrSlice.nal_ref_idc, <variable>.CurrSlice.nal_ref_idc
	cmp	r7, #0	@ <variable>.CurrSlice.nal_ref_idc,
	bne	.L773	@,
	movw	ip, #:lower16:11115944	@ tmp268,
	movt	ip, #:upper16:11115944	@ tmp268,
	ldr	r2, [r4, ip]	@ D.42533, <variable>.CurrPOC.AbsFrameNum
	cmp	r2, #0	@ D.42533,
	subne	r2, r2, #1	@ tmp270, D.42533,
	strne	r2, [r4, ip]	@ tmp270, <variable>.CurrPOC.AbsFrameNum
.L773:
	movw	ip, #:lower16:11115976	@ tmp271,
	movt	ip, #:upper16:11115976	@ tmp271,
	mov	r3, #0	@ tmp272,
	str	r3, [r4, ip]	@ tmp272, <variable>.CurrPOC.ExpectedDeltaPerPicOrderCntCycle
	ldr	r1, [r5, #2916]	@ temp.2482, <variable>.num_ref_frames_in_pic_order_cnt_cycle
	cmp	r1, r3	@ temp.2482,
	ble	.L774	@,
	add	r2, r5, #2912	@ ivtmp.2441, sps,
	add	r0, r2, #8	@ ivtmp.2441, ivtmp.2441,
	mov	r2, r3	@ i, prephitmp.2408
.L775:
	ldr	r1, [r0], #4	@ tmp274, <variable>.offset_for_ref_frame
	add	r2, r2, #1	@ i, i,
	add	r3, r3, r1	@ prephitmp.2408, prephitmp.2408, tmp274
	str	r3, [r4, ip]	@ prephitmp.2408, <variable>.CurrPOC.ExpectedDeltaPerPicOrderCntCycle
	ldr	r1, [r5, #2916]	@ temp.2482, <variable>.num_ref_frames_in_pic_order_cnt_cycle
	cmp	r1, r2	@ temp.2482, i
	bgt	.L775	@,
.L774:
	movw	r0, #:lower16:11115944	@ tmp276,
	movt	r0, #:upper16:11115944	@ tmp276,
	ldr	r7, [r4, r0]	@ temp.2456, <variable>.CurrPOC.AbsFrameNum
	cmp	r7, #0	@ temp.2456,
	beq	.L776	@,
	sub	r7, r7, #1	@ tmp277, temp.2456,
	mov	r0, r7	@, tmp277
	bl	__aeabi_uidiv	@
	movw	r2, #:lower16:11115968	@ tmp281,
	movt	r2, #:upper16:11115968	@ tmp281,
	mov	r6, r0	@ tmp280,
	mov	r0, r7	@, tmp277
	str	r6, [r4, r2]	@ tmp280, <variable>.CurrPOC.PicOrderCntCycleCnt
	ldr	r1, [r5, #2916]	@, <variable>.num_ref_frames_in_pic_order_cnt_cycle
	bl	__aeabi_uidivmod	@
	movw	ip, #:lower16:11115976	@ tmp291,
	movt	ip, #:upper16:11115976	@ tmp291,
	movw	r3, #:lower16:11115964	@ tmp290,
	movt	r3, #:upper16:11115964	@ tmp290,
	ldr	r2, [r4, ip]	@ <variable>.CurrPOC.ExpectedDeltaPerPicOrderCntCycle, <variable>.CurrPOC.ExpectedDeltaPerPicOrderCntCycle
	movw	ip, #:lower16:11115972	@ tmp293,
	movt	ip, #:upper16:11115972	@ tmp293,
	mul	r6, r2, r6	@ prephitmp.2460, <variable>.CurrPOC.ExpectedDeltaPerPicOrderCntCycle, tmp280
	str	r6, [r4, ip]	@ prephitmp.2460, <variable>.CurrPOC.ExpectedPicOrderCnt
	cmp	r1, #0	@ D.42548,
	str	r1, [r4, r3]	@ D.42548, <variable>.CurrPOC.FrameNumInPicOrderCntCycle
	blt	.L777	@,
	add	r3, r5, #2912	@ tmp294, sps,
	cmp	r1, #1	@ D.42548,
	and	r8, r1, #1	@ tmp402, D.42548,
	mov	r0, #1	@ i.2462,
	ldr	r7, [r3, #8]	@ tmp295, <variable>.offset_for_ref_frame
	add	r2, r3, #12	@ ivtmp.2436, tmp294,
	add	r6, r6, r7	@ prephitmp.2460, prephitmp.2460, tmp295
	str	r6, [r4, ip]	@ prephitmp.2460, <variable>.CurrPOC.ExpectedPicOrderCnt
	blt	.L777	@,
	cmp	r8, #0	@ tmp402,
	beq	.L778	@,
	ldr	r7, [r2, #0]	@ tmp414, <variable>.offset_for_ref_frame
	mov	r0, #2	@ i.2462,
	cmp	r1, r0	@ D.42548, i.2462
	add	r2, r3, #16	@ ivtmp.2436, tmp294,
	add	r6, r6, r7	@ prephitmp.2460, prephitmp.2460, tmp414
	str	r6, [r4, ip]	@ prephitmp.2460, <variable>.CurrPOC.ExpectedPicOrderCnt
	blt	.L777	@,
.L778:
	mov	r3, r2	@ tmp404, ivtmp.2436
	add	r0, r0, #2	@ i.2462, i.2462,
	ldr	r7, [r3], #4	@ tmp407, <variable>.offset_for_ref_frame
	cmp	r1, r0	@ D.42548, i.2462
	add	lr, r6, r7	@ prephitmp.2460, prephitmp.2460, tmp407
	str	lr, [r4, ip]	@ prephitmp.2460, <variable>.CurrPOC.ExpectedPicOrderCnt
	ldr	r7, [r2, #4]	@ tmp412, <variable>.offset_for_ref_frame
	add	r2, r3, #4	@ ivtmp.2436, tmp404,
	add	r6, lr, r7	@ prephitmp.2460, prephitmp.2460, tmp412
	str	r6, [r4, ip]	@ prephitmp.2460, <variable>.CurrPOC.ExpectedPicOrderCnt
	bge	.L778	@,
.L777:
	movw	r1, #:lower16:11117040	@ tmp299,
	movt	r1, #:upper16:11117040	@ tmp299,
	movw	ip, #:lower16:11117033	@ tmp304,
	movt	ip, #:upper16:11117033	@ tmp304,
	ldrb	r3, [r4, r1]	@ zero_extendqisi2	@ <variable>.CurrSlice.nal_ref_idc, <variable>.CurrSlice.nal_ref_idc
	ldrb	r0, [r4, ip]	@ zero_extendqisi2	@ <variable>.CurrSlice.field_pic_flag, <variable>.CurrSlice.field_pic_flag
	cmp	r3, #0	@ <variable>.CurrSlice.nal_ref_idc,
	movwne	r3, #:lower16:11115972	@ tmp301,
	ldreq	r2, [r5, #2908]	@ <variable>.offset_for_non_ref_pic, <variable>.offset_for_non_ref_pic
	movweq	r3, #:lower16:11115972	@ tmp303,
	movtne	r3, #:upper16:11115972	@ tmp301,
	movteq	r3, #:upper16:11115972	@ tmp303,
	addeq	r6, r6, r2	@ prephitmp.2464, prephitmp.2460, <variable>.offset_for_non_ref_pic
	ldrne	r6, [r4, r3]	@ prephitmp.2464, <variable>.CurrPOC.ExpectedPicOrderCnt
	streq	r6, [r4, r3]	@ prephitmp.2464, <variable>.CurrPOC.ExpectedPicOrderCnt
	cmp	r0, #0	@ <variable>.CurrSlice.field_pic_flag,
	bne	.L781	@,
	movw	r1, #:lower16:11115936	@ tmp306,
	movt	r1, #:upper16:11115936	@ tmp306,
	movw	r2, #:lower16:11115920	@ tmp308,
	movw	r3, #:lower16:11115940	@ tmp309,
	ldr	r0, [r4, r1]	@ <variable>.CurrPOC.delta_pic_order_cnt, <variable>.CurrPOC.delta_pic_order_cnt
	movt	r2, #:upper16:11115920	@ tmp308,
	movt	r3, #:upper16:11115940	@ tmp309,
	movw	r1, #:lower16:11115924	@ tmp313,
	add	r6, r6, r0	@ D.42562, prephitmp.2464, <variable>.CurrPOC.delta_pic_order_cnt
	str	r6, [r4, r2]	@ D.42562, <variable>.CurrPOC.toppoc
	ldr	ip, [r4, r3]	@ <variable>.CurrPOC.delta_pic_order_cnt, <variable>.CurrPOC.delta_pic_order_cnt
	movt	r1, #:upper16:11115924	@ tmp313,
	ldr	r0, [r5, #2912]	@ <variable>.offset_for_top_to_bottom_field, <variable>.offset_for_top_to_bottom_field
	movw	r2, #:lower16:11115928	@ tmp314,
	movw	r3, #:lower16:11115932	@ tmp315,
	movt	r2, #:upper16:11115928	@ tmp314,
	add	r0, ip, r0	@ tmp310, <variable>.CurrPOC.delta_pic_order_cnt, <variable>.offset_for_top_to_bottom_field
	movt	r3, #:upper16:11115932	@ tmp315,
	add	r0, r0, r6	@ D.42566, tmp310, D.42562
	str	r0, [r4, r1]	@ D.42566, <variable>.CurrPOC.bottompoc
	cmp	r0, r6	@ D.42566, D.42562
	movlt	r6, r0	@ prephitmp.2469, D.42566
	movge	r6, r6	@ prephitmp.2469, D.42562
	str	r6, [r4, r2]	@ prephitmp.2469,
	str	r6, [r4, r3]	@ prephitmp.2469, <variable>.CurrPOC.ThisPOC
.L782:
	movw	r2, #:lower16:11115952	@ tmp330,
	movw	r3, #:lower16:11115956	@ tmp333,
	movt	r2, #:upper16:11115952	@ tmp330,
	movt	r3, #:upper16:11115956	@ tmp333,
	movw	r1, #:lower16:11115928	@ tmp328,
	movt	r1, #:upper16:11115928	@ tmp328,
	ldr	r0, [r4, r2]	@ <variable>.CurrPOC.frame_num, <variable>.CurrPOC.frame_num
	movw	r2, #:lower16:11115960	@ tmp332,
	ldr	ip, [r4, r3]	@ <variable>.CurrPOC.FrameNumOffset, <variable>.CurrPOC.FrameNumOffset
	movt	r2, #:upper16:11115960	@ tmp332,
	movw	r3, #:lower16:11115948	@ tmp329,
	movt	r3, #:upper16:11115948	@ tmp329,
	str	r6, [r4, r1]	@ prephitmp.2469, <variable>.CurrPOC.framepoc
	str	ip, [r4, r2]	@ <variable>.CurrPOC.FrameNumOffset, <variable>.CurrPOC.PrevFrameNumOffset
	str	r0, [r4, r3]	@ <variable>.CurrPOC.frame_num, <variable>.CurrPOC.PreviousFrameNum
	ldmfd	sp, {r3, r4, r5, r6, r7, r8, fp, sp, pc}	@
.L806:
	movw	r7, #:lower16:11115956	@ tmp239,
	movt	r7, #:upper16:11115956	@ tmp239,
	mov	r2, #0	@ tmp240,
	str	r2, [r4, r7]	@ tmp240, <variable>.CurrPOC.FrameNumOffset
	b	.L767	@
.L805:
	movw	r5, #:lower16:11115956	@ tmp335,
	movw	r0, #:lower16:11115924	@ tmp337,
	movt	r5, #:upper16:11115956	@ tmp335,
	movt	r0, #:upper16:11115924	@ tmp337,
	movw	r1, #:lower16:11115920	@ tmp339,
	movw	r2, #:lower16:11115928	@ tmp341,
	movt	r1, #:upper16:11115920	@ tmp339,
	movt	r2, #:upper16:11115928	@ tmp341,
	movw	ip, #:lower16:11115932	@ tmp343,
	movt	ip, #:upper16:11115932	@ tmp343,
	mov	r3, #0	@ tmp336,
	str	r3, [r4, r5]	@ tmp336, <variable>.CurrPOC.FrameNumOffset
	str	r3, [r4, ip]	@ tmp336, <variable>.CurrPOC.ThisPOC
	str	r3, [r4, r0]	@ tmp336, <variable>.CurrPOC.bottompoc
	str	r3, [r4, r1]	@ tmp336, <variable>.CurrPOC.toppoc
	str	r3, [r4, r2]	@ tmp336, <variable>.CurrPOC.framepoc
	b	.L785	@
.L804:
	movw	r1, #:lower16:11115908	@ tmp178,
	movw	r3, #:lower16:11115912	@ tmp180,
	movt	r1, #:upper16:11115908	@ tmp178,
	movt	r3, #:upper16:11115912	@ tmp180,
	mov	r0, #0	@ tmp179,
	str	r0, [r4, r1]	@ tmp179, <variable>.CurrPOC.PrevPicOrderCntMsb
	str	r0, [r4, r3]	@ tmp179, <variable>.CurrPOC.PrevPicOrderCntLsb
.L753:
	movw	r0, #:lower16:11115900	@ tmp383,
	movt	r0, #:upper16:11115900	@ tmp383,
	movw	r3, #:lower16:11115908	@ tmp384,
	movt	r3, #:upper16:11115908	@ tmp384,
	ldr	r0, [r4, r0]	@ D.42472, <variable>.CurrPOC.pic_order_cnt_lsb
	mov	r1, #0	@ prephitmp.2487,
	ldr	ip, [r4, r3]	@ prephitmp.2419, <variable>.CurrPOC.PrevPicOrderCntMsb
	mov	r3, r1	@ prephitmp.2417, prephitmp.2487
.L759:
	cmp	r3, r0	@ prephitmp.2417, D.42472
	bcs	.L761	@,
	rsb	r3, r3, r0	@ tmp202, prephitmp.2417, D.42472
	cmp	r3, r2, lsr #1	@ tmp202, MaxPicOrderCntLsb,
	bls	.L761	@,
	rsb	r2, r2, r1	@ D.42488, MaxPicOrderCntLsb, prephitmp.2487
	movw	r0, #:lower16:11115916	@ tmp204,
	movt	r0, #:upper16:11115916	@ tmp204,
	mov	r1, r2	@ prephitmp.2487, D.42488
	str	r2, [r4, r0]	@ D.42488, <variable>.CurrPOC.PicOrderCntMsb
	b	.L760	@
.L761:
	movw	r3, #:lower16:11115916	@ tmp205,
	movw	r0, #:lower16:11117033	@ tmp206,
	movt	r3, #:upper16:11115916	@ tmp205,
	movt	r0, #:upper16:11117033	@ tmp206,
	str	ip, [r4, r3]	@ prephitmp.2419, <variable>.CurrPOC.PicOrderCntMsb
	ldrb	ip, [r4, r0]	@ zero_extendqisi2	@ <variable>.CurrSlice.field_pic_flag, <variable>.CurrSlice.field_pic_flag
	cmp	ip, #0	@ <variable>.CurrSlice.field_pic_flag,
	beq	.L807	@,
.L762:
	movw	r0, #:lower16:11117034	@ tmp216,
	movt	r0, #:upper16:11117034	@ tmp216,
	movw	r3, #:lower16:11115900	@ tmp218,
	movt	r3, #:upper16:11115900	@ tmp218,
	ldrb	ip, [r4, r0]	@ zero_extendqisi2	@ <variable>.CurrSlice.bottom_field_flag, <variable>.CurrSlice.bottom_field_flag
	ldr	r0, [r4, r3]	@ <variable>.CurrPOC.pic_order_cnt_lsb, <variable>.CurrPOC.pic_order_cnt_lsb
	cmp	ip, #0	@ <variable>.CurrSlice.bottom_field_flag,
	movw	ip, #:lower16:11115932	@ tmp225,
	movt	ip, #:upper16:11115932	@ tmp225,
	add	r1, r1, r0	@ prephitmp.2412, prephitmp.2487, <variable>.CurrPOC.pic_order_cnt_lsb
	movweq	r2, #:lower16:11115920	@ tmp220,
	movwne	r2, #:lower16:11115924	@ tmp224,
	movteq	r2, #:upper16:11115920	@ tmp220,
	movtne	r2, #:upper16:11115924	@ tmp224,
	str	r1, [r4, r2]	@ prephitmp.2412,
	str	r1, [r4, ip]	@ prephitmp.2412, <variable>.CurrPOC.ThisPOC
	b	.L763	@
.L776:
	movw	r1, #:lower16:11115972	@ tmp297,
	movt	r1, #:upper16:11115972	@ tmp297,
	mov	r6, r7	@ prephitmp.2460, temp.2456
	str	r7, [r4, r1]	@ temp.2456, <variable>.CurrPOC.ExpectedPicOrderCnt
	b	.L777	@
.L781:
	movw	r3, #:lower16:11117034	@ tmp316,
	movt	r3, #:upper16:11117034	@ tmp316,
	ldrb	ip, [r4, r3]	@ zero_extendqisi2	@ <variable>.CurrSlice.bottom_field_flag, <variable>.CurrSlice.bottom_field_flag
	cmp	ip, #0	@ <variable>.CurrSlice.bottom_field_flag,
	bne	.L783	@,
	movw	ip, #:lower16:11115936	@ tmp318,
	movt	ip, #:upper16:11115936	@ tmp318,
	movw	r2, #:lower16:11115920	@ tmp320,
	movw	r0, #:lower16:11115932	@ tmp321,
	ldr	r1, [r4, ip]	@ <variable>.CurrPOC.delta_pic_order_cnt, <variable>.CurrPOC.delta_pic_order_cnt
	movt	r2, #:upper16:11115920	@ tmp320,
	movt	r0, #:upper16:11115932	@ tmp321,
	add	r6, r6, r1	@ prephitmp.2469, prephitmp.2464, <variable>.CurrPOC.delta_pic_order_cnt
	str	r6, [r4, r2]	@ prephitmp.2469,
	str	r6, [r4, r0]	@ prephitmp.2469, <variable>.CurrPOC.ThisPOC
	b	.L782	@
.L757:
	movw	r1, #:lower16:11115908	@ tmp201,
	movt	r1, #:upper16:11115908	@ tmp201,
	ldr	r1, [r4, r1]	@ prephitmp.2487, <variable>.CurrPOC.PrevPicOrderCntMsb
	b	.L759	@
.L754:
	movw	ip, #:lower16:11115897	@ tmp186,
	movt	ip, #:upper16:11115897	@ tmp186,
	ldrsb	r0, [r4, ip]	@ <variable>.CurrPOC.last_pic_bottom_field, <variable>.CurrPOC.last_pic_bottom_field
	cmp	r0, #0	@ <variable>.CurrPOC.last_pic_bottom_field,
	beq	.L756	@,
	movw	r0, #:lower16:11115908	@ tmp188,
	movw	r3, #:lower16:11115912	@ tmp190,
	movt	r0, #:upper16:11115908	@ tmp188,
	movt	r3, #:upper16:11115912	@ tmp190,
	str	r1, [r4, r0]	@ tmp171, <variable>.CurrPOC.PrevPicOrderCntMsb
	str	r1, [r4, r3]	@ tmp171, <variable>.CurrPOC.PrevPicOrderCntLsb
	b	.L753	@
.L783:
	movw	r3, #:lower16:11115936	@ tmp322,
	movt	r3, #:upper16:11115936	@ tmp322,
	ldr	ip, [r5, #2912]	@ <variable>.offset_for_top_to_bottom_field, <variable>.offset_for_top_to_bottom_field
	movw	r2, #:lower16:11115924	@ tmp326,
	ldr	r0, [r4, r3]	@ <variable>.CurrPOC.delta_pic_order_cnt, <variable>.CurrPOC.delta_pic_order_cnt
	movt	r2, #:upper16:11115924	@ tmp326,
	movw	r3, #:lower16:11115932	@ tmp327,
	movt	r3, #:upper16:11115932	@ tmp327,
	add	r1, r0, ip	@ tmp323, <variable>.CurrPOC.delta_pic_order_cnt, <variable>.offset_for_top_to_bottom_field
	add	r6, r1, r6	@ prephitmp.2469, tmp323, prephitmp.2464
	str	r6, [r4, r2]	@ prephitmp.2469,
	str	r6, [r4, r3]	@ prephitmp.2469, <variable>.CurrPOC.ThisPOC
	b	.L782	@
.L768:
	movw	r2, #:lower16:11115952	@ tmp247,
	movw	r6, #:lower16:11115948	@ tmp248,
	movt	r2, #:upper16:11115952	@ tmp247,
	movt	r6, #:upper16:11115948	@ tmp248,
	ldr	r1, [r4, r2]	@ <variable>.CurrPOC.frame_num, <variable>.CurrPOC.frame_num
	ldr	r7, [r4, r6]	@ <variable>.CurrPOC.PreviousFrameNum, <variable>.CurrPOC.PreviousFrameNum
	cmp	r1, r7	@ <variable>.CurrPOC.frame_num, <variable>.CurrPOC.PreviousFrameNum
	bcs	.L770	@,
	movw	r1, #:lower16:11115960	@ tmp252,
	movt	r1, #:upper16:11115960	@ tmp252,
	movw	r3, #:lower16:11115956	@ tmp251,
	movt	r3, #:upper16:11115956	@ tmp251,
	ldr	r2, [r4, r1]	@ <variable>.CurrPOC.PrevFrameNumOffset, <variable>.CurrPOC.PrevFrameNumOffset
	add	ip, r0, r2	@ tmp254, MaxFrameNum, <variable>.CurrPOC.PrevFrameNumOffset
	str	ip, [r4, r3]	@ tmp254, <variable>.CurrPOC.FrameNumOffset
	b	.L767	@
.L792:
	movw	r1, #:lower16:11117034	@ tmp371,
	movt	r1, #:upper16:11117034	@ tmp371,
	movw	ip, #:lower16:11115928	@ tmp373,
	movt	ip, #:upper16:11115928	@ tmp373,
	ldrb	r3, [r4, r1]	@ zero_extendqisi2	@ <variable>.CurrSlice.bottom_field_flag, <variable>.CurrSlice.bottom_field_flag
	str	r2, [r4, ip]	@ prephitmp.2479,
	cmp	r3, #0	@ <variable>.CurrSlice.bottom_field_flag,
	movweq	r3, #:lower16:11115920	@ tmp374,
	movwne	r3, #:lower16:11115924	@ tmp376,
	movteq	r3, #:upper16:11115920	@ tmp374,
	movtne	r3, #:upper16:11115924	@ tmp376,
	str	r2, [r4, r3]	@ prephitmp.2479,
	b	.L785	@
.L786:
	movw	ip, #:lower16:11115948	@ tmp352,
	movt	ip, #:upper16:11115948	@ tmp352,
	movw	r0, #:lower16:11115960	@ tmp354,
	movt	r0, #:upper16:11115960	@ tmp354,
	str	r1, [r4, ip]	@ tmp171, <variable>.CurrPOC.PreviousFrameNum
	mov	ip, r1	@ prephitmp.2407, tmp171
	str	r1, [r4, r0]	@ tmp171, <variable>.CurrPOC.PrevFrameNumOffset
.L788:
	movw	r2, #:lower16:11115956	@ tmp357,
	movt	r2, #:upper16:11115956	@ tmp357,
	str	ip, [r4, r2]	@ prephitmp.2407, <variable>.CurrPOC.FrameNumOffset
	b	.L789	@
.L756:
	movw	ip, #:lower16:11115920	@ tmp194,
	movt	ip, #:upper16:11115920	@ tmp194,
	movw	r6, #:lower16:11115908	@ tmp192,
	movw	r1, #:lower16:11115912	@ tmp195,
	ldr	r3, [r4, ip]	@ prephitmp.2417, <variable>.CurrPOC.toppoc
	movt	r6, #:upper16:11115908	@ tmp192,
	movt	r1, #:upper16:11115912	@ tmp195,
	mov	r5, r0	@ prephitmp.2421, <variable>.CurrPOC.last_pic_bottom_field
	mov	ip, r0	@ prephitmp.2419, prephitmp.2421
	str	r0, [r4, r6]	@ <variable>.CurrPOC.last_pic_bottom_field, <variable>.CurrPOC.PrevPicOrderCntMsb
	str	r3, [r4, r1]	@ prephitmp.2417, <variable>.CurrPOC.PrevPicOrderCntLsb
	b	.L755	@
.L770:
	movw	r0, #:lower16:11115960	@ tmp255,
	movt	r0, #:upper16:11115960	@ tmp255,
	ldr	r2, [r4, r0]	@ prephitmp.2411, <variable>.CurrPOC.PrevFrameNumOffset
	b	.L769	@
	.fnend
	.size	MVC_DecPOC, .-MVC_DecPOC
	.align	2
	.global	MVC_CalcPicNum
	.type	MVC_CalcPicNum, %function
MVC_CalcPicNum:
	.fnstart
.LFB1620:
	@ args = 0, pretend = 0, frame = 0
	@ frame_needed = 1, uses_anonymous_args = 0
	.movsp ip
	mov	ip, sp	@,
	stmfd	sp!, {r4, r5, r6, r7, r8, sl, fp, ip, lr, pc}	@,
	.pad #4
	.save {r4, r5, r6, r7, r8, sl, fp, ip, lr}
	.setfp fp, ip, #-4
	sub	fp, ip, #4	@,,
	push	{lr}
	bl	__gnu_mcount_nc
	movw	r4, #:lower16:11150555	@ tmp161,
	ldr	r1, [r0, #236]	@ <variable>.pCurrSPS, <variable>.pCurrSPS
	movt	r4, #:upper16:11150555	@ tmp161,
	ldrb	r2, [r0, r4]	@ zero_extendqisi2	@ D.42619, <variable>.CurrPic.structure
	ldr	r3, [r1, #2896]	@ <variable>.log2_max_frame_num_minus4, <variable>.log2_max_frame_num_minus4
	cmp	r2, #0	@ D.42619,
	add	ip, r3, #4	@ tmp158, <variable>.log2_max_frame_num_minus4,
	mov	r3, #1	@ tmp160,
	mov	ip, r3, asl ip	@ MaxFrameNum, tmp160,
	beq	.L809	@,
	movw	r7, #:lower16:11122992	@ tmp164,
	movt	r7, #:upper16:11122992	@ tmp164,
	cmp	r2, #2	@ D.42619,
	movne	r4, #0	@, add_bottom
	moveq	r4, #1	@, add_bottom
	cmp	r2, r3	@ D.42619,
	movne	r5, #0	@, add_top
	moveq	r5, #1	@, add_top
	ldr	r2, [r0, r7]	@ <variable>.DPB.ref_frames_in_buffer, <variable>.DPB.ref_frames_in_buffer
	cmp	r2, #0	@ <variable>.DPB.ref_frames_in_buffer,
	beq	.L811	@,
	movw	r8, #:lower16:11122856	@ ivtmp.2555,
	movt	r8, #:upper16:11122856	@ ivtmp.2555,
	add	r3, r0, r8	@ ivtmp.2555, pMvcCtx, ivtmp.2555
	movw	r8, #:lower16:11151072	@ tmp235,
	movt	r8, #:upper16:11151072	@ tmp235,
	mov	r2, #0	@ i,
.L824:
	ldr	r1, [r3, #0]	@ temp.2563, <variable>.DPB.fs_ref
	ldrb	r6, [r1, #3]	@ zero_extendqisi2	@ <variable>.is_reference, <variable>.is_reference
	cmp	r6, #0	@ <variable>.is_reference,
	beq	.L820	@,
	ldr	r6, [r1, #20]	@ temp.2565, <variable>.frame_num
	ldr	sl, [r0, r8]	@ <variable>.CurrPic.frame_num, <variable>.CurrPic.frame_num
	cmp	r6, sl	@ temp.2565, <variable>.CurrPic.frame_num
	rsbhi	r6, ip, r6	@ tmp193, MaxFrameNum, temp.2565
	str	r6, [r1, #24]	@ temp.2565, <variable>.frame_num_wrap
	ldr	r1, [r3, #0]	@ prephitmp.2523, <variable>.DPB.fs_ref
	ldrb	r6, [r1, #3]	@ zero_extendqisi2	@ prephitmp.2527, <variable>.is_reference
	tst	r6, #1	@ prephitmp.2527,
	beq	.L823	@,
	ldr	sl, [r1, #604]	@ tmp197,
	bic	sl, sl, #-16777216	@ tmp195, tmp197,
	bic	sl, sl, #255	@ tmp195, tmp195,
	cmp	sl, #65536	@ tmp195,
	ldreq	r6, [r1, #24]	@ <variable>.frame_num_wrap, <variable>.frame_num_wrap
	addeq	r6, r5, r6, asl #1	@, tmp200, add_top, <variable>.frame_num_wrap,
	streq	r6, [r1, #616]	@ tmp200, <variable>.top_field.pic_num
	ldreq	r1, [r3, #0]	@ prephitmp.2523, <variable>.DPB.fs_ref
	ldreqb	r6, [r1, #3]	@ zero_extendqisi2	@ prephitmp.2527, <variable>.is_reference
.L823:
	tst	r6, #2	@ prephitmp.2527,
	beq	.L820	@,
	ldr	r6, [r1, #640]	@ tmp204,
	bic	r6, r6, #-16777216	@ tmp202, tmp204,
	bic	r6, r6, #255	@ tmp202, tmp202,
	cmp	r6, #65536	@ tmp202,
	ldreq	r6, [r1, #24]	@ <variable>.frame_num_wrap, <variable>.frame_num_wrap
	addeq	r6, r4, r6, asl #1	@, tmp207, add_bottom, <variable>.frame_num_wrap,
	streq	r6, [r1, #652]	@ tmp207, <variable>.bottom_field.pic_num
.L820:
	ldr	r1, [r0, r7]	@ <variable>.DPB.ref_frames_in_buffer, <variable>.DPB.ref_frames_in_buffer
	add	r2, r2, #1	@ i, i,
	add	r3, r3, #4	@ ivtmp.2555, ivtmp.2555,
	cmp	r1, r2	@ <variable>.DPB.ref_frames_in_buffer, i
	bhi	.L824	@,
.L811:
	movw	r6, #:lower16:11122996	@ tmp210,
	movt	r6, #:upper16:11122996	@ tmp210,
	ldr	r3, [r0, r6]	@ <variable>.DPB.ltref_frames_in_buffer, <variable>.DPB.ltref_frames_in_buffer
	cmp	r3, #0	@ <variable>.DPB.ltref_frames_in_buffer,
	ldmeqfd	sp, {r4, r5, r6, r7, r8, sl, fp, sp, pc}	@
	movw	r2, #:lower16:11122920	@ ivtmp.2550,
	movt	r2, #:upper16:11122920	@ ivtmp.2550,
	add	r3, r0, r2	@ ivtmp.2550, pMvcCtx, ivtmp.2550
	mov	r2, #0	@ i.2567,
.L827:
	ldr	ip, [r3, #0]	@ prephitmp.2516, <variable>.DPB.fs_ltref
	add	r2, r2, #1	@ i.2567, i.2567,
	ldrb	r1, [ip, #3]	@ zero_extendqisi2	@ temp.2577, <variable>.is_reference
	cmp	r1, #0	@ temp.2577,
	beq	.L825	@,
	tst	r1, #1	@ prephitmp.2520,
	beq	.L826	@,
	ldr	r7, [ip, #604]	@ tmp216,
	bic	r7, r7, #-16777216	@ tmp214, tmp216,
	bic	r7, r7, #255	@ tmp214, tmp214,
	cmp	r7, #256	@ tmp214,
	ldreq	r1, [ip, #28]	@ <variable>.long_term_frame_idx, <variable>.long_term_frame_idx
	addeq	r1, r5, r1, asl #1	@, tmp219, add_top, <variable>.long_term_frame_idx,
	streq	r1, [ip, #612]	@ tmp219, <variable>.top_field.long_term_pic_num
	ldreq	ip, [r3, #0]	@ prephitmp.2516, <variable>.DPB.fs_ltref
	ldreqb	r1, [ip, #3]	@ zero_extendqisi2	@ prephitmp.2520, <variable>.is_reference
.L826:
	tst	r1, #2	@ prephitmp.2520,
	beq	.L825	@,
	ldr	r1, [ip, #640]	@ tmp223,
	bic	r1, r1, #-16777216	@ tmp221, tmp223,
	bic	r1, r1, #255	@ tmp221, tmp221,
	cmp	r1, #256	@ tmp221,
	ldreq	r1, [ip, #28]	@ <variable>.long_term_frame_idx, <variable>.long_term_frame_idx
	addeq	r1, r4, r1, asl #1	@, tmp226, add_bottom, <variable>.long_term_frame_idx,
	streq	r1, [ip, #648]	@ tmp226, <variable>.bottom_field.long_term_pic_num
.L825:
	ldr	ip, [r0, r6]	@ <variable>.DPB.ltref_frames_in_buffer, <variable>.DPB.ltref_frames_in_buffer
	add	r3, r3, #4	@ ivtmp.2550, ivtmp.2550,
	cmp	ip, r2	@ <variable>.DPB.ltref_frames_in_buffer, i.2567
	bhi	.L827	@,
	ldmfd	sp, {r4, r5, r6, r7, r8, sl, fp, sp, pc}	@
.L809:
	movw	r5, #:lower16:11122992	@ tmp166,
	movt	r5, #:upper16:11122992	@ tmp166,
	ldr	r3, [r0, r5]	@ <variable>.DPB.ref_frames_in_buffer, <variable>.DPB.ref_frames_in_buffer
	cmp	r3, #0	@ <variable>.DPB.ref_frames_in_buffer,
	beq	.L812	@,
	movw	r6, #:lower16:11122856	@ ivtmp.2545,
	movt	r6, #:upper16:11122856	@ ivtmp.2545,
	add	r3, r0, r6	@ ivtmp.2545, pMvcCtx, ivtmp.2545
	movw	r6, #:lower16:11151072	@ tmp232,
	movt	r6, #:upper16:11151072	@ tmp232,
	b	.L816	@
.L813:
	ldr	r1, [r0, r5]	@ <variable>.DPB.ref_frames_in_buffer, <variable>.DPB.ref_frames_in_buffer
	add	r2, r2, #1	@ i.2560, i.2560,
	add	r3, r3, #4	@ ivtmp.2545, ivtmp.2545,
	cmp	r1, r2	@ <variable>.DPB.ref_frames_in_buffer, i.2560
	bls	.L812	@,
.L816:
	ldr	r1, [r3, #0]	@ D.42623, <variable>.DPB.fs_ref
	ldrb	r4, [r1, #3]	@ zero_extendqisi2	@ <variable>.is_reference, <variable>.is_reference
	cmp	r4, #3	@ <variable>.is_reference,
	bne	.L813	@,
	ldr	r4, [r1, #568]	@ tmp172,
	bic	r4, r4, #-16777216	@ tmp170, tmp172,
	bic	r4, r4, #255	@ tmp170, tmp170,
	cmp	r4, #65536	@ tmp170,
	bne	.L813	@,
	ldr	r4, [r1, #20]	@ D.42631, <variable>.frame_num
	add	r2, r2, #1	@ i.2560, i.2560,
	ldr	r7, [r0, r6]	@ <variable>.CurrPic.frame_num, <variable>.CurrPic.frame_num
	cmp	r4, r7	@ D.42631, <variable>.CurrPic.frame_num
	rsb	r7, ip, r4	@ tmp175, MaxFrameNum, D.42631
	strls	r4, [r1, #24]	@ D.42631, <variable>.frame_num_wrap
	strhi	r7, [r1, #24]	@ tmp175, <variable>.frame_num_wrap
	ldr	r1, [r3, #0]	@ temp.2559, <variable>.DPB.fs_ref
	add	r3, r3, #4	@ ivtmp.2545, ivtmp.2545,
	ldr	r4, [r1, #24]	@ <variable>.frame_num_wrap, <variable>.frame_num_wrap
	str	r4, [r1, #580]	@ <variable>.frame_num_wrap, <variable>.frame.pic_num
	ldr	r1, [r0, r5]	@ <variable>.DPB.ref_frames_in_buffer, <variable>.DPB.ref_frames_in_buffer
	cmp	r1, r2	@ <variable>.DPB.ref_frames_in_buffer, i.2560
	bhi	.L816	@,
.L812:
	movw	r4, #:lower16:11122996	@ tmp179,
	movt	r4, #:upper16:11122996	@ tmp179,
	ldr	ip, [r0, r4]	@ <variable>.DPB.ltref_frames_in_buffer, <variable>.DPB.ltref_frames_in_buffer
	cmp	ip, #0	@ <variable>.DPB.ltref_frames_in_buffer,
	ldmeqfd	sp, {r4, r5, r6, r7, r8, sl, fp, sp, pc}	@
	movw	r2, #:lower16:11122920	@ ivtmp.2540,
	movt	r2, #:upper16:11122920	@ ivtmp.2540,
	add	r3, r0, r2	@ ivtmp.2540, pMvcCtx, ivtmp.2540
	mov	r2, #0	@ i.2561,
	b	.L819	@
.L818:
	ldr	r1, [r0, r4]	@ <variable>.DPB.ltref_frames_in_buffer, <variable>.DPB.ltref_frames_in_buffer
	cmp	r1, r2	@ <variable>.DPB.ltref_frames_in_buffer, i.2561
	bls	.L833	@,
.L819:
	ldr	r1, [r3, #0]	@ D.42641, <variable>.DPB.fs_ltref
	add	r2, r2, #1	@ i.2561, i.2561,
	add	r3, r3, #4	@ ivtmp.2540, ivtmp.2540,
	ldrb	ip, [r1, #3]	@ zero_extendqisi2	@ <variable>.is_reference, <variable>.is_reference
	cmp	ip, #3	@ <variable>.is_reference,
	bne	.L818	@,
	ldr	ip, [r1, #568]	@ tmp185,
	bic	ip, ip, #-16777216	@ tmp183, tmp185,
	bic	ip, ip, #255	@ tmp183, tmp183,
	cmp	ip, #256	@ tmp183,
	ldreq	ip, [r1, #28]	@ <variable>.long_term_frame_idx, <variable>.long_term_frame_idx
	streq	ip, [r1, #576]	@ <variable>.long_term_frame_idx, <variable>.frame.long_term_pic_num
	ldr	r1, [r0, r4]	@ <variable>.DPB.ltref_frames_in_buffer, <variable>.DPB.ltref_frames_in_buffer
	cmp	r1, r2	@ <variable>.DPB.ltref_frames_in_buffer, i.2561
	bhi	.L819	@,
.L833:
	ldmfd	sp, {r4, r5, r6, r7, r8, sl, fp, sp, pc}	@
	.fnend
	.size	MVC_CalcPicNum, .-MVC_CalcPicNum
	.align	2
	.global	MVC_IsOutDPB
	.type	MVC_IsOutDPB, %function
MVC_IsOutDPB:
	.fnstart
.LFB1621:
	@ args = 0, pretend = 0, frame = 0
	@ frame_needed = 1, uses_anonymous_args = 0
	.movsp ip
	mov	ip, sp	@,
	stmfd	sp!, {r3, r4, fp, ip, lr, pc}	@,
	.pad #4
	.save {r3, r4, fp, ip, lr}
	.setfp fp, ip, #-4
	sub	fp, ip, #4	@,,
	push	{lr}
	bl	__gnu_mcount_nc
	cmp	r1, #0	@ pFrameStore
	beq	.L835	@,
	movw	r3, #:lower16:11122984	@ tmp141,
	movt	r3, #:upper16:11122984	@ tmp141,
	ldr	r4, [r0, r3]	@ D.42720, <variable>.DPB.size
	cmp	r4, #0	@ D.42720,
	beq	.L835	@,
	movw	ip, #:lower16:11122792	@ ivtmp.2608,
	movt	ip, #:upper16:11122792	@ ivtmp.2608,
	add	r3, r0, ip	@ ivtmp.2608, pMvcCtx, ivtmp.2608
	sub	r2, r4, #1	@ tmp144, D.42720,
	and	r0, r2, #1	@ tmp146, tmp144,
	ldr	r2, [r3, #0]	@ D.42715, <variable>.DPB.fs
	cmp	r2, #0	@ D.42715,
	beq	.L841	@,
	cmp	r1, r2	@ pFrameStore, D.42715
	beq	.L851	@,
.L841:
	mov	r2, #1	@ i,
	cmp	r4, r2	@ D.42720, i
	add	r3, r3, #4	@ ivtmp.2608, ivtmp.2608,
	bls	.L835	@,
	cmp	r0, #0	@ tmp146,
	beq	.L838	@,
	ldr	r0, [r3, #0]	@ D.42715, <variable>.DPB.fs
	cmp	r0, #0	@ D.42715,
	beq	.L843	@,
	cmp	r1, r0	@ pFrameStore, D.42715
	beq	.L851	@,
.L843:
	add	r2, r2, #1	@ i, i,
	add	r3, r3, #4	@ ivtmp.2608, ivtmp.2608,
	cmp	r4, r2	@ D.42720, i
	bls	.L835	@,
.L838:
	ldr	r0, [r3, #0]	@ D.42715, <variable>.DPB.fs
	add	r2, r2, #1	@ tmp147, i,
	add	ip, r3, #4	@ tmp148, ivtmp.2608,
	cmp	r0, #0	@ D.42715,
	beq	.L836	@,
	cmp	r1, r0	@ pFrameStore, D.42715
	beq	.L851	@,
.L836:
	ldr	r3, [r3, #4]	@ D.42715, <variable>.DPB.fs
	cmp	r3, #0	@ D.42715,
	beq	.L846	@,
	cmp	r1, r3	@ pFrameStore, D.42715
	beq	.L851	@,
.L846:
	add	r2, r2, #1	@ i, tmp147,
	add	r3, ip, #4	@ ivtmp.2608, tmp148,
	cmp	r4, r2	@ D.42720, i
	bhi	.L838	@,
.L835:
	mov	r0, #1	@ D.42713,
	ldmfd	sp, {r3, r4, fp, sp, pc}	@
.L851:
	mov	r0, #0	@ D.42713,
	ldmfd	sp, {r3, r4, fp, sp, pc}	@
	.fnend
	.size	MVC_IsOutDPB, .-MVC_IsOutDPB
	.align	2
	.global	mvc_combine_scalinglist
	.type	mvc_combine_scalinglist, %function
mvc_combine_scalinglist:
	.fnstart
.LFB1624:
	@ args = 0, pretend = 0, frame = 0
	@ frame_needed = 1, uses_anonymous_args = 0
	.movsp ip
	mov	ip, sp	@,
	stmfd	sp!, {r3, r4, r5, r6, r7, r8, r9, sl, fp, ip, lr, pc}	@,
	.pad #4
	.save {r3, r4, r5, r6, r7, r8, r9, sl, fp, ip, lr}
	.setfp fp, ip, #-4
	sub	fp, ip, #4	@,,
	push	{lr}
	bl	__gnu_mcount_nc
	cmp	r2, #0	@ sizeOfScalingList
	ldmlefd	sp, {r3, r4, r5, r6, r7, r8, r9, sl, fp, sp, pc}	@
	movw	r5, #:lower16:.LANCHOR0	@ tmp155,
	movt	r5, #:upper16:.LANCHOR0	@ tmp155,
	cmp	r2, #16	@ sizeOfScalingList,
	add	r4, r5, #16	@ tmp156, tmp155,
	sub	r9, r2, #1	@ tmp158, sizeOfScalingList,
	mov	ip, #255	@ tmp157,
	and	r9, r9, #1	@ tmp160, tmp158,
	ldrneb	r3, [r4, #0]	@ zero_extendqisi2	@ scani, MVC_g_ZZ_SCAN8
	beq	.L873	@,
.L869:
	and	r6, r3, #252	@ tmp167, scani,
	and	r7, r3, #3	@ tmp169, scani,
	add	r6, r1, r6	@ D.43003, scalingList, tmp167
	ldrb	sl, [r0, r3, asl #2]	@ zero_extendqisi2	@ tmp177,* scalingList_Org
	mov	r7, r7, asl #3	@ D.43006, tmp169,
	mov	r3, #1	@ i,
	ldr	r8, [r6, #0]	@ tmp174,* D.43003
	cmp	r3, r2	@ i, sizeOfScalingList
	bic	r8, r8, ip, asl r7	@ tmp175, tmp174, tmp157,
	orr	r7, r8, sl, asl r7	@, tmp179, tmp175, tmp177,
	str	r7, [r6, #0]	@ tmp179,* D.43003
	ldmeqfd	sp, {r3, r4, r5, r6, r7, r8, r9, sl, fp, sp, pc}	@
	cmp	r9, #0	@ tmp160,
	beq	.L856	@,
	cmp	r2, #16	@ sizeOfScalingList,
	ldrneb	r6, [r4, r3]	@ zero_extendqisi2	@ scani, MVC_g_ZZ_SCAN8
	ldreqb	r6, [r5, r3]	@ zero_extendqisi2	@ scani, MVC_g_ZZ_SCAN
	add	r3, r3, #1	@ i, i,
	cmp	r3, r2	@ i, sizeOfScalingList
	and	sl, r6, #252	@ tmp183, scani,
	and	r8, r6, #3	@ tmp185, scani,
	add	r7, r1, sl	@ D.43003, scalingList, tmp183
	ldrb	sl, [r0, r6, asl #2]	@ zero_extendqisi2	@ tmp193,* scalingList_Org
	mov	r6, r8, asl #3	@ D.43006, tmp185,
	ldr	r8, [r7, #0]	@ tmp190,* D.43003
	bic	r8, r8, ip, asl r6	@ tmp191, tmp190, tmp157,
	orr	r6, r8, sl, asl r6	@, tmp195, tmp191, tmp193,
	str	r6, [r7, #0]	@ tmp195,* D.43003
	bne	.L856	@,
	ldmfd	sp, {r3, r4, r5, r6, r7, r8, r9, sl, fp, sp, pc}	@
.L872:
	mov	r7, r6, lsr #2	@ tmp198, scani,
	and	r8, r6, #3	@ tmp201, scani,
	ldrb	sl, [r0, r6, asl #2]	@ zero_extendqisi2	@ tmp209,* scalingList_Org
	add	r3, r3, #1	@ i, tmp161,
	mov	r6, r8, asl #3	@ D.43006, tmp201,
	ldr	r8, [r1, r7, asl #2]	@ tmp206,* scalingList
	cmp	r3, r2	@ i, sizeOfScalingList
	bic	r8, r8, ip, asl r6	@ tmp207, tmp206, tmp157,
	orr	r6, r8, sl, asl r6	@, tmp211, tmp207, tmp209,
	str	r6, [r1, r7, asl #2]	@ tmp211,* scalingList
	beq	.L874	@,
.L856:
	cmp	r2, #16	@ sizeOfScalingList,
	ldreqb	r6, [r5, r3]	@ zero_extendqisi2	@ scani, MVC_g_ZZ_SCAN
	ldrneb	r6, [r4, r3]	@ zero_extendqisi2	@ scani, MVC_g_ZZ_SCAN8
	cmp	r2, #16	@ sizeOfScalingList,
	add	r3, r3, #1	@ tmp161, i,
	and	r8, r6, #3	@ tmp145, scani,
	mov	r7, r6, lsr #2	@ tmp143, scani,
	ldrb	sl, [r0, r6, asl #2]	@ zero_extendqisi2	@ tmp151,* scalingList_Org
	mov	r6, r8, asl #3	@ D.43006, tmp145,
	ldr	r8, [r1, r7, asl #2]	@ tmp150,* scalingList
	bic	r8, r8, ip, asl r6	@ tmp149, tmp150, tmp157,
	orr	r6, r8, sl, asl r6	@, tmp154, tmp149, tmp151,
	str	r6, [r1, r7, asl #2]	@ tmp154,* scalingList
	ldrneb	r6, [r4, r3]	@ zero_extendqisi2	@ scani, MVC_g_ZZ_SCAN8
	ldreqb	r6, [r5, r3]	@ zero_extendqisi2	@ scani, MVC_g_ZZ_SCAN
	b	.L872	@
.L874:
	ldmfd	sp, {r3, r4, r5, r6, r7, r8, r9, sl, fp, sp, pc}	@
.L873:
	ldrb	r3, [r5, #0]	@ zero_extendqisi2	@ scani, MVC_g_ZZ_SCAN
	b	.L869	@
	.fnend
	.size	mvc_combine_scalinglist, .-mvc_combine_scalinglist
	.align	2
	.global	MVC_UpdatePicQpInf
	.type	MVC_UpdatePicQpInf, %function
MVC_UpdatePicQpInf:
	.fnstart
.LFB1629:
	@ args = 0, pretend = 0, frame = 0
	@ frame_needed = 1, uses_anonymous_args = 0
	.movsp ip
	mov	ip, sp	@,
	stmfd	sp!, {fp, ip, lr, pc}	@,
	.pad #4
	.save {fp, ip, lr}
	.setfp fp, ip, #-4
	sub	fp, ip, #4	@,,
	push	{lr}
	bl	__gnu_mcount_nc
	ldr	r2, [r1, #28]	@ <variable>.MaxQp, <variable>.MaxQp
	ldr	r3, [r1, #32]	@ <variable>.MinQp, <variable>.MinQp
	cmp	r2, r0	@ <variable>.MaxQp, SlcQp
	strge	r2, [r1, #28]	@, <variable>.MaxQp, <variable>.MaxQp
	strlt	r0, [r1, #28]	@, SlcQp, <variable>.MaxQp
	cmp	r3, r0	@ <variable>.MinQp, SlcQp
	strle	r3, [r1, #32]	@, <variable>.MinQp, <variable>.MinQp
	strgt	r0, [r1, #32]	@, SlcQp, <variable>.MinQp
	ldmfd	sp, {fp, sp, pc}	@
	.fnend
	.size	MVC_UpdatePicQpInf, .-MVC_UpdatePicQpInf
	.align	2
	.global	MVC_StopPicNum
	.type	MVC_StopPicNum, %function
MVC_StopPicNum:
	.fnstart
.LFB1631:
	@ args = 0, pretend = 0, frame = 0
	@ frame_needed = 1, uses_anonymous_args = 0
	.movsp ip
	mov	ip, sp	@,
	stmfd	sp!, {fp, ip, lr, pc}	@,
	.pad #4
	.save {fp, ip, lr}
	.setfp fp, ip, #-4
	sub	fp, ip, #4	@,,
	push	{lr}
	bl	__gnu_mcount_nc
	ldmfd	sp, {fp, sp, pc}	@
	.fnend
	.size	MVC_StopPicNum, .-MVC_StopPicNum
	.align	2
	.global	MVC_GetPicStreamSize
	.type	MVC_GetPicStreamSize, %function
MVC_GetPicStreamSize:
	.fnstart
.LFB1633:
	@ args = 0, pretend = 0, frame = 0
	@ frame_needed = 1, uses_anonymous_args = 0
	.movsp ip
	mov	ip, sp	@,
	stmfd	sp!, {fp, ip, lr, pc}	@,
	.pad #4
	.save {fp, ip, lr}
	.setfp fp, ip, #-4
	sub	fp, ip, #4	@,,
	push	{lr}
	bl	__gnu_mcount_nc
	movw	r3, #:lower16:11153452	@ tmp138,
	movt	r3, #:upper16:11153452	@ tmp138,
	ldr	r3, [r0, r3]	@ pMVCSliceParam, <variable>.DecPicPara.pFirstSlice
	cmp	r3, #0	@ pMVCSliceParam,
	moveq	r0, r3	@ TotalSize, pMVCSliceParam
	ldmeqfd	sp, {fp, sp, pc}	@
	mov	r0, #0	@ TotalSize,
.L882:
	ldr	r2, [r3, #12]	@ <variable>.valid_bitlen, <variable>.valid_bitlen
	ldr	r1, [r3, #8]	@ <variable>.valid_bitlen, <variable>.valid_bitlen
	ldr	r3, [r3, #4056]	@ pMVCSliceParam, <variable>.pNextSlice
	add	ip, r1, r2	@ tmp139, <variable>.valid_bitlen, <variable>.valid_bitlen
	add	r2, ip, #7	@ tmp142, tmp139,
	cmp	r3, #0	@ pMVCSliceParam,
	add	r0, r0, r2, lsr #3	@, TotalSize, TotalSize, tmp142,
	bne	.L882	@,
	ldmfd	sp, {fp, sp, pc}	@
	.fnend
	.size	MVC_GetPicStreamSize, .-MVC_GetPicStreamSize
	.align	2
	.global	MVC_ExitSlice
	.type	MVC_ExitSlice, %function
MVC_ExitSlice:
	.fnstart
.LFB1644:
	@ args = 0, pretend = 0, frame = 0
	@ frame_needed = 1, uses_anonymous_args = 0
	.movsp ip
	mov	ip, sp	@,
	stmfd	sp!, {r3, r4, r5, r6, r7, r8, fp, ip, lr, pc}	@,
	.pad #4
	.save {r3, r4, r5, r6, r7, r8, fp, ip, lr}
	.setfp fp, ip, #-4
	sub	fp, ip, #4	@,,
	push	{lr}
	bl	__gnu_mcount_nc
	movw	r4, #:lower16:11117048	@ tmp137,
	movt	r4, #:upper16:11117048	@ tmp137,
	movw	r2, #:lower16:11117033	@ tmp148,
	movt	r2, #:upper16:11117033	@ tmp148,
	movw	r7, #:lower16:11118700	@ tmp136,
	ldr	r6, [r0, r4]	@ <variable>.CurrSlice.pic_parameter_set_id, <variable>.CurrSlice.pic_parameter_set_id
	movt	r7, #:upper16:11118700	@ tmp136,
	ldr	r4, [r0, #236]	@ sps, <variable>.pCurrSPS
	movw	r3, #:lower16:11117088	@ tmp142,
	movw	r8, #:lower16:11117060	@ tmp145,
	movt	r3, #:upper16:11117088	@ tmp142,
	movt	r8, #:upper16:11117060	@ tmp145,
	ldrb	r5, [r0, r2]	@ zero_extendqisi2	@ <variable>.CurrSlice.field_pic_flag, <variable>.CurrSlice.field_pic_flag
	str	r6, [r0, r7]	@ <variable>.CurrSlice.pic_parameter_set_id, <variable>.PrevSlice.pic_parameter_set_id
	movw	ip, #:lower16:11118696	@ tmp139,
	ldr	r7, [r0, r3]	@ <variable>.CurrSlice.first_mb_in_slice, <variable>.CurrSlice.first_mb_in_slice
	movt	ip, #:upper16:11118696	@ tmp139,
	ldr	r6, [r0, r8]	@ <variable>.CurrSlice.frame_num, <variable>.CurrSlice.frame_num
	movw	r1, #:lower16:11118728	@ tmp141,
	ldr	r8, [r4, #744]	@ <variable>.seq_parameter_set_id, <variable>.seq_parameter_set_id
	movt	r1, #:upper16:11118728	@ tmp141,
	movw	r2, #:lower16:11118704	@ tmp144,
	movw	r3, #:lower16:11118688	@ tmp147,
	movt	r2, #:upper16:11118704	@ tmp144,
	movt	r3, #:upper16:11118688	@ tmp147,
	cmp	r5, #0	@ <variable>.CurrSlice.field_pic_flag,
	str	r8, [r0, ip]	@ <variable>.seq_parameter_set_id, <variable>.PrevSlice.seq_parameter_set_id
	str	r7, [r0, r1]	@ <variable>.CurrSlice.first_mb_in_slice, <variable>.PrevSlice.first_mb_in_slice
	str	r6, [r0, r2]	@ <variable>.CurrSlice.frame_num, <variable>.PrevSlice.frame_num
	strb	r5, [r0, r3]	@ <variable>.CurrSlice.field_pic_flag, <variable>.PrevSlice.field_pic_flag
	beq	.L886	@,
	movw	r3, #:lower16:11117034	@ tmp154,
	movt	r3, #:upper16:11117034	@ tmp154,
	movw	ip, #:lower16:11118689	@ tmp153,
	movt	ip, #:upper16:11118689	@ tmp153,
	ldrb	r1, [r0, r3]	@ zero_extendqisi2	@ <variable>.CurrSlice.bottom_field_flag, <variable>.CurrSlice.bottom_field_flag
	strb	r1, [r0, ip]	@ <variable>.CurrSlice.bottom_field_flag, <variable>.PrevSlice.bottom_field_flag
.L886:
	movw	r2, #:lower16:11117035	@ tmp162,
	movt	r2, #:upper16:11117035	@ tmp162,
	movw	r3, #:lower16:11117040	@ tmp158,
	movt	r3, #:upper16:11117040	@ tmp158,
	ldrb	r1, [r0, r2]	@ zero_extendqisi2	@ <variable>.CurrSlice.nal_unit_type, <variable>.CurrSlice.nal_unit_type
	movw	r2, #:lower16:11118691	@ tmp157,
	ldrb	ip, [r0, r3]	@ zero_extendqisi2	@ <variable>.CurrSlice.nal_ref_idc, <variable>.CurrSlice.nal_ref_idc
	movt	r2, #:upper16:11118691	@ tmp157,
	movw	r3, #:lower16:11118690	@ tmp161,
	cmp	r1, #5	@ <variable>.CurrSlice.nal_unit_type,
	movt	r3, #:upper16:11118690	@ tmp161,
	strb	ip, [r0, r2]	@ <variable>.CurrSlice.nal_ref_idc, <variable>.PrevSlice.nal_ref_idc
	strb	r1, [r0, r3]	@ <variable>.CurrSlice.nal_unit_type, <variable>.PrevSlice.nal_unit_type
	beq	.L892	@,
.L887:
	ldr	r3, [r4, #2900]	@ prephitmp.2744, <variable>.pic_order_cnt_type
	cmp	r3, #0	@ prephitmp.2744,
	bne	.L888	@,
	movw	r1, #:lower16:11115900	@ tmp171,
	movw	r3, #:lower16:11115904	@ tmp174,
	movt	r1, #:upper16:11115900	@ tmp171,
	movt	r3, #:upper16:11115904	@ tmp174,
	movw	r2, #:lower16:11118712	@ tmp170,
	movt	r2, #:upper16:11118712	@ tmp170,
	ldr	ip, [r0, r1]	@ <variable>.CurrPOC.pic_order_cnt_lsb, <variable>.CurrPOC.pic_order_cnt_lsb
	ldr	r1, [r0, r3]	@ <variable>.CurrPOC.delta_pic_order_cnt_bottom, <variable>.CurrPOC.delta_pic_order_cnt_bottom
	movw	r3, #:lower16:11118716	@ tmp173,
	movt	r3, #:upper16:11118716	@ tmp173,
	str	ip, [r0, r2]	@ <variable>.CurrPOC.pic_order_cnt_lsb, <variable>.PrevSlice.pic_oder_cnt_lsb
	str	r1, [r0, r3]	@ <variable>.CurrPOC.delta_pic_order_cnt_bottom, <variable>.PrevSlice.delta_pic_oder_cnt_bottom
	ldr	r3, [r4, #2900]	@ prephitmp.2744, <variable>.pic_order_cnt_type
.L888:
	cmp	r3, #1	@ prephitmp.2744,
	beq	.L893	@,
.L889:
	movw	ip, #:lower16:11117043	@ tmp182,
	movt	ip, #:upper16:11117043	@ tmp182,
	ldrb	r2, [r0, ip]	@ zero_extendqisi2	@ <variable>.CurrSlice.mvcinfo_flag, <variable>.CurrSlice.mvcinfo_flag
	cmp	r2, #1	@ <variable>.CurrSlice.mvcinfo_flag,
	bne	.L890	@,
	movw	r4, #:lower16:11118672	@ tmp185,
	movw	ip, #:lower16:11117041	@ tmp188,
	movt	r4, #:upper16:11118672	@ tmp185,
	movt	ip, #:upper16:11117041	@ tmp188,
	movw	r3, #:lower16:11117042	@ tmp192,
	movt	r3, #:upper16:11117042	@ tmp192,
	ldr	r5, [r0, r4]	@ <variable>.CurrSlice.view_id, <variable>.CurrSlice.view_id
	movw	r1, #:lower16:11118732	@ tmp184,
	ldrb	r4, [r0, ip]	@ zero_extendqisi2	@ <variable>.CurrSlice.anchor_pic_flag, <variable>.CurrSlice.anchor_pic_flag
	movt	r1, #:upper16:11118732	@ tmp184,
	ldrb	ip, [r0, r3]	@ zero_extendqisi2	@ <variable>.CurrSlice.inter_view_flag, <variable>.CurrSlice.inter_view_flag
	movw	r2, #:lower16:11118692	@ tmp187,
	movw	r3, #:lower16:11118693	@ tmp191,
	movt	r2, #:upper16:11118692	@ tmp187,
	movt	r3, #:upper16:11118693	@ tmp191,
	str	r5, [r0, r1]	@ <variable>.CurrSlice.view_id, <variable>.PrevSlice.view_id
	strb	r4, [r0, r2]	@ <variable>.CurrSlice.anchor_pic_flag, <variable>.PrevSlice.anchor_pic_flag
	strb	ip, [r0, r3]	@ <variable>.CurrSlice.inter_view_flag, <variable>.PrevSlice.inter_view_flag
.L890:
	ldr	r1, [r0, #80]	@ <variable>.TotalSlice, <variable>.TotalSlice
	add	r2, r1, #1	@ tmp196, <variable>.TotalSlice,
	str	r2, [r0, #80]	@ tmp196, <variable>.TotalSlice
	ldmfd	sp, {r3, r4, r5, r6, r7, r8, fp, sp, pc}	@
.L893:
	movw	r1, #:lower16:11115936	@ tmp177,
	movw	r3, #:lower16:11115940	@ tmp180,
	movt	r1, #:upper16:11115936	@ tmp177,
	movt	r3, #:upper16:11115940	@ tmp180,
	movw	r2, #:lower16:11118720	@ tmp176,
	movt	r2, #:upper16:11118720	@ tmp176,
	ldr	ip, [r0, r1]	@ <variable>.CurrPOC.delta_pic_order_cnt, <variable>.CurrPOC.delta_pic_order_cnt
	ldr	r1, [r0, r3]	@ <variable>.CurrPOC.delta_pic_order_cnt, <variable>.CurrPOC.delta_pic_order_cnt
	movw	r3, #:lower16:11118724	@ tmp179,
	movt	r3, #:upper16:11118724	@ tmp179,
	str	ip, [r0, r2]	@ <variable>.CurrPOC.delta_pic_order_cnt, <variable>.PrevSlice.delta_pic_order_cnt
	str	r1, [r0, r3]	@ <variable>.CurrPOC.delta_pic_order_cnt, <variable>.PrevSlice.delta_pic_order_cnt
	b	.L889	@
.L892:
	movw	r3, #:lower16:11117076	@ tmp168,
	movt	r3, #:upper16:11117076	@ tmp168,
	movw	ip, #:lower16:11118708	@ tmp167,
	movt	ip, #:upper16:11118708	@ tmp167,
	ldr	r1, [r0, r3]	@ <variable>.CurrSlice.idr_pic_id, <variable>.CurrSlice.idr_pic_id
	str	r1, [r0, ip]	@ <variable>.CurrSlice.idr_pic_id, <variable>.PrevSlice.idr_pic_id
	b	.L887	@
	.fnend
	.size	MVC_ExitSlice, .-MVC_ExitSlice
	.align	2
	.global	MVC_PicTypeStatistic
	.type	MVC_PicTypeStatistic, %function
MVC_PicTypeStatistic:
	.fnstart
.LFB1645:
	@ args = 0, pretend = 0, frame = 0
	@ frame_needed = 1, uses_anonymous_args = 0
	.movsp ip
	mov	ip, sp	@,
	stmfd	sp!, {fp, ip, lr, pc}	@,
	.pad #4
	.save {fp, ip, lr}
	.setfp fp, ip, #-4
	sub	fp, ip, #4	@,,
	push	{lr}
	bl	__gnu_mcount_nc
	movw	r3, #:lower16:11117032	@ tmp134,
	movt	r3, #:upper16:11117032	@ tmp134,
	ldrb	r3, [r0, r3]	@ zero_extendqisi2	@ <variable>.CurrSlice.slice_type, <variable>.CurrSlice.slice_type
	cmp	r3, #1	@ <variable>.CurrSlice.slice_type,
	beq	.L897	@,
	bcs	.L902	@,
	movw	ip, #:lower16:11150564	@ tmp142,
	movt	ip, #:upper16:11150564	@ tmp142,
	ldrb	r2, [r0, ip]	@ zero_extendqisi2	@ <variable>.CurrPic.pic_type, <variable>.CurrPic.pic_type
	cmp	r2, #2	@ <variable>.CurrPic.pic_type,
	movne	r2, #1	@ tmp145,
	strneb	r2, [r0, ip]	@ tmp145, <variable>.CurrPic.pic_type
.L900:
	movw	r3, #:lower16:11150565	@ tmp155,
	movt	r3, #:upper16:11150565	@ tmp155,
	mov	r1, #0	@ tmp156,
	strb	r1, [r0, r3]	@ tmp156, <variable>.CurrPic.is_idr_pic
	ldmfd	sp, {fp, sp, pc}	@
.L902:
	cmp	r3, #2	@ <variable>.CurrSlice.slice_type,
	ldmnefd	sp, {fp, sp, pc}	@
	movw	r3, #:lower16:11117035	@ tmp150,
	movt	r3, #:upper16:11117035	@ tmp150,
	ldrb	r1, [r0, r3]	@ zero_extendqisi2	@ <variable>.CurrSlice.nal_unit_type, <variable>.CurrSlice.nal_unit_type
	cmp	r1, #5	@ <variable>.CurrSlice.nal_unit_type,
	bne	.L900	@,
	movw	ip, #:lower16:11150565	@ tmp152,
	movt	ip, #:upper16:11150565	@ tmp152,
	mov	r2, #1	@ tmp153,
	strb	r2, [r0, ip]	@ tmp153, <variable>.CurrPic.is_idr_pic
	ldmfd	sp, {fp, sp, pc}	@
.L897:
	movw	r3, #:lower16:11150564	@ tmp136,
	movw	ip, #:lower16:11150565	@ tmp139,
	movt	r3, #:upper16:11150564	@ tmp136,
	movt	ip, #:upper16:11150565	@ tmp139,
	mov	r1, #2	@ tmp137,
	mov	r2, #0	@ tmp140,
	strb	r1, [r0, r3]	@ tmp137, <variable>.CurrPic.pic_type
	strb	r2, [r0, ip]	@ tmp140, <variable>.CurrPic.is_idr_pic
	ldmfd	sp, {fp, sp, pc}	@
	.fnend
	.size	MVC_PicTypeStatistic, .-MVC_PicTypeStatistic
	.align	2
	.global	MVC_FreeMvcExtMem
	.type	MVC_FreeMvcExtMem, %function
MVC_FreeMvcExtMem:
	.fnstart
.LFB1657:
	@ args = 0, pretend = 0, frame = 0
	@ frame_needed = 1, uses_anonymous_args = 0
	.movsp ip
	mov	ip, sp	@,
	stmfd	sp!, {fp, ip, lr, pc}	@,
	.pad #4
	.save {fp, ip, lr}
	.setfp fp, ip, #-4
	sub	fp, ip, #4	@,,
	push	{lr}
	bl	__gnu_mcount_nc
	mov	r0, #0	@,
	ldmfd	sp, {fp, sp, pc}	@
	.fnend
	.size	MVC_FreeMvcExtMem, .-MVC_FreeMvcExtMem
	.align	2
	.global	MVC_FreeMvcVuiExtMem
	.type	MVC_FreeMvcVuiExtMem, %function
MVC_FreeMvcVuiExtMem:
	.fnstart
.LFB1658:
	@ args = 0, pretend = 0, frame = 0
	@ frame_needed = 1, uses_anonymous_args = 0
	.movsp ip
	mov	ip, sp	@,
	stmfd	sp!, {fp, ip, lr, pc}	@,
	.pad #4
	.save {fp, ip, lr}
	.setfp fp, ip, #-4
	sub	fp, ip, #4	@,,
	push	{lr}
	bl	__gnu_mcount_nc
	mov	r0, #0	@,
	ldmfd	sp, {fp, sp, pc}	@
	.fnend
	.size	MVC_FreeMvcVuiExtMem, .-MVC_FreeMvcVuiExtMem
	.align	2
	.global	MVC_PassBytes
	.type	MVC_PassBytes, %function
MVC_PassBytes:
	.fnstart
.LFB1662:
	@ args = 0, pretend = 0, frame = 0
	@ frame_needed = 1, uses_anonymous_args = 0
	.movsp ip
	mov	ip, sp	@,
	stmfd	sp!, {r3, r4, r5, r6, fp, ip, lr, pc}	@,
	.pad #4
	.save {r3, r4, r5, r6, fp, ip, lr}
	.setfp fp, ip, #-4
	sub	fp, ip, #4	@,,
	push	{lr}
	bl	__gnu_mcount_nc
	ldr	r3, [r0, #232]	@ D.46698, <variable>.pCurrNal
	cmp	r3, #0	@ D.46698,
	cmpne	r1, #0	@, len,
	bne	.L914	@,
.L908:
	mvn	r0, #0	@ D.46704,
	ldmfd	sp, {r3, r4, r5, r6, fp, sp, pc}	@
.L914:
	ldrb	r2, [r3, #0]	@ zero_extendqisi2	@ D.46705, <variable>.nal_used_segment
	rsb	ip, r2, r2, asl #3	@, tmp155, D.46705, D.46705,
	add	ip, r3, ip, asl #2	@, tmp157, D.46698, tmp155,
	ldr	ip, [ip, #8]	@ <variable>.streamBuffer, <variable>.streamBuffer
	cmp	ip, #0	@ <variable>.streamBuffer,
	beq	.L908	@,
	ldr	ip, [r3, #68]	@ D.46712, <variable>.nal_segment
	cmp	ip, #2	@ D.46712,
	bhi	.L908	@,
	cmp	r2, #1	@ D.46705,
	bhi	.L908	@,
	cmp	ip, r2	@ D.46712, segment_idx
	bls	.L908	@,
	mov	r4, r1, asl #3	@ len.2855, len,
	mov	r6, #28	@ tmp188,
.L912:
	mla	r3, r6, r2, r3	@ tmp163, tmp188, segment_idx, D.46698
	add	r2, r2, #1	@ segment_idx, segment_idx,
	add	r5, r3, #24	@ tmp164, tmp163,
	ldr	r1, [r3, #12]	@ <variable>.bitstream_length, <variable>.bitstream_length
	ldr	ip, [r3, #24]	@ <variable>.bitsoffset, <variable>.bitsoffset
	mov	r1, r1, asl #3	@ D.46720, <variable>.bitstream_length,
	add	ip, r4, ip	@ D.46718, len.2855, <variable>.bitsoffset
	cmp	ip, r1	@ D.46718, D.46720
	rsb	r4, r1, ip	@ len.2855, D.46720, D.46718
	bls	.L915	@,
	str	r1, [r3, #24]	@ D.46720, <variable>.bitsoffset
	ldr	r3, [r0, #232]	@ temp.2856, <variable>.pCurrNal
	ldrb	r1, [r3, #0]	@ zero_extendqisi2	@ <variable>.nal_used_segment, <variable>.nal_used_segment
	add	ip, r1, #1	@ tmp184, <variable>.nal_used_segment,
	strb	ip, [r3, #0]	@ tmp184, <variable>.nal_used_segment
	ldr	r3, [r0, #232]	@ D.46698, <variable>.pCurrNal
	ldr	r1, [r3, #68]	@ <variable>.nal_segment, <variable>.nal_segment
	cmp	r1, r2	@ <variable>.nal_segment, segment_idx
	bhi	.L912	@,
	mov	r0, #0	@ D.46704,
	ldmfd	sp, {r3, r4, r5, r6, fp, sp, pc}	@
.L915:
	str	ip, [r5, #0]	@ D.46718, <variable>.bitsoffset
	mov	r0, #1	@ D.46704,
	ldmfd	sp, {r3, r4, r5, r6, fp, sp, pc}	@
	.fnend
	.size	MVC_PassBytes, .-MVC_PassBytes
	.align	2
	.global	MVC_GetBytes
	.type	MVC_GetBytes, %function
MVC_GetBytes:
	.fnstart
.LFB1663:
	@ args = 0, pretend = 0, frame = 0
	@ frame_needed = 1, uses_anonymous_args = 0
	.movsp ip
	mov	ip, sp	@,
	stmfd	sp!, {r3, r4, r5, r6, r7, r8, r9, sl, fp, ip, lr, pc}	@,
	.pad #4
	.save {r3, r4, r5, r6, r7, r8, r9, sl, fp, ip, lr}
	.setfp fp, ip, #-4
	sub	fp, ip, #4	@,,
	push	{lr}
	bl	__gnu_mcount_nc
	cmp	r1, #0	@ pdes
	bne	.L925	@,
.L917:
	mvn	r0, #0	@ D.46746,
	ldmfd	sp, {r3, r4, r5, r6, r7, r8, r9, sl, fp, sp, pc}	@
.L925:
	ldr	r5, [r0, #232]	@ D.46742, <variable>.pCurrNal
	cmp	r5, #0	@ D.46742,
	cmpne	r2, #0	@, len,
	movne	r4, #0	@, tmp158
	moveq	r4, #1	@, tmp158
	beq	.L917	@,
	ldrb	ip, [r5, #0]	@ zero_extendqisi2	@ D.46747, <variable>.nal_used_segment
	rsb	r3, ip, ip, asl #3	@, tmp162, D.46747, D.46747,
	add	r3, r5, r3, asl #2	@, tmp164, D.46742, tmp162,
	ldr	r3, [r3, #8]	@ <variable>.streamBuffer, <variable>.streamBuffer
	cmp	r3, #0	@ <variable>.streamBuffer,
	beq	.L917	@,
	ldr	r3, [r5, #68]	@ D.46754, <variable>.nal_segment
	cmp	r3, #2	@ D.46754,
	bhi	.L917	@,
	cmp	ip, #1	@ D.46747,
	bhi	.L917	@,
	cmp	r3, ip	@ D.46754, segment_idx
	bls	.L917	@,
	mov	r9, #28	@ tmp208,
.L922:
	mul	r8, r9, ip	@ tmp168, tmp208, segment_idx
	mov	r3, #0	@ ivtmp.2886,
	add	sl, r8, r5	@ tmp170, tmp168, D.46742
	ldr	r6, [sl, #24]	@ <variable>.bitsoffset, <variable>.bitsoffset
	ldr	r5, [sl, #8]	@ D.46759, <variable>.streamBuffer
	ldr	r7, [sl, #12]	@ <variable>.bitstream_length, <variable>.bitstream_length
	add	r6, r6, #7	@ tmp177, <variable>.bitsoffset,
	add	r7, r5, r7	@ end_byte, D.46759, <variable>.bitstream_length
	add	r5, r5, r6, lsr #3	@, byte_pos, D.46759, tmp177,
.L918:
	add	sl, r3, r5	@ D.50659, ivtmp.2886, byte_pos
	add	r6, r3, r1	@ D.50657, ivtmp.2886, pdes
	cmp	r7, sl	@ end_byte, D.50659
	bls	.L926	@,
	ldrb	sl, [r5, r3]	@ zero_extendqisi2	@ tmp186,* ivtmp.2886
	add	r4, r4, #1	@ cnt, cnt,
	cmp	r2, r4	@ len, cnt
	strb	sl, [r1, r3]	@ tmp186,* ivtmp.2886
	add	r3, r3, #1	@ ivtmp.2886, ivtmp.2886,
	ldr	r6, [r0, #232]	@ temp.2904, <variable>.pCurrNal
	add	r6, r8, r6	@ tmp191, tmp207, temp.2904
	ldr	sl, [r6, #24]	@ <variable>.bitsoffset, <variable>.bitsoffset
	add	sl, sl, #8	@ tmp199, <variable>.bitsoffset,
	str	sl, [r6, #24]	@ tmp199, <variable>.bitsoffset
	bhi	.L918	@,
	mov	r0, r2	@ D.46746, len
	ldmfd	sp, {r3, r4, r5, r6, r7, r8, r9, sl, fp, sp, pc}	@
.L926:
	ldr	r3, [r0, #232]	@ temp.2906, <variable>.pCurrNal
	add	ip, ip, #1	@ segment_idx, segment_idx,
	ldrb	r1, [r3, #0]	@ zero_extendqisi2	@ <variable>.nal_used_segment, <variable>.nal_used_segment
	add	r5, r1, #1	@ tmp202, <variable>.nal_used_segment,
	strb	r5, [r3, #0]	@ tmp202, <variable>.nal_used_segment
	ldr	r5, [r0, #232]	@ D.46742, <variable>.pCurrNal
	ldr	r1, [r5, #68]	@ <variable>.nal_segment, <variable>.nal_segment
	cmp	r1, ip	@ <variable>.nal_segment, segment_idx
	movhi	r1, r6	@ pdes, D.50657
	bhi	.L922	@
.L921:
	mov	r0, r4	@ D.46746, cnt
	ldmfd	sp, {r3, r4, r5, r6, r7, r8, r9, sl, fp, sp, pc}	@
	.fnend
	.size	MVC_GetBytes, .-MVC_GetBytes
	.align	2
	.global	MVC_InitOldSlice
	.type	MVC_InitOldSlice, %function
MVC_InitOldSlice:
	.fnstart
.LFB1667:
	@ args = 0, pretend = 0, frame = 16
	@ frame_needed = 1, uses_anonymous_args = 0
	.movsp ip
	mov	ip, sp	@,
	stmfd	sp!, {r4, r5, r6, r7, r8, r9, sl, fp, ip, lr, pc}	@,
	.pad #4
	.save {r4, r5, r6, r7, r8, r9, sl, fp, ip, lr}
	.setfp fp, ip, #-4
	sub	fp, ip, #4	@,,
	.pad #20
	sub	sp, sp, #20	@,,
	push	{lr}
	bl	__gnu_mcount_nc
	movw	r3, #:lower16:11118728	@,
	movt	r3, #:upper16:11118728	@,
	str	r3, [fp, #-56]	@, %sfp
	ldr	r3, [r0, #40]	@, <variable>.MaxPpsNum
	movw	r2, #:lower16:11118700	@,
	movt	r2, #:upper16:11118700	@,
	movw	r7, #:lower16:11118704	@ tmp161,
	movw	r9, #:lower16:11118688	@ tmp163,
	movt	r7, #:upper16:11118704	@ tmp161,
	str	r3, [r0, r2]	@, <variable>.PrevSlice.pic_parameter_set_id
	movt	r9, #:upper16:11118688	@ tmp163,
	ldr	r2, [fp, #-56]	@, %sfp
	movw	r6, #:lower16:11118689	@ tmp164,
	movw	r5, #:lower16:11118691	@ tmp165,
	movt	r6, #:upper16:11118689	@ tmp164,
	movt	r5, #:upper16:11118691	@ tmp165,
	movw	r4, #:lower16:11118690	@ tmp166,
	movw	ip, #:lower16:11118712	@ tmp167,
	movt	r4, #:upper16:11118690	@ tmp166,
	movt	ip, #:upper16:11118712	@ tmp167,
	movw	r1, #:lower16:11118716	@ tmp168,
	movw	r8, #:lower16:11118720	@ tmp169,
	movt	r1, #:upper16:11118716	@ tmp168,
	movt	r8, #:upper16:11118720	@ tmp169,
	movw	sl, #:lower16:11118724	@ tmp170,
	movt	sl, #:upper16:11118724	@ tmp170,
	mov	r3, #0	@ tmp139,
	str	r3, [r0, r8]	@ tmp139, <variable>.PrevSlice.delta_pic_order_cnt
	movw	r8, #:lower16:88888	@ tmp162,
	str	r3, [r0, sl]	@ tmp139, <variable>.PrevSlice.delta_pic_order_cnt
	movt	r8, #:upper16:88888	@ tmp162,
	strb	r3, [r0, r9]	@ tmp139, <variable>.PrevSlice.field_pic_flag
	str	r8, [r0, r7]	@ tmp162, <variable>.PrevSlice.frame_num
	mov	r7, #2	@ tmp142,
	strb	r7, [r0, r6]	@ tmp142, <variable>.PrevSlice.bottom_field_flag
	mov	r6, #7	@ tmp145,
	strb	r6, [r0, r5]	@ tmp145, <variable>.PrevSlice.nal_ref_idc
	mov	r5, #32	@ tmp148,
	strb	r5, [r0, r4]	@ tmp148, <variable>.PrevSlice.nal_unit_type
	mov	r4, #3	@ tmp151,
	str	r4, [r0, ip]	@ tmp151, <variable>.PrevSlice.pic_oder_cnt_lsb
	mvn	ip, #0	@ tmp153,
	str	ip, [r0, r1]	@ tmp153, <variable>.PrevSlice.delta_pic_oder_cnt_bottom
	mov	r1, #262144	@ tmp159,
	str	r1, [r0, r2]	@ tmp159, <variable>.PrevSlice.first_mb_in_slice
	sub	sp, fp, #40
	ldmfd	sp, {r4, r5, r6, r7, r8, r9, sl, fp, sp, pc}
	.fnend
	.size	MVC_InitOldSlice, .-MVC_InitOldSlice
	.align	2
	.global	MVC_FindNaluArraySlot
	.type	MVC_FindNaluArraySlot, %function
MVC_FindNaluArraySlot:
	.fnstart
.LFB1675:
	@ args = 0, pretend = 0, frame = 0
	@ frame_needed = 1, uses_anonymous_args = 0
	.movsp ip
	mov	ip, sp	@,
	stmfd	sp!, {fp, ip, lr, pc}	@,
	.pad #4
	.save {fp, ip, lr}
	.setfp fp, ip, #-4
	sub	fp, ip, #4	@,,
	push	{lr}
	bl	__gnu_mcount_nc
	ldrb	r2, [r0, #937]	@ zero_extendqisi2	@ <variable>.is_valid, <variable>.is_valid
	mov	r3, #0	@ Pos,
	cmp	r2, r3	@ <variable>.is_valid,
	addne	r2, r0, #88	@ ivtmp.2964, pMvcCtx,
	movne	r3, #1	@ Pos,
	bne	.L931	@,
	b	.L930	@
.L940:
	ldrb	ip, [r2, #1025]	@ zero_extendqisi2	@ <variable>.is_valid, <variable>.is_valid
	add	r3, r3, #1	@ Pos, Pos,
	add	r2, r2, #176	@ ivtmp.2964, ivtmp.2964,
	cmp	ip, #0	@ <variable>.is_valid,
	beq	.L930	@,
	add	r3, r3, #1	@ Pos, Pos,
	cmp	r3, #137	@ Pos,
	beq	.L932	@,
.L931:
	ldrb	r1, [r2, #937]	@ zero_extendqisi2	@ <variable>.is_valid, <variable>.is_valid
	cmp	r1, #0	@ <variable>.is_valid,
	bne	.L940	@,
.L930:
	cmp	r3, #136	@ Pos,
	bhi	.L932	@,
	mov	r1, #88	@ tmp150,
	mov	r2, r3	@ D.47694, Pos
	mla	r3, r1, r3, r0	@ tmp151, tmp150, Pos, pMvcCtx
	mov	r0, #1	@ tmp153,
	strb	r0, [r3, #937]	@ tmp153, <variable>.is_valid
	mov	r0, r2	@, D.47694
	ldmfd	sp, {fp, sp, pc}	@
.L932:
	mvn	r2, #0	@ D.47694,
	mov	r0, r2	@, D.47694
	ldmfd	sp, {fp, sp, pc}	@
	.fnend
	.size	MVC_FindNaluArraySlot, .-MVC_FindNaluArraySlot
	.align	2
	.global	MVC_HaveSliceToDec
	.type	MVC_HaveSliceToDec, %function
MVC_HaveSliceToDec:
	.fnstart
.LFB1677:
	@ args = 0, pretend = 0, frame = 0
	@ frame_needed = 1, uses_anonymous_args = 0
	.movsp ip
	mov	ip, sp	@,
	stmfd	sp!, {fp, ip, lr, pc}	@,
	.pad #4
	.save {fp, ip, lr}
	.setfp fp, ip, #-4
	sub	fp, ip, #4	@,,
	push	{lr}
	bl	__gnu_mcount_nc
	ldr	r3, [r0, #64]	@ <variable>.SliceParaNum, <variable>.SliceParaNum
	cmp	r3, #0	@ <variable>.SliceParaNum,
	mvneq	r0, #0	@,,
	movne	r0, #0	@,,
	ldmfd	sp, {fp, sp, pc}	@
	.fnend
	.size	MVC_HaveSliceToDec, .-MVC_HaveSliceToDec
	.global	__aeabi_idiv
	.align	2
	.global	MVC_GetDar
	.type	MVC_GetDar, %function
MVC_GetDar:
	.fnstart
.LFB1654:
	@ args = 4, pretend = 0, frame = 0
	@ frame_needed = 1, uses_anonymous_args = 0
	.movsp ip
	mov	ip, sp	@,
	stmfd	sp!, {r3, r4, fp, ip, lr, pc}	@,
	.pad #4
	.save {r3, r4, fp, ip, lr}
	.setfp fp, ip, #-4
	sub	fp, ip, #4	@,,
	push	{lr}
	bl	__gnu_mcount_nc
	cmp	r0, #0	@ ar_idc
	mov	ip, r1	@ sar_width, sar_width
	beq	.L946	@,
	subs	r1, r0, #255	@ D.45851, ar_idc,
	movne	r1, #1	@ D.45851
	cmp	r0, #255	@ ar_idc,
	cmpne	r0, #16	@, ar_idc,
	bgt	.L946	@,
	cmp	ip, #0	@ sar_width,
	cmpne	r2, #0	@, sar_height,
	beq	.L963	@,
.L947:
	cmp	r0, #1	@ ar_idc,
	moveq	r4, #5	@ final_dar,
	beq	.L949	@,
	cmp	r1, #0	@ D.45851,
	beq	.L950	@,
	movw	r2, #:lower16:.LANCHOR0	@ tmp162,
	movt	r2, #:upper16:.LANCHOR0	@ tmp162,
	add	r1, r2, r0, asl #3	@, tmp171, tmp162, ar_idc,
	ldr	r2, [r1, #84]	@ sar_height, MVC_SarTable
	ldr	ip, [r1, #80]	@ sar_width, MVC_SarTable
.L950:
	ldr	r0, [fp, #4]	@ img_height, img_height
	mov	lr, r3, asl #10	@ tmp174, img_width,
	mul	r1, r0, r2	@, img_height, sar_height
	mul	r0, ip, lr	@, sar_width, tmp174
	bl	__aeabi_idiv	@
	sub	r1, r0, #2400	@ iftmp.789, dar,
	sub	r3, r0, #2256	@ iftmp.3015, dar,
	sub	ip, r1, #6	@ iftmp.789, iftmp.789,
	sub	r3, r3, #7	@ iftmp.3015, iftmp.3015,
	cmp	ip, #0	@ iftmp.789,
	rsblt	ip, r0, #2400	@ tmp181, dar,
	addlt	ip, ip, #6	@ iftmp.789, tmp181,
	cmp	r3, #0	@ iftmp.3015,
	rsblt	r1, r0, #2256	@ tmp183, dar,
	addlt	r1, r1, #7	@ iftmp.790, tmp183,
	movge	r1, r3	@ iftmp.790, iftmp.3015
	cmp	r1, ip	@ iftmp.790, iftmp.789
	movgt	r4, #4	@ final_dar,
	bgt	.L949	@,
	cmp	r3, #0	@ iftmp.3015,
	sub	r2, r0, #1808	@ iftmp.3016, dar,
	rsblt	r3, r0, #2256	@ tmp184, dar,
	sub	r2, r2, #12	@ iftmp.3016, iftmp.3016,
	addlt	r3, r3, #7	@ iftmp.3015, tmp184,
	cmp	r2, #0	@ iftmp.3016,
	rsblt	r1, r0, #1808	@ tmp186, dar,
	addlt	r1, r1, #12	@ iftmp.792, tmp186,
	movge	r1, r2	@ iftmp.792, iftmp.3016
	cmp	r3, r1	@ iftmp.3015, iftmp.792
	movlt	r4, #3	@ final_dar,
	blt	.L949	@,
	cmp	r2, #0	@ iftmp.3016,
	sub	r4, r0, #1360	@ iftmp.794, dar,
	sub	r4, r4, #5	@ iftmp.794, iftmp.794,
	rsblt	r2, r0, #1808	@ tmp187, dar,
	addlt	r2, r2, #12	@ iftmp.3016, tmp187,
	cmp	r4, #0	@ iftmp.794,
	rsblt	r4, r0, #1360	@ tmp189, dar,
	addlt	r4, r4, #5	@ iftmp.794, tmp189,
	cmp	r2, r4	@ iftmp.3016, iftmp.794
	movlt	r4, #2	@ final_dar,
	movge	r4, #1	@ final_dar,
	b	.L949	@
.L963:
	cmp	r0, #255	@ ar_idc,
	bne	.L947	@,
.L946:
	mov	r4, #0	@ final_dar,
.L949:
	mov	r2, r4	@, final_dar
	mov	r0, #22	@,
	movw	r1, #:lower16:.LC0	@,
	movt	r1, #:upper16:.LC0	@,
	bl	dprint_vfmw	@
	mov	r0, r4	@, final_dar
	ldmfd	sp, {r3, r4, fp, sp, pc}	@
	.fnend
	.size	MVC_GetDar, .-MVC_GetDar
	.align	2
	.global	MVC_SPSEqual
	.type	MVC_SPSEqual, %function
MVC_SPSEqual:
	.fnstart
.LFB1653:
	@ args = 0, pretend = 0, frame = 16
	@ frame_needed = 1, uses_anonymous_args = 0
	.movsp ip
	mov	ip, sp	@,
	stmfd	sp!, {r4, r5, r6, r7, r8, r9, sl, fp, ip, lr, pc}	@,
	.pad #4
	.save {r4, r5, r6, r7, r8, r9, sl, fp, ip, lr}
	.setfp fp, ip, #-4
	sub	fp, ip, #4	@,,
	.pad #20
	sub	sp, sp, #20	@,,
	push	{lr}
	bl	__gnu_mcount_nc
	subs	r3, r0, #0	@ pSPS1, pSPS1
	beq	.L996	@,
	cmp	r1, #0	@ pSPS2,
	beq	.L997	@,
	ldr	r6, [r3, #736]	@ <variable>.profile_idc, <variable>.profile_idc
	ldr	r4, [r1, #736]	@ <variable>.profile_idc, <variable>.profile_idc
	ldrb	r7, [r3, #0]	@ zero_extendqisi2	@ <variable>.constrained_set0_flag, <variable>.constrained_set0_flag
	ldrb	r2, [r1, #0]	@ zero_extendqisi2	@ <variable>.constrained_set0_flag, <variable>.constrained_set0_flag
	ldrb	r5, [r3, #1]	@ zero_extendqisi2	@ <variable>.constrained_set1_flag, <variable>.constrained_set1_flag
	cmp	r6, r4	@ <variable>.profile_idc, <variable>.profile_idc
	cmpeq	r7, r2	@, <variable>.constrained_set0_flag, <variable>.constrained_set0_flag
	ldrb	r0, [r1, #1]	@ zero_extendqisi2	@ <variable>.constrained_set1_flag, <variable>.constrained_set1_flag
	ldrb	r4, [r3, #2]	@ zero_extendqisi2	@ <variable>.constrained_set2_flag, <variable>.constrained_set2_flag
	ldrb	r7, [r1, #2]	@ zero_extendqisi2	@ <variable>.constrained_set2_flag, <variable>.constrained_set2_flag
	movne	ip, #0	@, equal.3114
	moveq	ip, #1	@, equal.3114
	ldr	r6, [r1, #740]	@ <variable>.level_idc, <variable>.level_idc
	cmp	r5, r0	@ <variable>.constrained_set1_flag, <variable>.constrained_set1_flag
	movne	r0, #0	@, equal.3115
	andeq	r0, ip, #1	@,, equal.3115, equal.3114
	ldr	r5, [r3, #740]	@ <variable>.level_idc, <variable>.level_idc
	cmp	r4, r7	@ <variable>.constrained_set2_flag, <variable>.constrained_set2_flag
	movne	r2, #0	@, equal.3116
	andeq	r2, r0, #1	@,, equal.3116, equal.3115
	ldr	r4, [r3, #744]	@ <variable>.seq_parameter_set_id, <variable>.seq_parameter_set_id
	ldr	r7, [r1, #744]	@ <variable>.seq_parameter_set_id, <variable>.seq_parameter_set_id
	cmp	r5, r6	@ <variable>.level_idc, <variable>.level_idc
	movne	ip, #0	@, equal.3117
	andeq	ip, r2, #1	@,, equal.3117, equal.3116
	ldrb	r2, [r3, #27]	@ zero_extendqisi2	@ D.45743, <variable>.seq_scaling_matrix_present_flag
	ldrb	r6, [r1, #27]	@ zero_extendqisi2	@ <variable>.seq_scaling_matrix_present_flag, <variable>.seq_scaling_matrix_present_flag
	cmp	r4, r7	@ <variable>.seq_parameter_set_id, <variable>.seq_parameter_set_id
	movne	r0, #0	@, equal.3118
	andeq	r0, ip, #1	@,, equal.3118, equal.3117
	cmp	r6, r2	@ <variable>.seq_scaling_matrix_present_flag, D.45743
	movne	r6, #0	@, equal
	andeq	r6, r0, #1	@,, equal, equal.3118
	cmp	r2, #0	@ D.45743,
	beq	.L968	@,
	mov	r9, r3	@ ivtmp.3077, pSPS1
	mov	r8, r1	@ ivtmp.3079, pSPS2
	mov	sl, #0	@ i,
	str	r3, [fp, #-48]	@ pSPS1, %sfp
	str	r1, [fp, #-52]	@ pSPS2, %sfp
	b	.L972	@
.L999:
	ldr	r7, [fp, #-48]	@, %sfp
	mov	r4, sl, asl #6	@ tmp291, i,
	ldr	ip, [r9, #760]	@ tmp235, <variable>.ScalingList4x4
	add	r2, r4, r1	@, tmp291,
	ldr	r0, [r8, #760]	@ tmp236, <variable>.ScalingList4x4
	add	r5, r4, r7	@, tmp291,
	str	r2, [fp, #-60]	@, %sfp
	ldr	r1, [r9, #756]	@ tmp239, <variable>.ScalingList4x4
	str	r5, [fp, #-56]	@, %sfp
	ldr	r3, [r8, #756]	@ tmp240, <variable>.ScalingList4x4
	ldr	r5, [r9, #764]	@ tmp243, <variable>.ScalingList4x4
	cmp	ip, r0	@ tmp235, tmp236
	cmpeq	r1, r3	@, tmp239, tmp240
	ldr	r4, [r8, #764]	@ tmp244, <variable>.ScalingList4x4
	ldr	r7, [r9, #768]	@ tmp247, <variable>.ScalingList4x4
	ldr	r1, [r8, #768]	@ tmp248, <variable>.ScalingList4x4
	movne	r2, #0	@, equal.3135
	moveq	r2, #1	@, equal.3135
	ldr	ip, [r9, #772]	@ tmp251, <variable>.ScalingList4x4
	cmp	r5, r4	@ tmp243, tmp244
	movne	r3, #0	@, equal.3139
	andeq	r3, r2, #1	@,, equal.3139, equal.3135
	ldr	r0, [r8, #772]	@ tmp252, <variable>.ScalingList4x4
	cmp	r7, r1	@ tmp247, tmp248
	movne	r5, #0	@, equal.3143
	andeq	r5, r3, #1	@,, equal.3143, equal.3139
	ldr	r4, [r9, #776]	@ tmp255, <variable>.ScalingList4x4
	ldr	r3, [r8, #776]	@ tmp256, <variable>.ScalingList4x4
	cmp	ip, r0	@ tmp251, tmp252
	movne	r1, #0	@, equal.3147
	andeq	r1, r5, #1	@,, equal.3147, equal.3143
	ldr	r7, [r9, #780]	@ tmp259, <variable>.ScalingList4x4
	ldr	r2, [r8, #780]	@ tmp260, <variable>.ScalingList4x4
	cmp	r4, r3	@ tmp255, tmp256
	movne	r0, #0	@, equal.3151
	andeq	r0, r1, #1	@,, equal.3151, equal.3147
	ldr	r5, [r9, #784]	@ tmp263, <variable>.ScalingList4x4
	ldr	r3, [r8, #784]	@ tmp264, <variable>.ScalingList4x4
	cmp	r7, r2	@ tmp259, tmp260
	movne	ip, #0	@, equal.3155
	andeq	ip, r0, #1	@,, equal.3155, equal.3151
	ldr	r4, [r8, #788]	@ tmp268, <variable>.ScalingList4x4
	ldr	r7, [r9, #788]	@ tmp267, <variable>.ScalingList4x4
	cmp	r5, r3	@ tmp263, tmp264
	movne	r1, #0	@, equal.3159
	andeq	r1, ip, #1	@,, equal.3159, equal.3155
	ldr	ip, [r9, #792]	@ tmp271, <variable>.ScalingList4x4
	ldr	r5, [r8, #792]	@ tmp272, <variable>.ScalingList4x4
	cmp	r7, r4	@ tmp267, tmp268
	movne	r0, #0	@, equal.3163
	andeq	r0, r1, #1	@,, equal.3163, equal.3159
	ldr	r7, [r9, #796]	@ tmp275, <variable>.ScalingList4x4
	ldr	r4, [r8, #796]	@ tmp276, <variable>.ScalingList4x4
	cmp	ip, r5	@ tmp271, tmp272
	movne	r2, #0	@, equal.3167
	andeq	r2, r0, #1	@,, equal.3167, equal.3163
	ldr	r3, [r8, #800]	@ tmp280, <variable>.ScalingList4x4
	ldr	r5, [r9, #800]	@ tmp279, <variable>.ScalingList4x4
	cmp	r7, r4	@ tmp275, tmp276
	movne	r1, #0	@, equal.3171
	andeq	r1, r2, #1	@,, equal.3171, equal.3167
	ldr	ip, [r9, #804]	@ tmp283, <variable>.ScalingList4x4
	ldr	r2, [r8, #804]	@ tmp284, <variable>.ScalingList4x4
	cmp	r5, r3	@ tmp279, tmp280
	movne	r0, #0	@, equal.3175
	andeq	r0, r1, #1	@,, equal.3175, equal.3171
	ldr	r4, [fp, #-56]	@, %sfp
	cmp	ip, r2	@ tmp283, tmp284
	movne	r5, #0	@, equal.3179
	andeq	r5, r0, #1	@,, equal.3179, equal.3175
	ldr	ip, [fp, #-60]	@, %sfp
	ldr	r7, [r8, #808]	@ tmp288, <variable>.ScalingList4x4
	ldr	r1, [r9, #808]	@ tmp287, <variable>.ScalingList4x4
	ldr	r0, [r4, #752]	@ tmp299, <variable>.ScalingList4x4
	cmp	r1, r7	@ tmp287, tmp288
	movne	r5, #0	@, equal.3183
	andeq	r5, r5, #1	@,, equal.3183, equal.3179
	ldr	r3, [ip, #752]	@ tmp300, <variable>.ScalingList4x4
	and	r6, r6, r5	@ equal.3187, equal, equal.3183
	ldr	r7, [r9, #812]	@ tmp303, <variable>.ScalingList4x4
	ldr	r2, [r8, #812]	@ tmp304, <variable>.ScalingList4x4
	cmp	r0, r3	@ tmp299, tmp300
	movne	r4, #0	@, equal.3191
	andeq	r4, r6, #1	@,, equal.3191, equal.3187
	cmp	r7, r2	@ tmp303, tmp304
	movne	r6, #0	@, equal
	andeq	r6, r4, #1	@,, equal, equal.3191
.L969:
	add	sl, sl, #1	@ i, i,
	add	r9, r9, #64	@ ivtmp.3077, ivtmp.3077,
	cmp	sl, #8	@ i,
	add	r8, r8, #64	@ ivtmp.3079, ivtmp.3079,
	beq	.L998	@,
.L972:
	ldr	r1, [fp, #-48]	@, %sfp
	add	ip, r1, sl	@ tmp228,, i
	ldr	r1, [fp, #-52]	@, %sfp
	add	r5, r1, sl	@ tmp229,, i
	ldrb	r3, [ip, #6]	@ zero_extendqisi2	@ D.45749, <variable>.seq_scaling_list_present_flag
	ldrb	r0, [r5, #6]	@ zero_extendqisi2	@ D.45749, <variable>.seq_scaling_list_present_flag
	cmp	r3, r0	@ D.45749, D.45749
	movne	r6, #0	@, equal
	andeq	r6, r6, #1	@,, equal, equal
	cmp	r3, #0	@ D.45749,
	beq	.L969	@,
	cmp	sl, #5	@ i,
	bls	.L999	@,
	ldr	r0, [fp, #-52]	@, %sfp
	mov	r5, sl, asl #8	@ tmp306, i,
	ldr	r4, [fp, #-48]	@, %sfp
	sub	r1, r5, #400	@ tmp307, tmp306,
	ldr	r7, [fp, #-48]	@, %sfp
	add	r3, r0, r1	@ ivtmp.3064,, tmp307
	add	r2, r4, r1	@ ivtmp.3061,, tmp307
	ldr	r5, [r0, r1]	@ tmp312, <variable>.ScalingList8x8
	add	r0, r2, #8	@ ivtmp.3061, ivtmp.3061,
	mov	ip, #2	@ j,
	ldr	r4, [r7, r1]	@ tmp311, <variable>.ScalingList8x8
	add	r1, r3, #8	@ ivtmp.3064, ivtmp.3064,
	ldr	r7, [r2, #4]	@ tmp440, <variable>.ScalingList8x8
	ldr	r3, [r3, #4]	@ tmp441, <variable>.ScalingList8x8
	cmp	r4, r5	@ tmp311, tmp312
	movne	r6, #0	@, equal
	andeq	r6, r6, #1	@,, equal, equal
	cmp	r7, r3	@ tmp440, tmp441
	movne	r6, #0	@, equal
	andeq	r6, r6, #1	@,, equal, equal
.L971:
	mov	r2, r0	@ tmp406, ivtmp.3061
	mov	r3, r1	@ tmp407, ivtmp.3064
	ldr	r7, [r2], #4	@ tmp412, <variable>.ScalingList8x8
	add	ip, ip, #2	@ j, j,
	ldr	r5, [r3], #4	@ tmp413, <variable>.ScalingList8x8
	ldr	r4, [r0, #4]	@ tmp419, <variable>.ScalingList8x8
	add	r0, r2, #4	@ ivtmp.3061, tmp406,
	ldr	r2, [r1, #4]	@ tmp420, <variable>.ScalingList8x8
	cmp	r7, r5	@ tmp412, tmp413
	movne	r6, #0	@, equal
	andeq	r6, r6, #1	@,, equal, equal
	add	r1, r3, #4	@ ivtmp.3064, tmp407,
	cmp	r4, r2	@ tmp419, tmp420
	movne	r6, #0	@, equal
	andeq	r6, r6, #1	@,, equal, equal
	cmp	ip, #64	@ j,
	bne	.L971	@,
	add	sl, sl, #1	@ i, i,
	add	r9, r9, #64	@ ivtmp.3077, ivtmp.3077,
	cmp	sl, #8	@ i,
	add	r8, r8, #64	@ ivtmp.3079, ivtmp.3079,
	bne	.L972	@,
.L998:
	ldr	r3, [fp, #-48]	@ pSPS1, %sfp
	ldr	r1, [fp, #-52]	@ pSPS2, %sfp
.L968:
	ldr	r2, [r3, #2900]	@ D.45768, <variable>.pic_order_cnt_type
	ldr	r4, [r1, #2900]	@ <variable>.pic_order_cnt_type, <variable>.pic_order_cnt_type
	ldr	r0, [r3, #2896]	@ <variable>.log2_max_frame_num_minus4, <variable>.log2_max_frame_num_minus4
	ldr	r5, [r1, #2896]	@ <variable>.log2_max_frame_num_minus4, <variable>.log2_max_frame_num_minus4
	cmp	r2, r4	@ D.45768, <variable>.pic_order_cnt_type
	cmpeq	r0, r5	@, <variable>.log2_max_frame_num_minus4, <variable>.log2_max_frame_num_minus4
	movne	ip, #0	@, equal.3119
	moveq	ip, #1	@, equal.3119
	cmp	r2, #0	@ D.45768,
	and	r6, ip, r6	@ equal.3109, equal.3119, equal
	bne	.L1000	@,
	ldr	r7, [r3, #2904]	@ <variable>.log2_max_pic_order_cnt_lsb_minus4, <variable>.log2_max_pic_order_cnt_lsb_minus4
	ldr	r2, [r1, #2904]	@ <variable>.log2_max_pic_order_cnt_lsb_minus4, <variable>.log2_max_pic_order_cnt_lsb_minus4
	cmp	r7, r2	@ <variable>.log2_max_pic_order_cnt_lsb_minus4, <variable>.log2_max_pic_order_cnt_lsb_minus4
	movne	r6, #0	@, equal.3109
	andeq	r6, r6, #1	@,, equal.3109, equal.3109
.L973:
	ldrb	r2, [r1, #19]	@ zero_extendqisi2	@ <variable>.gaps_in_frame_num_value_allowed_flag, <variable>.gaps_in_frame_num_value_allowed_flag
	ldr	r5, [r3, #3944]	@ <variable>.num_ref_frames, <variable>.num_ref_frames
	ldr	r0, [r1, #3944]	@ <variable>.num_ref_frames, <variable>.num_ref_frames
	ldrb	r7, [r3, #19]	@ zero_extendqisi2	@ <variable>.gaps_in_frame_num_value_allowed_flag, <variable>.gaps_in_frame_num_value_allowed_flag
	ldr	ip, [r1, #3948]	@ <variable>.pic_width_in_mbs_minus1, <variable>.pic_width_in_mbs_minus1
	cmp	r7, r2	@ <variable>.gaps_in_frame_num_value_allowed_flag, <variable>.gaps_in_frame_num_value_allowed_flag
	cmpeq	r5, r0	@, <variable>.num_ref_frames, <variable>.num_ref_frames
	ldr	r4, [r3, #3948]	@ <variable>.pic_width_in_mbs_minus1, <variable>.pic_width_in_mbs_minus1
	ldr	r5, [r3, #3952]	@ <variable>.pic_height_in_map_units_minus1, <variable>.pic_height_in_map_units_minus1
	ldr	r0, [r1, #3952]	@ <variable>.pic_height_in_map_units_minus1, <variable>.pic_height_in_map_units_minus1
	movne	r2, #0	@, equal.3123
	moveq	r2, #1	@, equal.3123
	cmp	r4, ip	@ <variable>.pic_width_in_mbs_minus1, <variable>.pic_width_in_mbs_minus1
	movne	r4, #0	@, equal.3124
	andeq	r4, r2, #1	@,, equal.3124, equal.3123
	ldrb	r2, [r3, #20]	@ zero_extendqisi2	@ D.45801, <variable>.frame_mbs_only_flag
	ldrb	ip, [r1, #20]	@ zero_extendqisi2	@ <variable>.frame_mbs_only_flag, <variable>.frame_mbs_only_flag
	cmp	r5, r0	@ <variable>.pic_height_in_map_units_minus1, <variable>.pic_height_in_map_units_minus1
	movne	r0, #0	@, equal.3125
	andeq	r0, r4, #1	@,, equal.3125, equal.3124
	cmp	ip, r2	@ <variable>.frame_mbs_only_flag, D.45801
	movne	r0, #0	@, equal.3126
	andeq	r0, r0, #1	@,, equal.3126, equal.3125
	cmp	r2, #0	@ D.45801,
	and	r6, r0, r6	@ equal.3110, equal.3126, equal.3109
	bne	.L977	@,
	ldrb	r4, [r3, #21]	@ zero_extendqisi2	@ <variable>.mb_adaptive_frame_field_flag, <variable>.mb_adaptive_frame_field_flag
	ldrb	ip, [r1, #21]	@ zero_extendqisi2	@ <variable>.mb_adaptive_frame_field_flag, <variable>.mb_adaptive_frame_field_flag
	cmp	r4, ip	@ <variable>.mb_adaptive_frame_field_flag, <variable>.mb_adaptive_frame_field_flag
	movne	r6, #0	@, equal.3110
	andeq	r6, r6, #1	@,, equal.3110, equal.3110
.L977:
	ldrb	r2, [r3, #23]	@ zero_extendqisi2	@ D.45812, <variable>.frame_cropping_flag
	ldrb	r0, [r3, #22]	@ zero_extendqisi2	@ <variable>.direct_8x8_inference_flag, <variable>.direct_8x8_inference_flag
	ldrb	r4, [r1, #23]	@ zero_extendqisi2	@ <variable>.frame_cropping_flag, <variable>.frame_cropping_flag
	ldrb	ip, [r1, #22]	@ zero_extendqisi2	@ <variable>.direct_8x8_inference_flag, <variable>.direct_8x8_inference_flag
	cmp	r4, r2	@ <variable>.frame_cropping_flag, D.45812
	cmpeq	r0, ip	@, <variable>.direct_8x8_inference_flag, <variable>.direct_8x8_inference_flag
	movne	r0, #0	@, equal.3127
	moveq	r0, #1	@, equal.3127
	cmp	r2, #0	@ D.45812,
	and	r2, r0, r6	@ equal.3111, equal.3127, equal.3110
	beq	.L978	@,
	ldr	r5, [r1, #3960]	@ <variable>.frame_crop_right_offset, <variable>.frame_crop_right_offset
	ldr	r4, [r3, #3956]	@ <variable>.frame_crop_left_offset, <variable>.frame_crop_left_offset
	ldr	r0, [r1, #3956]	@ <variable>.frame_crop_left_offset, <variable>.frame_crop_left_offset
	ldr	r7, [r3, #3960]	@ <variable>.frame_crop_right_offset, <variable>.frame_crop_right_offset
	ldr	r6, [r3, #3964]	@ <variable>.frame_crop_top_offset, <variable>.frame_crop_top_offset
	cmp	r7, r5	@ <variable>.frame_crop_right_offset, <variable>.frame_crop_right_offset
	cmpeq	r4, r0	@, <variable>.frame_crop_left_offset, <variable>.frame_crop_left_offset
	ldr	ip, [r1, #3964]	@ <variable>.frame_crop_top_offset, <variable>.frame_crop_top_offset
	ldr	r4, [r3, #3968]	@ <variable>.frame_crop_bottom_offset, <variable>.frame_crop_bottom_offset
	ldr	r0, [r1, #3968]	@ <variable>.frame_crop_bottom_offset, <variable>.frame_crop_bottom_offset
	movne	r5, #0	@, equal.3128
	moveq	r5, #1	@, equal.3128
	cmp	r6, ip	@ <variable>.frame_crop_top_offset, <variable>.frame_crop_top_offset
	movne	ip, #0	@, equal.3129
	andeq	ip, r5, #1	@,, equal.3129, equal.3128
	cmp	r4, r0	@ <variable>.frame_crop_bottom_offset, <variable>.frame_crop_bottom_offset
	movne	r0, #0	@, equal.3130
	andeq	r0, ip, #1	@,, equal.3130, equal.3129
	and	r2, r2, r0	@ equal.3111, equal.3111, equal.3130
.L978:
	ldrb	ip, [r3, #24]	@ zero_extendqisi2	@ <variable>.vui_parameters_present_flag, <variable>.vui_parameters_present_flag
	ldrb	r3, [r1, #24]	@ zero_extendqisi2	@ <variable>.vui_parameters_present_flag, <variable>.vui_parameters_present_flag
	cmp	ip, r3	@ <variable>.vui_parameters_present_flag, <variable>.vui_parameters_present_flag
	movne	r2, #0	@, tmp396
	andeq	r2, r2, #1	@,, tmp396, equal.3111
	cmp	r2, #0	@ tmp396,
	movne	r0, #0	@, ret,
	mvneq	r0, #0	@, ret,
.L966:
	sub	sp, fp, #40
	ldmfd	sp, {r4, r5, r6, r7, r8, r9, sl, fp, sp, pc}
.L1000:
	cmp	r2, #1	@ D.45768,
	bne	.L973	@,
	ldr	r7, [r3, #2908]	@ <variable>.offset_for_non_ref_pic, <variable>.offset_for_non_ref_pic
	ldr	ip, [r1, #2908]	@ <variable>.offset_for_non_ref_pic, <variable>.offset_for_non_ref_pic
	ldrb	r5, [r3, #18]	@ zero_extendqisi2	@ <variable>.delta_pic_order_always_zero_flag, <variable>.delta_pic_order_always_zero_flag
	ldrb	r0, [r1, #18]	@ zero_extendqisi2	@ <variable>.delta_pic_order_always_zero_flag, <variable>.delta_pic_order_always_zero_flag
	ldr	r4, [r3, #2912]	@ <variable>.offset_for_top_to_bottom_field, <variable>.offset_for_top_to_bottom_field
	cmp	r7, ip	@ <variable>.offset_for_non_ref_pic, <variable>.offset_for_non_ref_pic
	cmpeq	r5, r0	@, <variable>.delta_pic_order_always_zero_flag, <variable>.delta_pic_order_always_zero_flag
	ldr	r2, [r1, #2912]	@ <variable>.offset_for_top_to_bottom_field, <variable>.offset_for_top_to_bottom_field
	ldr	r7, [r3, #2916]	@ D.45783, <variable>.num_ref_frames_in_pic_order_cnt_cycle
	ldr	r0, [r1, #2916]	@ <variable>.num_ref_frames_in_pic_order_cnt_cycle, <variable>.num_ref_frames_in_pic_order_cnt_cycle
	movne	ip, #0	@, equal.3120
	moveq	ip, #1	@, equal.3120
	cmp	r4, r2	@ <variable>.offset_for_top_to_bottom_field, <variable>.offset_for_top_to_bottom_field
	movne	r5, #0	@, equal.3121
	andeq	r5, ip, #1	@,, equal.3121, equal.3120
	cmp	r7, r0	@ D.45783, <variable>.num_ref_frames_in_pic_order_cnt_cycle
	movne	r5, #0	@, equal.3122
	andeq	r5, r5, #1	@,, equal.3122, equal.3121
	cmp	r7, #0	@ D.45783,
	and	r6, r6, r5	@ equal.3109, equal.3109, equal.3122
	beq	.L973	@,
	ldr	r4, [r3, #2920]	@ tmp343, <variable>.offset_for_ref_frame
	mov	r7, r7, asl #2	@ D.50819, D.45783,
	ldr	r5, [r1, #2920]	@ tmp344, <variable>.offset_for_ref_frame
	mov	r2, #4	@ ivtmp.3052,
	sub	r0, r7, #4	@ tmp401, D.50819,
	cmp	r4, r5	@ tmp343, tmp344
	movne	r6, #0	@, equal.3109
	andeq	r6, r6, #1	@,, equal.3109, equal.3109
	cmp	r2, r7	@ ivtmp.3052, D.50819
	ubfx	r0, r0, #2, #1	@ tmp402, tmp401,,
	beq	.L973	@,
	cmp	r0, #0	@ tmp402,
	beq	.L976	@,
	ldr	r4, [r3, #2924]	@ tmp437, <variable>.offset_for_ref_frame
	mov	r2, #8	@ ivtmp.3052,
	ldr	r0, [r1, #2924]	@ tmp438, <variable>.offset_for_ref_frame
	cmp	r4, r0	@ tmp437, tmp438
	movne	r6, #0	@, equal.3109
	andeq	r6, r6, #1	@,, equal.3109, equal.3109
	cmp	r2, r7	@ ivtmp.3052, D.50819
	beq	.L973	@,
.L976:
	add	r0, r2, #4	@ tmp403, ivtmp.3052,
	add	r4, r3, r2	@ tmp423, pSPS1, ivtmp.3052
	add	r2, r1, r2	@ tmp424, pSPS2, ivtmp.3052
	add	ip, r3, r0	@ tmp430, pSPS1, tmp403
	add	r8, r1, r0	@ tmp431, pSPS2, tmp403
	ldr	r5, [r4, #2920]	@ tmp425, <variable>.offset_for_ref_frame
	ldr	r4, [r2, #2920]	@ tmp426, <variable>.offset_for_ref_frame
	add	r2, r0, #4	@ ivtmp.3052, tmp403,
	ldr	ip, [ip, #2920]	@ tmp432, <variable>.offset_for_ref_frame
	ldr	r0, [r8, #2920]	@ tmp433, <variable>.offset_for_ref_frame
	cmp	r5, r4	@ tmp425, tmp426
	movne	r6, #0	@, equal.3109
	andeq	r6, r6, #1	@,, equal.3109, equal.3109
	cmp	ip, r0	@ tmp432, tmp433
	movne	r6, #0	@, equal.3109
	andeq	r6, r6, #1	@,, equal.3109, equal.3109
	cmp	r2, r7	@ ivtmp.3052, D.50819
	bne	.L976	@,
	b	.L973	@
.L997:
	mov	r0, r1	@, pSPS2
	movw	r2, #:lower16:.LC2	@,
	movw	r1, #:lower16:.LC1	@,
	movt	r2, #:upper16:.LC2	@,
	movt	r1, #:upper16:.LC1	@,
	movw	r3, #9864	@,
	bl	dprint_vfmw	@
	mvn	r0, #0	@ ret,
	b	.L966	@
.L996:
	movw	r1, #:lower16:.LC1	@,
	movw	r2, #:lower16:.LC2	@,
	movt	r1, #:upper16:.LC1	@,
	movt	r2, #:upper16:.LC2	@,
	movw	r3, #9863	@,
	bl	dprint_vfmw	@
	mvn	r0, #0	@ ret,
	b	.L966	@
	.fnend
	.size	MVC_SPSEqual, .-MVC_SPSEqual
	.align	2
	.global	MVC_PPSEqual
	.type	MVC_PPSEqual, %function
MVC_PPSEqual:
	.fnstart
.LFB1651:
	@ args = 0, pretend = 0, frame = 24
	@ frame_needed = 1, uses_anonymous_args = 0
	.movsp ip
	mov	ip, sp	@,
	stmfd	sp!, {r4, r5, r6, r7, r8, r9, sl, fp, ip, lr, pc}	@,
	.pad #4
	.save {r4, r5, r6, r7, r8, r9, sl, fp, ip, lr}
	.setfp fp, ip, #-4
	sub	fp, ip, #4	@,,
	.pad #28
	sub	sp, sp, #28	@,,
	push	{lr}
	bl	__gnu_mcount_nc
	subs	r3, r0, #0	@ pPPS1, pPPS1
	beq	.L1022	@,
	cmp	r1, #0	@ pPPS2,
	beq	.L1023	@,
	ldr	r4, [r3, #24]	@ <variable>.pic_parameter_set_id, <variable>.pic_parameter_set_id
	ldr	ip, [r1, #24]	@ <variable>.pic_parameter_set_id, <variable>.pic_parameter_set_id
	ldr	r2, [r1, #28]	@ <variable>.seq_parameter_set_id, <variable>.seq_parameter_set_id
	ldr	r6, [r3, #28]	@ <variable>.seq_parameter_set_id, <variable>.seq_parameter_set_id
	ldrb	r0, [r1, #0]	@ zero_extendqisi2	@ <variable>.entropy_coding_mode_flag, <variable>.entropy_coding_mode_flag
	cmp	r4, ip	@ <variable>.pic_parameter_set_id, <variable>.pic_parameter_set_id
	cmpeq	r6, r2	@, <variable>.seq_parameter_set_id, <variable>.seq_parameter_set_id
	ldrb	r5, [r3, #0]	@ zero_extendqisi2	@ <variable>.entropy_coding_mode_flag, <variable>.entropy_coding_mode_flag
	ldrb	r2, [r1, #1]	@ zero_extendqisi2	@ <variable>.pic_order_present_flag, <variable>.pic_order_present_flag
	ldrb	r4, [r3, #1]	@ zero_extendqisi2	@ <variable>.pic_order_present_flag, <variable>.pic_order_present_flag
	movne	ip, #0	@, equal.3282
	moveq	ip, #1	@, equal.3282
	cmp	r5, r0	@ <variable>.entropy_coding_mode_flag, <variable>.entropy_coding_mode_flag
	movne	r5, #0	@, equal.3283
	andeq	r5, ip, #1	@,, equal.3283, equal.3282
	ldr	ip, [r1, #36]	@ <variable>.num_ref_idx_l0_active_minus1, <variable>.num_ref_idx_l0_active_minus1
	ldr	r0, [r3, #36]	@ <variable>.num_ref_idx_l0_active_minus1, <variable>.num_ref_idx_l0_active_minus1
	cmp	r4, r2	@ <variable>.pic_order_present_flag, <variable>.pic_order_present_flag
	movne	r4, #0	@, equal.3284
	andeq	r4, r5, #1	@,, equal.3284, equal.3283
	ldr	r5, [r1, #40]	@ <variable>.num_ref_idx_l1_active_minus1, <variable>.num_ref_idx_l1_active_minus1
	ldr	r2, [r3, #40]	@ <variable>.num_ref_idx_l1_active_minus1, <variable>.num_ref_idx_l1_active_minus1
	cmp	r0, ip	@ <variable>.num_ref_idx_l0_active_minus1, <variable>.num_ref_idx_l0_active_minus1
	movne	r0, #0	@, equal.3285
	andeq	r0, r4, #1	@,, equal.3285, equal.3284
	ldrb	r4, [r1, #2]	@ zero_extendqisi2	@ <variable>.weighted_pred_flag, <variable>.weighted_pred_flag
	ldrb	ip, [r3, #2]	@ zero_extendqisi2	@ <variable>.weighted_pred_flag, <variable>.weighted_pred_flag
	cmp	r2, r5	@ <variable>.num_ref_idx_l1_active_minus1, <variable>.num_ref_idx_l1_active_minus1
	movne	r2, #0	@, equal.3286
	andeq	r2, r0, #1	@,, equal.3286, equal.3285
	ldr	r0, [r1, #44]	@ <variable>.weighted_bipred_idc, <variable>.weighted_bipred_idc
	ldr	r5, [r3, #44]	@ <variable>.weighted_bipred_idc, <variable>.weighted_bipred_idc
	cmp	ip, r4	@ <variable>.weighted_pred_flag, <variable>.weighted_pred_flag
	movne	ip, #0	@, equal.3287
	andeq	ip, r2, #1	@,, equal.3287, equal.3286
	ldr	r2, [r1, #48]	@ <variable>.pic_init_qp_minus26, <variable>.pic_init_qp_minus26
	ldr	r4, [r3, #48]	@ <variable>.pic_init_qp_minus26, <variable>.pic_init_qp_minus26
	cmp	r5, r0	@ <variable>.weighted_bipred_idc, <variable>.weighted_bipred_idc
	movne	r5, #0	@, equal.3288
	andeq	r5, ip, #1	@,, equal.3288, equal.3287
	ldr	ip, [r1, #52]	@ <variable>.chroma_qp_index_offset, <variable>.chroma_qp_index_offset
	ldr	r0, [r3, #52]	@ <variable>.chroma_qp_index_offset, <variable>.chroma_qp_index_offset
	cmp	r4, r2	@ <variable>.pic_init_qp_minus26, <variable>.pic_init_qp_minus26
	movne	r4, #0	@, equal.3289
	andeq	r4, r5, #1	@,, equal.3289, equal.3288
	ldrb	r5, [r1, #3]	@ zero_extendqisi2	@ <variable>.deblocking_filter_control_present_flag, <variable>.deblocking_filter_control_present_flag
	ldrb	r2, [r3, #3]	@ zero_extendqisi2	@ <variable>.deblocking_filter_control_present_flag, <variable>.deblocking_filter_control_present_flag
	cmp	r0, ip	@ <variable>.chroma_qp_index_offset, <variable>.chroma_qp_index_offset
	movne	r0, #0	@, equal.3290
	andeq	r0, r4, #1	@,, equal.3290, equal.3289
	ldrb	r4, [r1, #4]	@ zero_extendqisi2	@ <variable>.constrained_intra_pred_flag, <variable>.constrained_intra_pred_flag
	ldrb	ip, [r3, #4]	@ zero_extendqisi2	@ <variable>.constrained_intra_pred_flag, <variable>.constrained_intra_pred_flag
	cmp	r2, r5	@ <variable>.deblocking_filter_control_present_flag, <variable>.deblocking_filter_control_present_flag
	movne	r2, #0	@, equal.3291
	andeq	r2, r0, #1	@,, equal.3291, equal.3290
	ldr	r0, [r3, #60]	@ D.45486, <variable>.transform_8x8_mode_flag
	ldr	r5, [r1, #60]	@ <variable>.transform_8x8_mode_flag, <variable>.transform_8x8_mode_flag
	cmp	ip, r4	@ <variable>.constrained_intra_pred_flag, <variable>.constrained_intra_pred_flag
	movne	ip, #0	@, equal.3292
	andeq	ip, r2, #1	@,, equal.3292, equal.3291
	ldrb	r2, [r3, #18]	@ zero_extendqisi2	@ D.45489, <variable>.pic_scaling_matrix_present_flag
	ldrb	r4, [r1, #18]	@ zero_extendqisi2	@ <variable>.pic_scaling_matrix_present_flag, <variable>.pic_scaling_matrix_present_flag
	cmp	r0, r5	@ D.45486, <variable>.transform_8x8_mode_flag
	movne	ip, #0	@, equal.3293
	andeq	ip, ip, #1	@,, equal.3293, equal.3292
	cmp	r4, r2	@ <variable>.pic_scaling_matrix_present_flag, D.45489
	movne	ip, #0	@, equal
	andeq	ip, ip, #1	@,, equal, equal.3293
	cmp	r2, #0	@ D.45489,
	beq	.L1005	@,
	mov	r2, r0, asl #1	@ tmp242, D.45486,
	adds	r0, r2, #6	@, tmp242,
	str	r0, [fp, #-64]	@, %sfp
	beq	.L1005	@,
	mov	r8, r3	@ ivtmp.3241, pPPS1
	mov	sl, r1	@ ivtmp.3340, pPPS2
	mov	r9, #0	@ i,
	str	r1, [fp, #-52]	@ pPPS2, %sfp
	str	r3, [fp, #-48]	@ pPPS1, %sfp
	str	r3, [fp, #-56]	@ pPPS1, %sfp
	str	r1, [fp, #-60]	@ pPPS2, %sfp
.L1009:
	ldr	r3, [fp, #-56]	@, %sfp
	ldr	r4, [fp, #-60]	@, %sfp
	add	r2, r3, r9	@ tmp243,, i
	add	r0, r4, r9	@ tmp244,, i
	ldrb	r3, [r2, #5]	@ zero_extendqisi2	@ D.45495, <variable>.pic_scaling_list_present_flag
	ldrb	r1, [r0, #5]	@ zero_extendqisi2	@ D.45495, <variable>.pic_scaling_list_present_flag
	cmp	r3, r1	@ D.45495, D.45495
	movne	ip, #0	@, equal
	andeq	ip, ip, #1	@,, equal, equal
	cmp	r3, #0	@ D.45495,
	beq	.L1021	@,
	cmp	r9, #5	@ i,
	bhi	.L1007	@,
	ldr	r4, [fp, #-48]	@, %sfp
	ldr	r2, [fp, #-52]	@, %sfp
	ldr	r0, [r4, #1984]	@ D.45502, <variable>.UseDefaultScalingMatrix4x4Flag
	ldr	r1, [r2, #1984]	@ tmp250, <variable>.UseDefaultScalingMatrix4x4Flag
	cmp	r0, r1	@ D.45502, tmp250
	movne	ip, #0	@, equal
	andeq	ip, ip, #1	@,, equal, equal
	cmp	r0, #0	@ D.45502,
	beq	.L1019	@,
.L1021:
	add	r9, r9, #1	@ i, i,
.L1006:
	ldr	r4, [fp, #-64]	@, %sfp
	add	r8, r8, #64	@ ivtmp.3241, ivtmp.3241,
	ldr	r2, [fp, #-48]	@, %sfp
	add	sl, sl, #64	@ ivtmp.3340, ivtmp.3340,
	ldr	r1, [fp, #-52]	@, %sfp
	cmp	r4, r9	@, i
	add	r3, r2, #4	@,,
	str	r3, [fp, #-48]	@, %sfp
	add	r0, r1, #4	@,,
	str	r0, [fp, #-52]	@, %sfp
	bhi	.L1009	@,
	ldr	r3, [fp, #-56]	@ pPPS1, %sfp
	ldr	r1, [fp, #-60]	@ pPPS2, %sfp
.L1005:
	ldr	r0, [r3, #56]	@ <variable>.second_chroma_qp_index_offset, <variable>.second_chroma_qp_index_offset
	ldr	r3, [r1, #56]	@ <variable>.second_chroma_qp_index_offset, <variable>.second_chroma_qp_index_offset
	cmp	r0, r3	@ <variable>.second_chroma_qp_index_offset, <variable>.second_chroma_qp_index_offset
	movne	ip, #0	@, tmp333
	andeq	ip, ip, #1	@,, tmp333, equal
	cmp	ip, #0	@ tmp333,
	movne	r0, #0	@, ret,
	mvneq	r0, #0	@, ret,
.L1003:
	sub	sp, fp, #40
	ldmfd	sp, {r4, r5, r6, r7, r8, r9, sl, fp, sp, pc}
.L1007:
	ldr	r2, [fp, #-48]	@, %sfp
	ldr	r1, [fp, #-52]	@, %sfp
	ldr	r4, [r2, #1984]	@ D.45513, <variable>.UseDefaultScalingMatrix8x8Flag
	sub	r2, r9, #6	@ D.45512, i,
	ldr	r0, [r1, #1984]	@ tmp319, <variable>.UseDefaultScalingMatrix8x8Flag
	cmp	r4, r0	@ D.45513, tmp319
	movne	ip, #0	@, equal
	andeq	ip, ip, #1	@,, equal, equal
	cmp	r4, #0	@ D.45513,
	bne	.L1021	@,
	mov	r3, r2, asl #8	@ tmp321, D.45512,
	ldr	r5, [fp, #-60]	@, %sfp
	ldr	r7, [fp, #-56]	@, %sfp
	add	r6, r3, #448	@ tmp322, tmp321,
	add	r0, r5, r6	@ ivtmp.3231,, tmp322
	add	r1, r7, r6	@ ivtmp.3228,, tmp322
.L1008:
	mov	r2, r1	@ tmp337, ivtmp.3228
	mov	r3, r0	@ tmp338, ivtmp.3231
	ldr	r7, [r2], #4	@ tmp326, <variable>.ScalingList8x8
	add	r4, r4, #2	@ j, j,
	ldr	r6, [r3], #4	@ tmp327, <variable>.ScalingList8x8
	ldr	r5, [r1, #4]	@ tmp343, <variable>.ScalingList8x8
	add	r1, r2, #4	@ ivtmp.3228, tmp337,
	ldr	r2, [r0, #4]	@ tmp344, <variable>.ScalingList8x8
	cmp	r7, r6	@ tmp326, tmp327
	movne	ip, #0	@, equal
	andeq	ip, ip, #1	@,, equal, equal
	add	r0, r3, #4	@ ivtmp.3231, tmp338,
	cmp	r5, r2	@ tmp343, tmp344
	movne	ip, #0	@, equal
	andeq	ip, ip, #1	@,, equal, equal
	cmp	r4, #64	@ j,
	bne	.L1008	@,
	b	.L1021	@
.L1019:
	ldr	r0, [r8, #72]	@ tmp253, <variable>.ScalingList4x4
	add	r9, r9, #1	@ i, i,
	ldr	r1, [sl, #72]	@ tmp254, <variable>.ScalingList4x4
	ldr	r2, [r8, #68]	@ tmp257, <variable>.ScalingList4x4
	ldr	r3, [sl, #68]	@ tmp258, <variable>.ScalingList4x4
	ldr	r5, [r8, #76]	@ tmp261, <variable>.ScalingList4x4
	cmp	r0, r1	@ tmp253, tmp254
	cmpeq	r2, r3	@, tmp257, tmp258
	ldr	r6, [sl, #76]	@ tmp262, <variable>.ScalingList4x4
	ldr	r4, [sl, #80]	@ tmp266, <variable>.ScalingList4x4
	ldr	r1, [r8, #80]	@ tmp265, <variable>.ScalingList4x4
	movne	r3, #0	@, equal.3298
	moveq	r3, #1	@, equal.3298
	ldr	r0, [r8, #84]	@ tmp269, <variable>.ScalingList4x4
	cmp	r5, r6	@ tmp261, tmp262
	movne	r3, #0	@, equal.3302
	andeq	r3, r3, #1	@,, equal.3302, equal.3298
	ldr	r5, [sl, #84]	@ tmp270, <variable>.ScalingList4x4
	cmp	r1, r4	@ tmp265, tmp266
	movne	r1, #0	@, equal.3306
	andeq	r1, r3, #1	@,, equal.3306, equal.3302
	ldr	r2, [r8, #88]	@ tmp273, <variable>.ScalingList4x4
	ldr	r3, [sl, #88]	@ tmp274, <variable>.ScalingList4x4
	cmp	r0, r5	@ tmp269, tmp270
	movne	r1, #0	@, equal.3310
	andeq	r1, r1, #1	@,, equal.3310, equal.3306
	ldr	r4, [r8, #92]	@ tmp277, <variable>.ScalingList4x4
	ldr	r5, [sl, #92]	@ tmp278, <variable>.ScalingList4x4
	cmp	r2, r3	@ tmp273, tmp274
	movne	r3, #0	@, equal.3314
	andeq	r3, r1, #1	@,, equal.3314, equal.3310
	ldr	r0, [r8, #96]	@ tmp281, <variable>.ScalingList4x4
	ldr	r1, [sl, #96]	@ tmp282, <variable>.ScalingList4x4
	cmp	r4, r5	@ tmp277, tmp278
	movne	r3, #0	@, equal.3318
	andeq	r3, r3, #1	@,, equal.3318, equal.3314
	ldr	r4, [r8, #100]	@ tmp285, <variable>.ScalingList4x4
	ldr	r5, [sl, #100]	@ tmp286, <variable>.ScalingList4x4
	cmp	r0, r1	@ tmp281, tmp282
	movne	r1, #0	@, equal.3322
	andeq	r1, r3, #1	@,, equal.3322, equal.3318
	ldr	r2, [r8, #104]	@ tmp289, <variable>.ScalingList4x4
	ldr	r0, [sl, #104]	@ tmp290, <variable>.ScalingList4x4
	cmp	r4, r5	@ tmp285, tmp286
	movne	r1, #0	@, equal.3326
	andeq	r1, r1, #1	@,, equal.3326, equal.3322
	ldr	r4, [r8, #108]	@ tmp293, <variable>.ScalingList4x4
	ldr	r5, [sl, #108]	@ tmp294, <variable>.ScalingList4x4
	cmp	r2, r0	@ tmp289, tmp290
	movne	r3, #0	@, equal.3330
	andeq	r3, r1, #1	@,, equal.3330, equal.3326
	ldr	r0, [r8, #112]	@ tmp297, <variable>.ScalingList4x4
	ldr	r1, [sl, #112]	@ tmp298, <variable>.ScalingList4x4
	cmp	r4, r5	@ tmp293, tmp294
	movne	r3, #0	@, equal.3334
	andeq	r3, r3, #1	@,, equal.3334, equal.3330
	ldr	r4, [r8, #116]	@ tmp301, <variable>.ScalingList4x4
	ldr	r5, [sl, #116]	@ tmp302, <variable>.ScalingList4x4
	cmp	r0, r1	@ tmp297, tmp298
	movne	r1, #0	@, equal.3339
	andeq	r1, r3, #1	@,, equal.3339, equal.3334
	ldr	r2, [r8, #120]	@ tmp305, <variable>.ScalingList4x4
	cmp	r4, r5	@ tmp301, tmp302
	movne	r1, #0	@, equal.3344
	andeq	r1, r1, #1	@,, equal.3344, equal.3339
	ldr	r4, [fp, #-56]	@, %sfp
	ldr	r3, [sl, #120]	@ tmp306, <variable>.ScalingList4x4
	ldr	r0, [r4, r9, asl #6]	@ tmp311, <variable>.ScalingList4x4
	cmp	r2, r3	@ tmp305, tmp306
	movne	r4, #0	@, equal.3348
	andeq	r4, r1, #1	@,, equal.3348, equal.3344
	ldr	r2, [fp, #-60]	@, %sfp
	and	ip, ip, r4	@ equal.3352, equal, equal.3348
	ldr	r3, [sl, #124]	@ tmp316, <variable>.ScalingList4x4
	ldr	r1, [r2, r9, asl #6]	@ tmp312, <variable>.ScalingList4x4
	ldr	r2, [r8, #124]	@ tmp315, <variable>.ScalingList4x4
	cmp	r0, r1	@ tmp311, tmp312
	movne	ip, #0	@, equal.3356
	andeq	ip, ip, #1	@,, equal.3356, equal.3352
	cmp	r2, r3	@ tmp315, tmp316
	movne	ip, #0	@, equal
	andeq	ip, ip, #1	@,, equal, equal.3356
	b	.L1006	@
.L1022:
	movw	r1, #:lower16:.LC1	@,
	movw	r2, #:lower16:.LC2	@,
	movt	r1, #:upper16:.LC1	@,
	movt	r2, #:upper16:.LC2	@,
	movw	r3, #9645	@,
	bl	dprint_vfmw	@
	mvn	r0, #0	@ ret,
	b	.L1003	@
.L1023:
	mov	r0, r1	@, pPPS2
	movw	r2, #:lower16:.LC2	@,
	movw	r1, #:lower16:.LC1	@,
	movt	r2, #:upper16:.LC2	@,
	movt	r1, #:upper16:.LC1	@,
	movw	r3, #9646	@,
	bl	dprint_vfmw	@
	mvn	r0, #0	@ ret,
	b	.L1003	@
	.fnend
	.size	MVC_PPSEqual, .-MVC_PPSEqual
	.align	2
	.global	MVC_CalcStreamBits
	.type	MVC_CalcStreamBits, %function
MVC_CalcStreamBits:
	.fnstart
.LFB1646:
	@ args = 0, pretend = 0, frame = 0
